 arclite

 Timestamp is 4f4574b5 (Thu Feb 23 00:05:25 2012)

 Preferred load address is 64000000

 Start         Length     Name                   Class
 0001:00000000 00079acaH .text                   CODE
 0001:00079ad0 00009c91H .text$x                 CODE
 0001:00083770 00000336H .text$yc                CODE
 0001:00083ab0 000003e2H .text$yd                CODE
 0002:00000000 00000240H .idata$5                DATA
 0002:00000240 00000004H .CRT$XCA                DATA
 0002:00000244 0000000cH .CRT$XCC                DATA
 0002:00000250 00000008H .CRT$XCL                DATA
 0002:00000258 00000048H .CRT$XCU                DATA
 0002:000002a0 00000004H .CRT$XCZ                DATA
 0002:000002a4 00000004H .CRT$XIA                DATA
 0002:000002a8 00000010H .CRT$XIC                DATA
 0002:000002b8 00000004H .CRT$XID                DATA
 0002:000002bc 00000004H .CRT$XIZ                DATA
 0002:000002c0 00000004H .CRT$XPA                DATA
 0002:000002c4 00000004H .CRT$XPX                DATA
 0002:000002c8 00000004H .CRT$XPXA               DATA
 0002:000002cc 00000004H .CRT$XPZ                DATA
 0002:000002d0 00000004H .CRT$XTA                DATA
 0002:000002d4 00000004H .CRT$XTZ                DATA
 0002:000002e0 000059a0H .rdata                  DATA
 0002:00005c80 000021a8H .rdata$r                DATA
 0002:00007e30 00000790H .rdata$sxdata           DATA
 0002:000085c0 00000004H .rtc$IAA                DATA
 0002:000085c4 00000004H .rtc$IZZ                DATA
 0002:000085c8 00000004H .rtc$TAA                DATA
 0002:000085cc 00000004H .rtc$TZZ                DATA
 0002:000085d0 0000bfd4H .xdata$x                DATA
 0002:000145a4 00000078H .idata$2                DATA
 0002:0001461c 00000014H .idata$3                DATA
 0002:00014630 00000240H .idata$4                DATA
 0002:00014870 00000a2eH .idata$6                DATA
 0002:000152a0 000001ecH .edata                  DATA
 0003:00000000 000024e8H .data                   DATA
 0003:00002500 000025fcH .bss                    DATA
 0004:00000000 00000058H .rsrc$01                DATA
 0004:00000060 00000290H .rsrc$02                DATA

  Address         Publics by Value              Rva+Base       Lib:Object

 0000:00000000       __except_list              00000000     <absolute>
 0000:000001e4       ___safe_se_handler_count   000001e4     <absolute>
 0000:00000000       ___ImageBase               64000000     <linker-defined>
 0001:00000000       ??0Error@@QAE@JPBDH@Z      64001000 f i archive.obj
 0001:00000070       ??0Error@@QAE@ABV?$basic_string@_WU?$char_traits@_W@std@@V?$allocator@_W@2@@std@@PBDH@Z 64001070 f i archive.obj
 0001:00000130       ?clear@PropVariant@@AAEXXZ 64001130 f i archive.obj
 0001:000001c0       ??1PropVariant@@QAE@XZ     640011c0 f i archive.obj
 0001:000001d0       ?is_uint@PropVariant@@QBE_NXZ 640011d0 f i archive.obj
 0001:00000200       ?get_uint@PropVariant@@QBE_KXZ 64001200 f i archive.obj
 0001:000002d0       ?get_str@PropVariant@@QBE?AV?$basic_string@_WU?$char_traits@_W@std@@V?$allocator@_W@2@@std@@XZ 640012d0 f i archive.obj
 0001:000003d0       ??1Error@@QAE@XZ           640013d0 f i archive.obj
 0001:000003f0       ??0Error@@QAE@ABU0@@Z      640013f0 f i archive.obj
 0001:00000420       ??0ArcAPI@@AAE@XZ          64001420 f i archive.obj
 0001:000004d0       ?formats@ArcAPI@@SAABVArcFormats@@XZ 640014d0 f i archive.obj
 0001:00000550       ?arc_dir@Archive@@QBE?AV?$basic_string@_WU?$char_traits@_W@std@@V?$allocator@_W@2@@std@@XZ 64001550 f i archive.obj
 0001:00000570       ?arc_name@Archive@@QBE?AV?$basic_string@_WU?$char_traits@_W@std@@V?$allocator@_W@2@@std@@XZ 64001570 f i archive.obj
 0001:00000630       ?get_bool_prop@ArcLib@@QBEJIKAA_N@Z 64001630 f   archive.obj
 0001:00000730       ?get_string_prop@ArcLib@@QBEJIKAAV?$basic_string@_WU?$char_traits@_W@std@@V?$allocator@_W@2@@std@@@Z 64001730 f   archive.obj
 0001:00000870       ?get_bytes_prop@ArcLib@@QBEJIKAAV?$vector@EV?$allocator@E@std@@@std@@@Z 64001870 f   archive.obj
 0001:000009c0       ?default_extension@ArcFormat@@QBE?AV?$basic_string@_WU?$char_traits@_W@std@@V?$allocator@_W@2@@std@@XZ 640019c0 f   archive.obj
 0001:00000a60       ?get_arc_types@ArcFormats@@QBE?AV?$list@V?$vector@EV?$allocator@E@std@@@std@@V?$allocator@V?$vector@EV?$allocator@E@std@@@std@@@2@@std@@XZ 64001a60 f   archive.obj
 0001:00000b90       ?find_by_name@ArcFormats@@QBE?AV?$list@V?$vector@EV?$allocator@E@std@@@std@@V?$allocator@V?$vector@EV?$allocator@E@std@@@std@@@2@@std@@ABV?$basic_string@_WU?$char_traits@_W@std@@V?$allocator@_W@2@@3@@Z 64001b90 f   archive.obj
 0001:00000dc0       ?find_by_ext@ArcFormats@@QBE?AV?$list@V?$vector@EV?$allocator@E@std@@@std@@V?$allocator@V?$vector@EV?$allocator@E@std@@@std@@@2@@std@@ABV?$basic_string@_WU?$char_traits@_W@std@@V?$allocator@_W@2@@3@@Z 64001dc0 f   archive.obj
 0001:00001220       ?find_by_name@SfxModules@@QBEIABV?$basic_string@_WU?$char_traits@_W@std@@V?$allocator@_W@2@@std@@@Z 64002220 f   archive.obj
 0001:000013d0       ?to_string@ArcChain@@QBE?AV?$basic_string@_WU?$char_traits@_W@std@@V?$allocator@_W@2@@std@@XZ 640023d0 f   archive.obj
 0001:00001450       ??1ArcAPI@@AAE@XZ          64002450 f   archive.obj
 0001:00001530       ?load_libs@ArcAPI@@AAEXABV?$basic_string@_WU?$char_traits@_W@std@@V?$allocator@_W@2@@std@@@Z 64002530 f   archive.obj
 0001:000018a0       ??1ArcLib@@QAE@XZ          640028a0 f i archive.obj
 0001:000018a0       ??$_Dest_val@V?$allocator@UArcLib@@@std@@UArcLib@@@std@@YAXAAV?$allocator@UArcLib@@@0@PAUArcLib@@@Z 640028a0 f i archive.obj
 0001:000018d0       ?find@@YAPBUSfxModuleInfo@@ABV?$basic_string@_WU?$char_traits@_W@std@@V?$allocator@_W@2@@std@@@Z 640028d0 f   archive.obj
 0001:00001b80       ?description@SfxModule@@QBE?AV?$basic_string@_WU?$char_traits@_W@std@@V?$allocator@_W@2@@std@@XZ 64002b80 f   archive.obj
 0001:00001e00       ?find_sfx_modules@ArcAPI@@AAEXABV?$basic_string@_WU?$char_traits@_W@std@@V?$allocator@_W@2@@std@@@Z 64002e00 f   archive.obj
 0001:00002360       ?load@ArcAPI@@AAEXXZ       64003360 f   archive.obj
 0001:00002d00       ??1ArcFormat@@QAE@XZ       64003d00 f i archive.obj
 0001:00002d70       ??1?$set@IU?$less@I@std@@V?$allocator@I@2@@std@@QAE@XZ 64003d70 f i archive.obj
 0001:00002de0       ?create_in_archive@ArcAPI@@SAXABV?$vector@EV?$allocator@E@std@@@std@@PAPAUIInArchive@@@Z 64003de0 f   archive.obj
 0001:00002f70       ?create_out_archive@ArcAPI@@SAXABV?$vector@EV?$allocator@E@std@@@std@@PAPAUIOutArchive@@@Z 64003f70 f   archive.obj
 0001:00003100       ?get_default_name@Archive@@ABE?AV?$basic_string@_WU?$char_traits@_W@std@@V?$allocator@_W@2@@std@@XZ 64004100 f   archive.obj
 0001:000031e0       ?get_temp_file_name@Archive@@ABE?AV?$basic_string@_WU?$char_traits@_W@std@@V?$allocator@_W@2@@std@@XZ 640041e0 f   archive.obj
 0001:00003480       ?make_index@Archive@@QAEXXZ 64004480 f   archive.obj
 0001:00003eb0       ??R<lambda3>@?A0xe7bd9b10@@QBEXABUDirInfo@?4??make_index@Archive@@QAEXXZ@@Z 64004eb0 f i archive.obj
 0001:00003f40       ??1?$map@IIU?$less@I@std@@V?$allocator@U?$pair@$$CBII@std@@@2@@std@@QAE@XZ 64004f40 f i archive.obj
 0001:00003fb0       ??1?$set@UDirInfo@?4??make_index@Archive@@QAEXXZ@U?$less@UDirInfo@?4??make_index@Archive@@QAEXXZ@@std@@V?$allocator@UDirInfo@?4??make_index@Archive@@QAEXXZ@@5@@std@@QAE@XZ 64004fb0 f i archive.obj
 0001:00004010       ??1DirInfo@?4??make_index@Archive@@QAEXXZ@QAE@XZ 64005010 f i archive.obj
 0001:00004040       ?find_dir@Archive@@QAEIABV?$basic_string@_WU?$char_traits@_W@std@@V?$allocator@_W@2@@std@@@Z 64005040 f   archive.obj
 0001:00004210       ?get_dir_list@Archive@@QAE?AU?$pair@V?$_Vector_const_iterator@V?$_Vector_val@IV?$allocator@I@std@@@std@@@std@@V12@@std@@I@Z 64005210 f   archive.obj
 0001:000042b0       ?get_file_info@Archive@@QAE?AUFindData@@I@Z 640052b0 f   archive.obj
 0001:00004380       ?get_main_file@Archive@@QBE_NAAI@Z 64005380 f   archive.obj
 0001:00004440       ?get_attr@Archive@@QBEKI@Z 64005440 f   archive.obj
 0001:00004610       ?get_size@Archive@@QBE_KI@Z 64005610 f   archive.obj
 0001:00004710       ?get_psize@Archive@@QBE_KI@Z 64005710 f   archive.obj
 0001:00004810       ?get_ctime@Archive@@QBE?AU_FILETIME@@I@Z 64005810 f   archive.obj
 0001:000048d0       ?get_mtime@Archive@@QBE?AU_FILETIME@@I@Z 640058d0 f   archive.obj
 0001:000049a0       ?get_atime@Archive@@QBE?AU_FILETIME@@I@Z 640059a0 f   archive.obj
 0001:00004a60       ?get_crc@Archive@@QBEII@Z  64005a60 f   archive.obj
 0001:00004c10       ??0?$basic_string@_WU?$char_traits@_W@std@@V?$allocator@_W@2@@std@@QAE@$$QAV01@@Z 64005c10 f i archive.obj
 0001:00004c30       ?assign@?$basic_string@_WU?$char_traits@_W@std@@V?$allocator@_W@2@@std@@QAEAAV12@$$QAV12@@Z 64005c30 f i archive.obj
 0001:00004ca0       ?insert@?$basic_string@_WU?$char_traits@_W@std@@V?$allocator@_W@2@@std@@QAEAAV12@II_W@Z 64005ca0 f i archive.obj
 0001:00004d80       ?substr@?$basic_string@_WU?$char_traits@_W@std@@V?$allocator@_W@2@@std@@QBE?AV12@II@Z 64005d80 f i archive.obj
 0001:00004db0       ??0?$list@V?$basic_string@_WU?$char_traits@_W@std@@V?$allocator@_W@2@@std@@V?$allocator@V?$basic_string@_WU?$char_traits@_W@std@@V?$allocator@_W@2@@std@@@2@@std@@QAE@ABV01@@Z 64005db0 f i archive.obj
 0001:00004e70       ??0?$vector@EV?$allocator@E@std@@@std@@QAE@ABV01@@Z 64005e70 f i archive.obj
 0001:00004f20       ??4?$vector@EV?$allocator@E@std@@@std@@QAEAAV01@ABV01@@Z 64005f20 f i archive.obj
 0001:00005000       ??A?$map@V?$vector@EV?$allocator@E@std@@@std@@UArcFormat@@U?$less@V?$vector@EV?$allocator@E@std@@@std@@@2@V?$allocator@U?$pair@$$CBV?$vector@EV?$allocator@E@std@@@std@@UArcFormat@@@std@@@2@@std@@QAEAAUArcFormat@@ABV?$vector@EV?$allocator@E@std@@@1@@Z 64006000 f i archive.obj
 0001:00005150       ?at@?$map@V?$vector@EV?$allocator@E@std@@@std@@UArcFormat@@U?$less@V?$vector@EV?$allocator@E@std@@@std@@@2@V?$allocator@U?$pair@$$CBV?$vector@EV?$allocator@E@std@@@std@@UArcFormat@@@std@@@2@@std@@QBEABUArcFormat@@ABV?$vector@EV?$allocator@E@std@@@2@@Z 64006150 f i archive.obj
 0001:00005190       ?push_back@?$vector@USfxModule@@V?$allocator@USfxModule@@@std@@@std@@QAEXABUSfxModule@@@Z 64006190 f i archive.obj
 0001:00005270       ??1?$vector@UArcLib@@V?$allocator@UArcLib@@@std@@@std@@QAE@XZ 64006270 f i archive.obj
 0001:000052b0       ?push_back@?$vector@UArcLib@@V?$allocator@UArcLib@@@std@@@std@@QAEXABUArcLib@@@Z 640062b0 f i archive.obj
 0001:00005360       ?reserve@?$vector@PB_WV?$allocator@PB_W@std@@@std@@QAEXI@Z 64006360 f i update.obj
 0001:00005360       ?reserve@?$vector@IV?$allocator@I@std@@@std@@QAEXI@Z 64006360 f i archive.obj
 0001:000053e0       ?reserve@?$vector@UArcFileInfo@@V?$allocator@UArcFileInfo@@@std@@@std@@QAEXI@Z 640063e0 f i archive.obj
 0001:000054e0       ?push_back@?$vector@UArcFileInfo@@V?$allocator@UArcFileInfo@@@std@@@std@@QAEXABUArcFileInfo@@@Z 640064e0 f i archive.obj
 0001:000055e0       ?insert@?$basic_string@_WU?$char_traits@_W@std@@V?$allocator@_W@2@@std@@QAEAAV12@IABV12@II@Z 640065e0 f i archive.obj
 0001:00005750       ?find@?$basic_string@_WU?$char_traits@_W@std@@V?$allocator@_W@2@@std@@QBEIPB_WII@Z 64006750 f i archive.obj
 0001:00005830       ?rfind@?$basic_string@_WU?$char_traits@_W@std@@V?$allocator@_W@2@@std@@QBEIPB_WII@Z 64006830 f i archive.obj
 0001:000058b0       ?_Chassign@?$basic_string@_WU?$char_traits@_W@std@@V?$allocator@_W@2@@std@@QAEXII_W@Z 640068b0 f i archive.obj
 0001:000058f0       ?_Construct_n@?$list@V?$basic_string@_WU?$char_traits@_W@std@@V?$allocator@_W@2@@std@@V?$allocator@V?$basic_string@_WU?$char_traits@_W@std@@V?$allocator@_W@2@@std@@@2@@std@@QAEXIABV?$basic_string@_WU?$char_traits@_W@std@@V?$allocator@_W@2@@2@@Z 640068f0 f i archive.obj
 0001:00005960       ??1?$_List_val@UIconImageRsrc@@V?$allocator@UIconImageRsrc@@@std@@@std@@QAE@XZ 64006960 f i rsrc.obj
 0001:00005960       ??1?$_List_val@UAttr@@V?$allocator@UAttr@@@std@@@std@@QAE@XZ 64006960 f i plugin.obj
 0001:00005960       ??1?$_List_val@V?$vector@EV?$allocator@E@std@@@std@@V?$allocator@V?$vector@EV?$allocator@E@std@@@std@@@2@@std@@QAE@XZ 64006960 f i archive.obj
 0001:00005960       ??1?$_List_val@V?$basic_string@_WU?$char_traits@_W@std@@V?$allocator@_W@2@@std@@V?$allocator@V?$basic_string@_WU?$char_traits@_W@std@@V?$allocator@_W@2@@std@@@2@@std@@QAE@XZ 64006960 f i archive.obj
 0001:00005970       ?_Buy@?$vector@EV?$allocator@E@std@@@std@@IAE_NI@Z 64006970 f i archive.obj
 0001:000059b0       ?_Reserve@?$vector@USfxModule@@V?$allocator@USfxModule@@@std@@@std@@IAEXI@Z 640069b0 f i archive.obj
 0001:00005a30       ?_Reserve@?$vector@UArcLib@@V?$allocator@UArcLib@@@std@@@std@@IAEXI@Z 64006a30 f i archive.obj
 0001:00005aa0       ?_Reserve@?$vector@IV?$allocator@I@std@@@std@@IAEXI@Z 64006aa0 f i archive.obj
 0001:00005af0       ?_Reserve@?$vector@UArcFileInfo@@V?$allocator@UArcFileInfo@@@std@@@std@@IAEXI@Z 64006af0 f i archive.obj
 0001:00005b60       ?allocate@?$allocator@UArcFileInfo@@@std@@QAEPAUArcFileInfo@@I@Z 64006b60 f i archive.obj
 0001:00005bc0       ?insert@?$_Tree@V?$_Tset_traits@IU?$less@I@std@@V?$allocator@I@2@$0A@@std@@@std@@QAE?AU?$pair@V?$_Tree_const_iterator@V?$_Tree_val@V?$_Tset_traits@IU?$less@I@std@@V?$allocator@I@2@$0A@@std@@@std@@@std@@_N@2@ABI_N@Z 64006bc0 f i archive.obj
 0001:00005c90       ??1?$_Tree_val@V?$_Tset_traits@V?$vector@EV?$allocator@E@std@@@std@@U?$less@V?$vector@EV?$allocator@E@std@@@std@@@2@V?$allocator@V?$vector@EV?$allocator@E@std@@@std@@@2@$0A@@std@@@std@@QAE@XZ 64006c90 f i open.obj
 0001:00005c90       ??1?$_Tree_val@V?$_Tmap_traits@IUFileIndexInfo@@U?$less@I@std@@V?$allocator@U?$pair@$$CBIUFileIndexInfo@@@std@@@3@$0A@@std@@@std@@QAE@XZ 64006c90 f i update.obj
 0001:00005c90       ??1?$_Tree_val@V?$_Tmap_traits@IIU?$less@I@std@@V?$allocator@U?$pair@$$CBII@std@@@2@$0A@@std@@@std@@QAE@XZ 64006c90 f i archive.obj
 0001:00005c90       ??1?$_Tree_val@V?$_Tmap_traits@V?$vector@EV?$allocator@E@std@@@std@@UArcFormat@@U?$less@V?$vector@EV?$allocator@E@std@@@std@@@2@V?$allocator@U?$pair@$$CBV?$vector@EV?$allocator@E@std@@@std@@UArcFormat@@@std@@@2@$0A@@std@@@std@@QAE@XZ 64006c90 f i archive.obj
 0001:00005c90       ??1?$_Tree_val@V?$_Tset_traits@V?$basic_string@_WU?$char_traits@_W@std@@V?$allocator@_W@2@@std@@U?$less@V?$basic_string@_WU?$char_traits@_W@std@@V?$allocator@_W@2@@std@@@2@V?$allocator@V?$basic_string@_WU?$char_traits@_W@std@@V?$allocator@_W@2@@std@@@2@$0A@@std@@@std@@QAE@XZ 64006c90 f i plugin.obj
 0001:00005c90       ??1?$_Tree_val@V?$_Tset_traits@IU?$less@I@std@@V?$allocator@I@2@$0A@@std@@@std@@QAE@XZ 64006c90 f i archive.obj
 0001:00005c90       ??1?$_Tree_val@V?$_Tmap_traits@V?$basic_string@_WU?$char_traits@_W@std@@V?$allocator@_W@2@@std@@V12@U?$less@V?$basic_string@_WU?$char_traits@_W@std@@V?$allocator@_W@2@@std@@@2@V?$allocator@U?$pair@$$CBV?$basic_string@_WU?$char_traits@_W@std@@V?$allocator@_W@2@@std@@V12@@std@@@2@$0A@@std@@@std@@QAE@XZ 64006c90 f i rsrc.obj
 0001:00005c90       ??1?$_Tree_val@V?$_Tset_traits@V?$basic_string@_WU?$char_traits@_W@std@@V?$allocator@_W@2@@std@@UItemCompare@?1??show@MultiSelectDialog@@QAE_NXZ@V?$allocator@V?$basic_string@_WU?$char_traits@_W@std@@V?$allocator@_W@2@@std@@@2@$0A@@std@@@std@@QAE@XZ 64006c90 f i ui.obj
 0001:00005c90       ??1?$_Tree_val@V?$_Tset_traits@UDirInfo@?4??make_index@Archive@@QAEXXZ@U?$less@UDirInfo@?4??make_index@Archive@@QAEXXZ@@std@@V?$allocator@UDirInfo@?4??make_index@Archive@@QAEXXZ@@5@$0A@@std@@@std@@QAE@XZ 64006c90 f i archive.obj
 0001:00005ca0       ?append@?$basic_string@_WU?$char_traits@_W@std@@V?$allocator@_W@2@@std@@QAEAAV12@ABV12@II@Z 64006ca0 f i archive.obj
 0001:00005d90       ?append@?$basic_string@_WU?$char_traits@_W@std@@V?$allocator@_W@2@@std@@QAEAAV12@PB_WI@Z 64006d90 f i archive.obj
 0001:00005ec0       ?_Insert_n@?$list@V?$basic_string@_WU?$char_traits@_W@std@@V?$allocator@_W@2@@std@@V?$allocator@V?$basic_string@_WU?$char_traits@_W@std@@V?$allocator@_W@2@@std@@@2@@std@@QAEXV?$_List_const_iterator@V?$_List_val@V?$basic_string@_WU?$char_traits@_W@std@@V?$allocator@_W@2@@std@@V?$allocator@V?$basic_string@_WU?$char_traits@_W@std@@V?$allocator@_W@2@@std@@@2@@std@@@2@IABV?$basic_string@_WU?$char_traits@_W@std@@V?$allocator@_W@2@@2@@Z 64006ec0 f i archive.obj
 0001:00005f80       ?_Buynode@?$_List_val@V?$basic_string@_WU?$char_traits@_W@std@@V?$allocator@_W@2@@std@@V?$allocator@V?$basic_string@_WU?$char_traits@_W@std@@V?$allocator@_W@2@@std@@@2@@std@@QAEPAU_Node@?$_List_nod@V?$basic_string@_WU?$char_traits@_W@std@@V?$allocator@_W@2@@std@@V?$allocator@V?$basic_string@_WU?$char_traits@_W@std@@V?$allocator@_W@2@@std@@@2@@2@PAU342@0ABV?$basic_string@_WU?$char_traits@_W@std@@V?$allocator@_W@2@@2@@Z 64006f80 f i archive.obj
 0001:00006050       ?_Buynode@?$_List_val@V?$vector@EV?$allocator@E@std@@@std@@V?$allocator@V?$vector@EV?$allocator@E@std@@@std@@@2@@std@@QAEPAU_Node@?$_List_nod@V?$vector@EV?$allocator@E@std@@@std@@V?$allocator@V?$vector@EV?$allocator@E@std@@@std@@@2@@2@PAU342@0ABV?$vector@EV?$allocator@E@std@@@2@@Z 64007050 f i archive.obj
 0001:00006110       ?allocate@?$allocator@E@std@@QAEPAEI@Z 64007110 f i archive.obj
 0001:00006160       ?erase@?$_Tree@V?$_Tmap_traits@V?$vector@EV?$allocator@E@std@@@std@@UArcFormat@@U?$less@V?$vector@EV?$allocator@E@std@@@std@@@2@V?$allocator@U?$pair@$$CBV?$vector@EV?$allocator@E@std@@@std@@UArcFormat@@@std@@@2@$0A@@std@@@std@@QAE?AV?$_Tree_iterator@V?$_Tree_val@V?$_Tmap_traits@V?$vector@EV?$allocator@E@std@@@std@@UArcFormat@@U?$less@V?$vector@EV?$allocator@E@std@@@std@@@2@V?$allocator@U?$pair@$$CBV?$vector@EV?$allocator@E@std@@@std@@UArcFormat@@@std@@@2@$0A@@std@@@std@@@2@V?$_Tree_const_iterator@V?$_Tree_val@V?$_Tmap_traits@V?$vector@EV?$allocator@E@std@@@std@@UArcFormat@@U?$less@V?$vector@EV?$allocator@E@std@@@std@@@2@V?$allocator@U?$pair@$$CBV?$vector@EV?$allocator@E@std@@@std@@UArcFormat@@@std@@@2@$0A@@std@@@std@@@2@0@Z 64007160 f i archive.obj
 0001:00006220       ?_Lbound@?$_Tree@V?$_Tmap_traits@V?$vector@EV?$allocator@E@std@@@std@@UArcFormat@@U?$less@V?$vector@EV?$allocator@E@std@@@std@@@2@V?$allocator@U?$pair@$$CBV?$vector@EV?$allocator@E@std@@@std@@UArcFormat@@@std@@@2@$0A@@std@@@std@@IBEPAU_Node@?$_Tree_nod@V?$_Tmap_traits@V?$vector@EV?$allocator@E@std@@@std@@UArcFormat@@U?$less@V?$vector@EV?$allocator@E@std@@@std@@@2@V?$allocator@U?$pair@$$CBV?$vector@EV?$allocator@E@std@@@std@@UArcFormat@@@std@@@2@$0A@@std@@@2@ABV?$vector@EV?$allocator@E@std@@@2@@Z 64007220 f i archive.obj
 0001:00006220       ?_Lbound@?$_Tree@V?$_Tmap_traits@V?$vector@EV?$allocator@E@std@@@std@@UArcFormat@@U?$less@V?$vector@EV?$allocator@E@std@@@std@@@2@V?$allocator@U?$pair@$$CBV?$vector@EV?$allocator@E@std@@@std@@UArcFormat@@@std@@@2@$0A@@std@@@std@@IAEPAU_Node@?$_Tree_nod@V?$_Tmap_traits@V?$vector@EV?$allocator@E@std@@@std@@UArcFormat@@U?$less@V?$vector@EV?$allocator@E@std@@@std@@@2@V?$allocator@U?$pair@$$CBV?$vector@EV?$allocator@E@std@@@std@@UArcFormat@@@std@@@2@$0A@@std@@@2@ABV?$vector@EV?$allocator@E@std@@@2@@Z 64007220 f i archive.obj
 0001:00006270       ?reserve@?$vector@USfxModule@@V?$allocator@USfxModule@@@std@@@std@@QAEXI@Z 64007270 f i archive.obj
 0001:00006380       ?_Destroy@?$vector@USfxModule@@V?$allocator@USfxModule@@@std@@@std@@IAEXPAUSfxModule@@0@Z 64007380 f i archive.obj
 0001:00006380       ?_Destroy@?$vector@V?$basic_string@_WU?$char_traits@_W@std@@V?$allocator@_W@2@@std@@V?$allocator@V?$basic_string@_WU?$char_traits@_W@std@@V?$allocator@_W@2@@std@@@2@@std@@IAEXPAV?$basic_string@_WU?$char_traits@_W@std@@V?$allocator@_W@2@@2@0@Z 64007380 f i plugin.obj
 0001:000063c0       ?reserve@?$vector@UArcLib@@V?$allocator@UArcLib@@@std@@@std@@QAEXI@Z 640073c0 f i archive.obj
 0001:000064c0       ??E?$_Tree_unchecked_const_iterator@V?$_Tree_val@V?$_Tmap_traits@V?$vector@EV?$allocator@E@std@@@std@@UArcFormat@@U?$less@V?$vector@EV?$allocator@E@std@@@std@@@2@V?$allocator@U?$pair@$$CBV?$vector@EV?$allocator@E@std@@@std@@UArcFormat@@@std@@@2@$0A@@std@@@std@@U_Iterator_base0@2@@std@@QAEAAV01@XZ 640074c0 f i archive.obj
 0001:00006510       ?erase@?$_Tree@V?$_Tset_traits@IU?$less@I@std@@V?$allocator@I@2@$0A@@std@@@std@@QAE?AV?$_Tree_const_iterator@V?$_Tree_val@V?$_Tset_traits@IU?$less@I@std@@V?$allocator@I@2@$0A@@std@@@std@@@2@V32@0@Z 64007510 f i archive.obj
 0001:000065c0       ?_Eqrange@?$_Tree@V?$_Tset_traits@IU?$less@I@std@@V?$allocator@I@2@$0A@@std@@@std@@IBE?AU?$pair@V?$_Tree_const_iterator@V?$_Tree_val@V?$_Tset_traits@IU?$less@I@std@@V?$allocator@I@2@$0A@@std@@@std@@@std@@V12@@2@ABI@Z 640075c0 f i archive.obj
 0001:00006640       ?erase@?$_Tree@V?$_Tmap_traits@IIU?$less@I@std@@V?$allocator@U?$pair@$$CBII@std@@@2@$0A@@std@@@std@@QAE?AV?$_Tree_iterator@V?$_Tree_val@V?$_Tmap_traits@IIU?$less@I@std@@V?$allocator@U?$pair@$$CBII@std@@@2@$0A@@std@@@std@@@2@V?$_Tree_const_iterator@V?$_Tree_val@V?$_Tmap_traits@IIU?$less@I@std@@V?$allocator@U?$pair@$$CBII@std@@@2@$0A@@std@@@std@@@2@0@Z 64007640 f i archive.obj
 0001:000066f0       ?_Eqrange@?$_Tree@V?$_Tmap_traits@IIU?$less@I@std@@V?$allocator@U?$pair@$$CBII@std@@@2@$0A@@std@@@std@@IBE?AU?$pair@V?$_Tree_const_iterator@V?$_Tree_val@V?$_Tmap_traits@IIU?$less@I@std@@V?$allocator@U?$pair@$$CBII@std@@@2@$0A@@std@@@std@@@std@@V12@@2@ABI@Z 640076f0 f i archive.obj
 0001:00006770       ?erase@?$_Tree@V?$_Tset_traits@UDirInfo@?4??make_index@Archive@@QAEXXZ@U?$less@UDirInfo@?4??make_index@Archive@@QAEXXZ@@std@@V?$allocator@UDirInfo@?4??make_index@Archive@@QAEXXZ@@5@$0A@@std@@@std@@QAE?AV?$_Tree_const_iterator@V?$_Tree_val@V?$_Tset_traits@UDirInfo@?4??make_index@Archive@@QAEXXZ@U?$less@UDirInfo@?4??make_index@Archive@@QAEXXZ@@std@@V?$allocator@UDirInfo@?4??make_index@Archive@@QAEXXZ@@5@$0A@@std@@@std@@@2@V32@0@Z 64007770 f i archive.obj
 0001:00006830       ??0ArcFormat@@QAE@ABU0@@Z  64007830 f i archive.obj
 0001:000068e0       ?erase@?$list@V?$basic_string@_WU?$char_traits@_W@std@@V?$allocator@_W@2@@std@@V?$allocator@V?$basic_string@_WU?$char_traits@_W@std@@V?$allocator@_W@2@@std@@@2@@std@@QAE?AV?$_List_iterator@V?$_List_val@V?$basic_string@_WU?$char_traits@_W@std@@V?$allocator@_W@2@@std@@V?$allocator@V?$basic_string@_WU?$char_traits@_W@std@@V?$allocator@_W@2@@std@@@2@@std@@@2@V?$_List_const_iterator@V?$_List_val@V?$basic_string@_WU?$char_traits@_W@std@@V?$allocator@_W@2@@std@@V?$allocator@V?$basic_string@_WU?$char_traits@_W@std@@V?$allocator@_W@2@@std@@@2@@std@@@2@@Z 640078e0 f i archive.obj
 0001:000068e0       ?erase@?$list@UCacheRecord@FileWriteCache@@V?$allocator@UCacheRecord@FileWriteCache@@@std@@@std@@QAE?AV?$_List_iterator@V?$_List_val@UCacheRecord@FileWriteCache@@V?$allocator@UCacheRecord@FileWriteCache@@@std@@@std@@@2@V?$_List_const_iterator@V?$_List_val@UCacheRecord@FileWriteCache@@V?$allocator@UCacheRecord@FileWriteCache@@@std@@@std@@@2@@Z 640078e0 f i extract.obj
 0001:00006940       ?_Splice_same@?$list@V?$vector@EV?$allocator@E@std@@@std@@V?$allocator@V?$vector@EV?$allocator@E@std@@@std@@@2@@std@@QAEXV?$_List_const_iterator@V?$_List_val@V?$vector@EV?$allocator@E@std@@@std@@V?$allocator@V?$vector@EV?$allocator@E@std@@@std@@@2@@std@@@2@AAV12@00I@Z 64007940 f i archive.obj
 0001:000069c0       ?erase@?$_Tree@V?$_Tmap_traits@V?$vector@EV?$allocator@E@std@@@std@@UArcFormat@@U?$less@V?$vector@EV?$allocator@E@std@@@std@@@2@V?$allocator@U?$pair@$$CBV?$vector@EV?$allocator@E@std@@@std@@UArcFormat@@@std@@@2@$0A@@std@@@std@@QAE?AV?$_Tree_iterator@V?$_Tree_val@V?$_Tmap_traits@V?$vector@EV?$allocator@E@std@@@std@@UArcFormat@@U?$less@V?$vector@EV?$allocator@E@std@@@std@@@2@V?$allocator@U?$pair@$$CBV?$vector@EV?$allocator@E@std@@@std@@UArcFormat@@@std@@@2@$0A@@std@@@std@@@2@V?$_Tree_const_iterator@V?$_Tree_val@V?$_Tmap_traits@V?$vector@EV?$allocator@E@std@@@std@@UArcFormat@@U?$less@V?$vector@EV?$allocator@E@std@@@std@@@2@V?$allocator@U?$pair@$$CBV?$vector@EV?$allocator@E@std@@@std@@UArcFormat@@@std@@@2@$0A@@std@@@std@@@2@@Z 640079c0 f i archive.obj
 0001:00006c90       ?allocate@?$allocator@USfxModule@@@std@@QAEPAUSfxModule@@I@Z 64007c90 f i archive.obj
 0001:00006c90       ?allocate@?$allocator@V?$basic_string@_WU?$char_traits@_W@std@@V?$allocator@_W@2@@std@@@std@@QAEPAV?$basic_string@_WU?$char_traits@_W@std@@V?$allocator@_W@2@@2@I@Z 64007c90 f i plugin.obj
 0001:00006cf0       ?allocate@?$allocator@UArcLib@@@std@@QAEPAUArcLib@@I@Z 64007cf0 f i archive.obj
 0001:00006d50       ?erase@?$_Tree@V?$_Tset_traits@IU?$less@I@std@@V?$allocator@I@2@$0A@@std@@@std@@QAE?AV?$_Tree_const_iterator@V?$_Tree_val@V?$_Tset_traits@IU?$less@I@std@@V?$allocator@I@2@$0A@@std@@@std@@@2@V32@@Z 64007d50 f i archive.obj
 0001:00006fd0       ?clear@?$_Tree@V?$_Tset_traits@IU?$less@I@std@@V?$allocator@I@2@$0A@@std@@@std@@QAEXXZ 64007fd0 f i archive.obj
 0001:00007020       ?_Insert@?$_Tree@V?$_Tset_traits@IU?$less@I@std@@V?$allocator@I@2@$0A@@std@@@std@@IAE?AV?$_Tree_const_iterator@V?$_Tree_val@V?$_Tset_traits@IU?$less@I@std@@V?$allocator@I@2@$0A@@std@@@std@@@2@_NPAU_Node@?$_Tree_nod@V?$_Tset_traits@IU?$less@I@std@@V?$allocator@I@2@$0A@@std@@@2@1@Z 64008020 f i archive.obj
 0001:00007240       ??$_Buynode@AAI@?$_Tree_val@V?$_Tset_traits@IU?$less@I@std@@V?$allocator@I@2@$0A@@std@@@std@@QAEPAU_Node@?$_Tree_nod@V?$_Tset_traits@IU?$less@I@std@@V?$allocator@I@2@$0A@@std@@@1@AAI@Z 64008240 f i extract.obj
 0001:00007240       ?_Buynode@?$_Tree_val@V?$_Tset_traits@IU?$less@I@std@@V?$allocator@I@2@$0A@@std@@@std@@QAEPAU_Node@?$_Tree_nod@V?$_Tset_traits@IU?$less@I@std@@V?$allocator@I@2@$0A@@std@@@2@ABI@Z 64008240 f i archive.obj
 0001:000072b0       ??F?$_Tree_unchecked_const_iterator@V?$_Tree_val@V?$_Tset_traits@IU?$less@I@std@@V?$allocator@I@2@$0A@@std@@@std@@U_Iterator_base0@2@@std@@QAEAAV01@XZ 640082b0 f i archive.obj
 0001:00007310       ?erase@?$_Tree@V?$_Tmap_traits@IIU?$less@I@std@@V?$allocator@U?$pair@$$CBII@std@@@2@$0A@@std@@@std@@QAE?AV?$_Tree_iterator@V?$_Tree_val@V?$_Tmap_traits@IIU?$less@I@std@@V?$allocator@U?$pair@$$CBII@std@@@2@$0A@@std@@@std@@@2@V?$_Tree_const_iterator@V?$_Tree_val@V?$_Tmap_traits@IIU?$less@I@std@@V?$allocator@U?$pair@$$CBII@std@@@2@$0A@@std@@@std@@@2@@Z 64008310 f i archive.obj
 0001:00007590       ?clear@?$_Tree@V?$_Tmap_traits@IIU?$less@I@std@@V?$allocator@U?$pair@$$CBII@std@@@2@$0A@@std@@@std@@QAEXXZ 64008590 f i archive.obj
 0001:000075e0       ?erase@?$_Tree@V?$_Tset_traits@UDirInfo@?4??make_index@Archive@@QAEXXZ@U?$less@UDirInfo@?4??make_index@Archive@@QAEXXZ@@std@@V?$allocator@UDirInfo@?4??make_index@Archive@@QAEXXZ@@5@$0A@@std@@@std@@QAE?AV?$_Tree_const_iterator@V?$_Tree_val@V?$_Tset_traits@UDirInfo@?4??make_index@Archive@@QAEXXZ@U?$less@UDirInfo@?4??make_index@Archive@@QAEXXZ@@std@@V?$allocator@UDirInfo@?4??make_index@Archive@@QAEXXZ@@5@$0A@@std@@@std@@@2@V32@@Z 640085e0 f i archive.obj
 0001:00007880       ?_Erase@?$_Tree@V?$_Tmap_traits@V?$vector@EV?$allocator@E@std@@@std@@UArcFormat@@U?$less@V?$vector@EV?$allocator@E@std@@@std@@@2@V?$allocator@U?$pair@$$CBV?$vector@EV?$allocator@E@std@@@std@@UArcFormat@@@std@@@2@$0A@@std@@@std@@IAEXPAU_Node@?$_Tree_nod@V?$_Tmap_traits@V?$vector@EV?$allocator@E@std@@@std@@UArcFormat@@U?$less@V?$vector@EV?$allocator@E@std@@@std@@@2@V?$allocator@U?$pair@$$CBV?$vector@EV?$allocator@E@std@@@std@@UArcFormat@@@std@@@2@$0A@@std@@@2@@Z 64008880 f i archive.obj
 0001:00007940       ?_Lrotate@?$_Tree@V?$_Tmap_traits@V?$vector@EV?$allocator@E@std@@@std@@UArcFormat@@U?$less@V?$vector@EV?$allocator@E@std@@@std@@@2@V?$allocator@U?$pair@$$CBV?$vector@EV?$allocator@E@std@@@std@@UArcFormat@@@std@@@2@$0A@@std@@@std@@IAEXPAU_Node@?$_Tree_nod@V?$_Tmap_traits@V?$vector@EV?$allocator@E@std@@@std@@UArcFormat@@U?$less@V?$vector@EV?$allocator@E@std@@@std@@@2@V?$allocator@U?$pair@$$CBV?$vector@EV?$allocator@E@std@@@std@@UArcFormat@@@std@@@2@$0A@@std@@@2@@Z 64008940 f i archive.obj
 0001:00007990       ?_Rrotate@?$_Tree@V?$_Tmap_traits@V?$vector@EV?$allocator@E@std@@@std@@UArcFormat@@U?$less@V?$vector@EV?$allocator@E@std@@@std@@@2@V?$allocator@U?$pair@$$CBV?$vector@EV?$allocator@E@std@@@std@@UArcFormat@@@std@@@2@$0A@@std@@@std@@IAEXPAU_Node@?$_Tree_nod@V?$_Tmap_traits@V?$vector@EV?$allocator@E@std@@@std@@UArcFormat@@U?$less@V?$vector@EV?$allocator@E@std@@@std@@@2@V?$allocator@U?$pair@$$CBV?$vector@EV?$allocator@E@std@@@std@@UArcFormat@@@std@@@2@$0A@@std@@@2@@Z 64008990 f i archive.obj
 0001:000079e0       ?_Max@?$_Tree_val@V?$_Tmap_traits@V?$vector@EV?$allocator@E@std@@@std@@UArcFormat@@U?$less@V?$vector@EV?$allocator@E@std@@@std@@@2@V?$allocator@U?$pair@$$CBV?$vector@EV?$allocator@E@std@@@std@@UArcFormat@@@std@@@2@$0A@@std@@@std@@SAPAU_Node@?$_Tree_nod@V?$_Tmap_traits@V?$vector@EV?$allocator@E@std@@@std@@UArcFormat@@U?$less@V?$vector@EV?$allocator@E@std@@@std@@@2@V?$allocator@U?$pair@$$CBV?$vector@EV?$allocator@E@std@@@std@@UArcFormat@@@std@@@2@$0A@@std@@@2@PAU342@@Z 640089e0 f i archive.obj
 0001:00007a00       ?_Erase@?$_Tree@V?$_Tset_traits@IU?$less@I@std@@V?$allocator@I@2@$0A@@std@@@std@@IAEXPAU_Node@?$_Tree_nod@V?$_Tset_traits@IU?$less@I@std@@V?$allocator@I@2@$0A@@std@@@2@@Z 64008a00 f i archive.obj
 0001:00007a40       ?_Lrotate@?$_Tree@V?$_Tset_traits@IU?$less@I@std@@V?$allocator@I@2@$0A@@std@@@std@@IAEXPAU_Node@?$_Tree_nod@V?$_Tset_traits@IU?$less@I@std@@V?$allocator@I@2@$0A@@std@@@2@@Z 64008a40 f i archive.obj
 0001:00007a90       ?_Rrotate@?$_Tree@V?$_Tset_traits@IU?$less@I@std@@V?$allocator@I@2@$0A@@std@@@std@@IAEXPAU_Node@?$_Tree_nod@V?$_Tset_traits@IU?$less@I@std@@V?$allocator@I@2@$0A@@std@@@2@@Z 64008a90 f i archive.obj
 0001:00007ae0       ?_Max@?$_Tree_val@V?$_Tset_traits@IU?$less@I@std@@V?$allocator@I@2@$0A@@std@@@std@@SAPAU_Node@?$_Tree_nod@V?$_Tset_traits@IU?$less@I@std@@V?$allocator@I@2@$0A@@std@@@2@PAU342@@Z 64008ae0 f i archive.obj
 0001:00007b00       ?_Erase@?$_Tree@V?$_Tmap_traits@IIU?$less@I@std@@V?$allocator@U?$pair@$$CBII@std@@@2@$0A@@std@@@std@@IAEXPAU_Node@?$_Tree_nod@V?$_Tmap_traits@IIU?$less@I@std@@V?$allocator@U?$pair@$$CBII@std@@@2@$0A@@std@@@2@@Z 64008b00 f i archive.obj
 0001:00007b40       ?_Lrotate@?$_Tree@V?$_Tmap_traits@IIU?$less@I@std@@V?$allocator@U?$pair@$$CBII@std@@@2@$0A@@std@@@std@@IAEXPAU_Node@?$_Tree_nod@V?$_Tmap_traits@IIU?$less@I@std@@V?$allocator@U?$pair@$$CBII@std@@@2@$0A@@std@@@2@@Z 64008b40 f i archive.obj
 0001:00007b90       ?_Rrotate@?$_Tree@V?$_Tmap_traits@IIU?$less@I@std@@V?$allocator@U?$pair@$$CBII@std@@@2@$0A@@std@@@std@@IAEXPAU_Node@?$_Tree_nod@V?$_Tmap_traits@IIU?$less@I@std@@V?$allocator@U?$pair@$$CBII@std@@@2@$0A@@std@@@2@@Z 64008b90 f i archive.obj
 0001:00007be0       ?_Max@?$_Tree_val@V?$_Tmap_traits@IIU?$less@I@std@@V?$allocator@U?$pair@$$CBII@std@@@2@$0A@@std@@@std@@SAPAU_Node@?$_Tree_nod@V?$_Tmap_traits@IIU?$less@I@std@@V?$allocator@U?$pair@$$CBII@std@@@2@$0A@@std@@@2@PAU342@@Z 64008be0 f i archive.obj
 0001:00007c00       ?_Erase@?$_Tree@V?$_Tset_traits@UDirInfo@?4??make_index@Archive@@QAEXXZ@U?$less@UDirInfo@?4??make_index@Archive@@QAEXXZ@@std@@V?$allocator@UDirInfo@?4??make_index@Archive@@QAEXXZ@@5@$0A@@std@@@std@@IAEXPAU_Node@?$_Tree_nod@V?$_Tset_traits@UDirInfo@?4??make_index@Archive@@QAEXXZ@U?$less@UDirInfo@?4??make_index@Archive@@QAEXXZ@@std@@V?$allocator@UDirInfo@?4??make_index@Archive@@QAEXXZ@@5@$0A@@std@@@2@@Z 64008c00 f i archive.obj
 0001:00007c60       ?_Lrotate@?$_Tree@V?$_Tset_traits@UDirInfo@?4??make_index@Archive@@QAEXXZ@U?$less@UDirInfo@?4??make_index@Archive@@QAEXXZ@@std@@V?$allocator@UDirInfo@?4??make_index@Archive@@QAEXXZ@@5@$0A@@std@@@std@@IAEXPAU_Node@?$_Tree_nod@V?$_Tset_traits@UDirInfo@?4??make_index@Archive@@QAEXXZ@U?$less@UDirInfo@?4??make_index@Archive@@QAEXXZ@@std@@V?$allocator@UDirInfo@?4??make_index@Archive@@QAEXXZ@@5@$0A@@std@@@2@@Z 64008c60 f i archive.obj
 0001:00007cb0       ?_Rrotate@?$_Tree@V?$_Tset_traits@UDirInfo@?4??make_index@Archive@@QAEXXZ@U?$less@UDirInfo@?4??make_index@Archive@@QAEXXZ@@std@@V?$allocator@UDirInfo@?4??make_index@Archive@@QAEXXZ@@5@$0A@@std@@@std@@IAEXPAU_Node@?$_Tree_nod@V?$_Tset_traits@UDirInfo@?4??make_index@Archive@@QAEXXZ@U?$less@UDirInfo@?4??make_index@Archive@@QAEXXZ@@std@@V?$allocator@UDirInfo@?4??make_index@Archive@@QAEXXZ@@5@$0A@@std@@@2@@Z 64008cb0 f i archive.obj
 0001:00007d00       ?_Max@?$_Tree_val@V?$_Tset_traits@UDirInfo@?4??make_index@Archive@@QAEXXZ@U?$less@UDirInfo@?4??make_index@Archive@@QAEXXZ@@std@@V?$allocator@UDirInfo@?4??make_index@Archive@@QAEXXZ@@5@$0A@@std@@@std@@SAPAU_Node@?$_Tree_nod@V?$_Tset_traits@UDirInfo@?4??make_index@Archive@@QAEXXZ@U?$less@UDirInfo@?4??make_index@Archive@@QAEXXZ@@std@@V?$allocator@UDirInfo@?4??make_index@Archive@@QAEXXZ@@5@$0A@@std@@@2@PAU342@@Z 64008d00 f i archive.obj
 0001:00007d20       ??E?$_Tree_unchecked_const_iterator@V?$_Tree_val@V?$_Tset_traits@IU?$less@I@std@@V?$allocator@I@2@$0A@@std@@@std@@U_Iterator_base0@2@@std@@QAEAAV01@XZ 64008d20 f i archive.obj
 0001:00007d70       ??E?$_Tree_unchecked_const_iterator@V?$_Tree_val@V?$_Tset_traits@UDirInfo@?4??make_index@Archive@@QAEXXZ@U?$less@UDirInfo@?4??make_index@Archive@@QAEXXZ@@std@@V?$allocator@UDirInfo@?4??make_index@Archive@@QAEXXZ@@5@$0A@@std@@@std@@U_Iterator_base0@2@@std@@QAEAAV01@XZ 64008d70 f i archive.obj
 0001:00007dc0       ??E?$_Tree_unchecked_const_iterator@V?$_Tree_val@V?$_Tmap_traits@IIU?$less@I@std@@V?$allocator@U?$pair@$$CBII@std@@@2@$0A@@std@@@std@@U_Iterator_base0@2@@std@@QAEAAV01@XZ 64008dc0 f i archive.obj
 0001:00007e10       ??$assign@PAE@?$vector@EV?$allocator@E@std@@@std@@QAEXPAE0@Z 64008e10 f i archive.obj
 0001:00007e50       ??$?H_WU?$char_traits@_W@std@@V?$allocator@_W@1@@std@@YA?AV?$basic_string@_WU?$char_traits@_W@std@@V?$allocator@_W@2@@0@PB_WABV10@@Z 64008e50 f i archive.obj
 0001:00007f30       ??$?H_WU?$char_traits@_W@std@@V?$allocator@_W@1@@std@@YA?AV?$basic_string@_WU?$char_traits@_W@std@@V?$allocator@_W@2@@0@$$QAV10@PB_W@Z 64008f30 f i archive.obj
 0001:00007f80       ??$?9_WU?$char_traits@_W@std@@V?$allocator@_W@1@@std@@YA_NABV?$basic_string@_WU?$char_traits@_W@std@@V?$allocator@_W@2@@0@0@Z 64008f80 f i archive.obj
 0001:00007fa0       ??$?H_WU?$char_traits@_W@std@@V?$allocator@_W@1@@std@@YA?AV?$basic_string@_WU?$char_traits@_W@std@@V?$allocator@_W@2@@0@$$QAV10@0@Z 64008fa0 f i archive.obj
 0001:00008020       ?_Insert@?$_Tree@V?$_Tmap_traits@V?$vector@EV?$allocator@E@std@@@std@@UArcFormat@@U?$less@V?$vector@EV?$allocator@E@std@@@std@@@2@V?$allocator@U?$pair@$$CBV?$vector@EV?$allocator@E@std@@@std@@UArcFormat@@@std@@@2@$0A@@std@@@std@@QAE?AV?$_Tree_iterator@V?$_Tree_val@V?$_Tmap_traits@V?$vector@EV?$allocator@E@std@@@std@@UArcFormat@@U?$less@V?$vector@EV?$allocator@E@std@@@std@@@2@V?$allocator@U?$pair@$$CBV?$vector@EV?$allocator@E@std@@@std@@UArcFormat@@@std@@@2@$0A@@std@@@std@@@2@V?$_Tree_const_iterator@V?$_Tree_val@V?$_Tmap_traits@V?$vector@EV?$allocator@E@std@@@std@@UArcFormat@@U?$less@V?$vector@EV?$allocator@E@std@@@std@@@2@V?$allocator@U?$pair@$$CBV?$vector@EV?$allocator@E@std@@@std@@UArcFormat@@@std@@@2@$0A@@std@@@std@@@2@PAU_Node@?$_Tree_nod@V?$_Tmap_traits@V?$vector@EV?$allocator@E@std@@@std@@UArcFormat@@U?$less@V?$vector@EV?$allocator@E@std@@@std@@@2@V?$allocator@U?$pair@$$CBV?$vector@EV?$allocator@E@std@@@std@@UArcFormat@@@std@@@2@$0A@@std@@@2@@Z 64009020 f i archive.obj
 0001:00008200       ?_Insert@?$_Tree@V?$_Tmap_traits@IIU?$less@I@std@@V?$allocator@U?$pair@$$CBII@std@@@2@$0A@@std@@@std@@QAE?AV?$_Tree_iterator@V?$_Tree_val@V?$_Tmap_traits@IIU?$less@I@std@@V?$allocator@U?$pair@$$CBII@std@@@2@$0A@@std@@@std@@@2@V?$_Tree_const_iterator@V?$_Tree_val@V?$_Tmap_traits@IIU?$less@I@std@@V?$allocator@U?$pair@$$CBII@std@@@2@$0A@@std@@@std@@@2@PAU_Node@?$_Tree_nod@V?$_Tmap_traits@IIU?$less@I@std@@V?$allocator@U?$pair@$$CBII@std@@@2@$0A@@std@@@2@@Z 64009200 f i archive.obj
 0001:00008330       ?_Linsert@?$_Tree@V?$_Tset_traits@UDirInfo@?4??make_index@Archive@@QAEXXZ@U?$less@UDirInfo@?4??make_index@Archive@@QAEXXZ@@std@@V?$allocator@UDirInfo@?4??make_index@Archive@@QAEXXZ@@5@$0A@@std@@@std@@QAE?AU?$pair@V?$_Tree_const_iterator@V?$_Tree_val@V?$_Tset_traits@UDirInfo@?4??make_index@Archive@@QAEXXZ@U?$less@UDirInfo@?4??make_index@Archive@@QAEXXZ@@std@@V?$allocator@UDirInfo@?4??make_index@Archive@@QAEXXZ@@5@$0A@@std@@@std@@@std@@_N@2@PAU_Node@?$_Tree_nod@V?$_Tset_traits@UDirInfo@?4??make_index@Archive@@QAEXXZ@U?$less@UDirInfo@?4??make_index@Archive@@QAEXXZ@@std@@V?$allocator@UDirInfo@?4??make_index@Archive@@QAEXXZ@@5@$0A@@std@@@2@_N@Z 64009330 f i archive.obj
 0001:00008490       ?compare@?$basic_string@_WU?$char_traits@_W@std@@V?$allocator@_W@2@@std@@QBEHIIPB_WI@Z 64009490 f i archive.obj
 0001:00008500       ?_Linsert@?$_Tree@V?$_Tmap_traits@V?$vector@EV?$allocator@E@std@@@std@@UArcFormat@@U?$less@V?$vector@EV?$allocator@E@std@@@std@@@2@V?$allocator@U?$pair@$$CBV?$vector@EV?$allocator@E@std@@@std@@UArcFormat@@@std@@@2@$0A@@std@@@std@@QAE?AU?$pair@V?$_Tree_iterator@V?$_Tree_val@V?$_Tmap_traits@V?$vector@EV?$allocator@E@std@@@std@@UArcFormat@@U?$less@V?$vector@EV?$allocator@E@std@@@std@@@2@V?$allocator@U?$pair@$$CBV?$vector@EV?$allocator@E@std@@@std@@UArcFormat@@@std@@@2@$0A@@std@@@std@@@std@@_N@2@PAU_Node@?$_Tree_nod@V?$_Tmap_traits@V?$vector@EV?$allocator@E@std@@@std@@UArcFormat@@U?$less@V?$vector@EV?$allocator@E@std@@@std@@@2@V?$allocator@U?$pair@$$CBV?$vector@EV?$allocator@E@std@@@std@@UArcFormat@@@std@@@2@$0A@@std@@@2@_N@Z 64009500 f i archive.obj
 0001:00008620       ?_Insert@?$_Tree@V?$_Tmap_traits@V?$vector@EV?$allocator@E@std@@@std@@UArcFormat@@U?$less@V?$vector@EV?$allocator@E@std@@@std@@@2@V?$allocator@U?$pair@$$CBV?$vector@EV?$allocator@E@std@@@std@@UArcFormat@@@std@@@2@$0A@@std@@@std@@IAE?AV?$_Tree_iterator@V?$_Tree_val@V?$_Tmap_traits@V?$vector@EV?$allocator@E@std@@@std@@UArcFormat@@U?$less@V?$vector@EV?$allocator@E@std@@@std@@@2@V?$allocator@U?$pair@$$CBV?$vector@EV?$allocator@E@std@@@std@@UArcFormat@@@std@@@2@$0A@@std@@@std@@@2@_NPAU_Node@?$_Tree_nod@V?$_Tmap_traits@V?$vector@EV?$allocator@E@std@@@std@@UArcFormat@@U?$less@V?$vector@EV?$allocator@E@std@@@std@@@2@V?$allocator@U?$pair@$$CBV?$vector@EV?$allocator@E@std@@@std@@UArcFormat@@@std@@@2@$0A@@std@@@2@1@Z 64009620 f i archive.obj
 0001:00008850       ?_Linsert@?$_Tree@V?$_Tmap_traits@IIU?$less@I@std@@V?$allocator@U?$pair@$$CBII@std@@@2@$0A@@std@@@std@@QAE?AU?$pair@V?$_Tree_iterator@V?$_Tree_val@V?$_Tmap_traits@IIU?$less@I@std@@V?$allocator@U?$pair@$$CBII@std@@@2@$0A@@std@@@std@@@std@@_N@2@PAU_Node@?$_Tree_nod@V?$_Tmap_traits@IIU?$less@I@std@@V?$allocator@U?$pair@$$CBII@std@@@2@$0A@@std@@@2@_N@Z 64009850 f i archive.obj
 0001:00008920       ?_Insert@?$_Tree@V?$_Tmap_traits@IIU?$less@I@std@@V?$allocator@U?$pair@$$CBII@std@@@2@$0A@@std@@@std@@IAE?AV?$_Tree_iterator@V?$_Tree_val@V?$_Tmap_traits@IIU?$less@I@std@@V?$allocator@U?$pair@$$CBII@std@@@2@$0A@@std@@@std@@@2@_NPAU_Node@?$_Tree_nod@V?$_Tmap_traits@IIU?$less@I@std@@V?$allocator@U?$pair@$$CBII@std@@@2@$0A@@std@@@2@1@Z 64009920 f i archive.obj
 0001:00008b40       ?_Insert@?$_Tree@V?$_Tset_traits@UDirInfo@?4??make_index@Archive@@QAEXXZ@U?$less@UDirInfo@?4??make_index@Archive@@QAEXXZ@@std@@V?$allocator@UDirInfo@?4??make_index@Archive@@QAEXXZ@@5@$0A@@std@@@std@@IAE?AV?$_Tree_const_iterator@V?$_Tree_val@V?$_Tset_traits@UDirInfo@?4??make_index@Archive@@QAEXXZ@U?$less@UDirInfo@?4??make_index@Archive@@QAEXXZ@@std@@V?$allocator@UDirInfo@?4??make_index@Archive@@QAEXXZ@@5@$0A@@std@@@std@@@2@_NPAU_Node@?$_Tree_nod@V?$_Tset_traits@UDirInfo@?4??make_index@Archive@@QAEXXZ@U?$less@UDirInfo@?4??make_index@Archive@@QAEXXZ@@std@@V?$allocator@UDirInfo@?4??make_index@Archive@@QAEXXZ@@5@$0A@@std@@@2@1@Z 64009b40 f i archive.obj
 0001:00008d90       ??F?$_Tree_unchecked_const_iterator@V?$_Tree_val@V?$_Tmap_traits@V?$vector@EV?$allocator@E@std@@@std@@UArcFormat@@U?$less@V?$vector@EV?$allocator@E@std@@@std@@@2@V?$allocator@U?$pair@$$CBV?$vector@EV?$allocator@E@std@@@std@@UArcFormat@@@std@@@2@$0A@@std@@@std@@U_Iterator_base0@2@@std@@QAEAAV01@XZ 64009d90 f i archive.obj
 0001:00008df0       ??F?$_Tree_unchecked_const_iterator@V?$_Tree_val@V?$_Tset_traits@UDirInfo@?4??make_index@Archive@@QAEXXZ@U?$less@UDirInfo@?4??make_index@Archive@@QAEXXZ@@std@@V?$allocator@UDirInfo@?4??make_index@Archive@@QAEXXZ@@5@$0A@@std@@@std@@U_Iterator_base0@2@@std@@QAEAAV01@XZ 64009df0 f i archive.obj
 0001:00008e50       ??F?$_Tree_unchecked_const_iterator@V?$_Tree_val@V?$_Tmap_traits@IIU?$less@I@std@@V?$allocator@U?$pair@$$CBII@std@@@2@$0A@@std@@@std@@U_Iterator_base0@2@@std@@QAEAAV01@XZ 64009e50 f i archive.obj
 0001:00008eb0       ??$_Construct@PBE@?$vector@EV?$allocator@E@std@@@std@@QAEXPBE0Uinput_iterator_tag@1@@Z 64009eb0 f i archive.obj
 0001:00008f20       ??$_For_each@V?$_List_unchecked_const_iterator@V?$_List_val@UArcEntry@@V?$allocator@UArcEntry@@@std@@@std@@U_Iterator_base0@2@@std@@V<lambda0>@?A0xe7bd9b10@@@std@@YA?AV<lambda0>@?A0xe7bd9b10@@V?$_List_unchecked_const_iterator@V?$_List_val@UArcEntry@@V?$allocator@UArcEntry@@@std@@@std@@U_Iterator_base0@2@@0@0V12@@Z 64009f20 f i archive.obj
 0001:000090e0       ??$_For_each@V?$_Tree_unchecked_iterator@V?$_Tree_val@V?$_Tmap_traits@V?$vector@EV?$allocator@E@std@@@std@@UArcFormat@@U?$less@V?$vector@EV?$allocator@E@std@@@std@@@2@V?$allocator@U?$pair@$$CBV?$vector@EV?$allocator@E@std@@@std@@UArcFormat@@@std@@@2@$0A@@std@@@std@@@std@@V<lambda2>@?A0xe7bd9b10@@@std@@YA?AV<lambda2>@?A0xe7bd9b10@@V?$_Tree_unchecked_iterator@V?$_Tree_val@V?$_Tmap_traits@V?$vector@EV?$allocator@E@std@@@std@@UArcFormat@@U?$less@V?$vector@EV?$allocator@E@std@@@std@@@2@V?$allocator@U?$pair@$$CBV?$vector@EV?$allocator@E@std@@@std@@UArcFormat@@@std@@@2@$0A@@std@@@std@@@0@0V12@@Z 6400a0e0 f i archive.obj
 0001:000092f0       ??$_Buynode@AAUDirInfo@?4??make_index@Archive@@QAEXXZ@@?$_Tree_val@V?$_Tset_traits@UDirInfo@?4??make_index@Archive@@QAEXXZ@U?$less@UDirInfo@?4??make_index@Archive@@QAEXXZ@@std@@V?$allocator@UDirInfo@?4??make_index@Archive@@QAEXXZ@@5@$0A@@std@@@std@@QAEPAU_Node@?$_Tree_nod@V?$_Tset_traits@UDirInfo@?4??make_index@Archive@@QAEXXZ@U?$less@UDirInfo@?4??make_index@Archive@@QAEXXZ@@std@@V?$allocator@UDirInfo@?4??make_index@Archive@@QAEXXZ@@5@$0A@@std@@@1@AAUDirInfo@?4??make_index@Archive@@QAEXXZ@@Z 6400a2f0 f i archive.obj
 0001:000093e0       ??$_For_each@V?$_Tree_unchecked_const_iterator@V?$_Tree_val@V?$_Tset_traits@UDirInfo@?4??make_index@Archive@@QAEXXZ@U?$less@UDirInfo@?4??make_index@Archive@@QAEXXZ@@std@@V?$allocator@UDirInfo@?4??make_index@Archive@@QAEXXZ@@5@$0A@@std@@@std@@U_Iterator_base0@2@@std@@V<lambda3>@?A0xe7bd9b10@@@std@@YA?AV<lambda3>@?A0xe7bd9b10@@V?$_Tree_unchecked_const_iterator@V?$_Tree_val@V?$_Tset_traits@UDirInfo@?4??make_index@Archive@@QAEXXZ@U?$less@UDirInfo@?4??make_index@Archive@@QAEXXZ@@std@@V?$allocator@UDirInfo@?4??make_index@Archive@@QAEXXZ@@5@$0A@@std@@@std@@U_Iterator_base0@2@@0@0V12@@Z 6400a3e0 f i archive.obj
 0001:00009480       ??$_Sort@PAIHV<lambda5>@?A0xe7bd9b10@@@std@@YAXPAI0HV<lambda5>@?A0xe7bd9b10@@@Z 6400a480 f i archive.obj
 0001:00009570       ??$_Equal_range@PAIHHV<lambda6>@?A0xe7bd9b10@@@std@@YA?AU?$pair@PAIPAI@0@PAI0ABHV<lambda6>@?A0xe7bd9b10@@PAH@Z 6400a570 f i archive.obj
 0001:00009730       ??$_Equal_range@PAIHHV<lambda7>@?A0xe7bd9b10@@@std@@YA?AU?$pair@PAIPAI@0@PAI0ABHV<lambda7>@?A0xe7bd9b10@@PAH@Z 6400a730 f i archive.obj
 0001:00009870       ??$_Insert@V?$_List_const_iterator@V?$_List_val@V?$basic_string@_WU?$char_traits@_W@std@@V?$allocator@_W@2@@std@@V?$allocator@V?$basic_string@_WU?$char_traits@_W@std@@V?$allocator@_W@2@@std@@@2@@std@@@std@@@?$list@V?$basic_string@_WU?$char_traits@_W@std@@V?$allocator@_W@2@@std@@V?$allocator@V?$basic_string@_WU?$char_traits@_W@std@@V?$allocator@_W@2@@std@@@2@@std@@QAEXV?$_List_const_iterator@V?$_List_val@V?$basic_string@_WU?$char_traits@_W@std@@V?$allocator@_W@2@@std@@V?$allocator@V?$basic_string@_WU?$char_traits@_W@std@@V?$allocator@_W@2@@std@@@2@@std@@@1@00Uforward_iterator_tag@1@@Z 6400a870 f i archive.obj
 0001:00009940       ??$_Buynode@U?$pair@$$CBV?$vector@EV?$allocator@E@std@@@std@@UArcFormat@@@std@@@?$_Tree_val@V?$_Tmap_traits@V?$vector@EV?$allocator@E@std@@@std@@UArcFormat@@U?$less@V?$vector@EV?$allocator@E@std@@@std@@@2@V?$allocator@U?$pair@$$CBV?$vector@EV?$allocator@E@std@@@std@@UArcFormat@@@std@@@2@$0A@@std@@@std@@QAEPAU_Node@?$_Tree_nod@V?$_Tmap_traits@V?$vector@EV?$allocator@E@std@@@std@@UArcFormat@@U?$less@V?$vector@EV?$allocator@E@std@@@std@@@2@V?$allocator@U?$pair@$$CBV?$vector@EV?$allocator@E@std@@@std@@UArcFormat@@@std@@@2@$0A@@std@@@1@$$QAU?$pair@$$CBV?$vector@EV?$allocator@E@std@@@std@@UArcFormat@@@1@@Z 6400a940 f i archive.obj
 0001:00009a20       ??$_Distance2@V?$_Tree_const_iterator@V?$_Tree_val@V?$_Tset_traits@IU?$less@I@std@@V?$allocator@I@2@$0A@@std@@@std@@@std@@I@std@@YAXV?$_Tree_const_iterator@V?$_Tree_val@V?$_Tset_traits@IU?$less@I@std@@V?$allocator@I@2@$0A@@std@@@std@@@0@0AAIUbidirectional_iterator_tag@0@@Z 6400aa20 f i archive.obj
 0001:00009a90       ??$_Distance2@V?$_Tree_const_iterator@V?$_Tree_val@V?$_Tmap_traits@IIU?$less@I@std@@V?$allocator@U?$pair@$$CBII@std@@@2@$0A@@std@@@std@@@std@@I@std@@YAXV?$_Tree_const_iterator@V?$_Tree_val@V?$_Tmap_traits@IIU?$less@I@std@@V?$allocator@U?$pair@$$CBII@std@@@2@$0A@@std@@@std@@@0@0AAIUbidirectional_iterator_tag@0@@Z 6400aa90 f i archive.obj
 0001:00009b00       ??$_Move@PAUArcFileInfo@@PAU1@@std@@YAPAUArcFileInfo@@PAU1@00U_Nonscalar_ptr_iterator_tag@0@@Z 6400ab00 f i archive.obj
 0001:00009b40       ??$_Destroy_range@V?$allocator@UArcFileInfo@@@std@@@std@@YAXPAUArcFileInfo@@0AAV?$allocator@UArcFileInfo@@@0@U_Nonscalar_ptr_iterator_tag@0@@Z 6400ab40 f i archive.obj
 0001:00009b80       ??$_Destroy_range@V?$allocator@UArcLib@@@std@@@std@@YAXPAUArcLib@@0AAV?$allocator@UArcLib@@@0@U_Nonscalar_ptr_iterator_tag@0@@Z 6400ab80 f i archive.obj
 0001:00009bc0       ??1?$pair@$$CBV?$vector@EV?$allocator@E@std@@@std@@UArcFormat@@@std@@QAE@XZ 6400abc0 f i archive.obj
 0001:00009bc0       ??1?$pair@V?$vector@EV?$allocator@E@std@@@std@@UArcFormat@@@std@@QAE@XZ 6400abc0 f i archive.obj
 0001:00009bf0       ??0ArcLib@@QAE@ABU0@@Z     6400abf0 f i archive.obj
 0001:00009c50       ??$_Unguarded_partition@PAIV<lambda5>@?A0xe7bd9b10@@@std@@YA?AU?$pair@PAIPAI@0@PAI0V<lambda5>@?A0xe7bd9b10@@@Z 6400ac50 f i archive.obj
 0001:0000a080       ??$_Uninit_copy@V?$_String_iterator@DU?$char_traits@D@std@@V?$allocator@D@2@@std@@PAEV?$allocator@E@2@@std@@YAPAEV?$_String_iterator@DU?$char_traits@D@std@@V?$allocator@D@2@@0@0PAEAAV?$allocator@E@0@U_Nonscalar_ptr_iterator_tag@0@@Z 6400b080 f i sfx.obj
 0001:0000a080       ??$_Uninit_copy@V?$_Vector_const_iterator@V?$_Vector_val@EV?$allocator@E@std@@@std@@@std@@PAEV?$allocator@E@2@@std@@YAPAEV?$_Vector_const_iterator@V?$_Vector_val@EV?$allocator@E@std@@@std@@@0@0PAEAAV?$allocator@E@0@U_Nonscalar_ptr_iterator_tag@0@@Z 6400b080 f i archive.obj
 0001:0000a0b0       ??$_Uninit_move@PAUArcFileInfo@@PAU1@V?$allocator@UArcFileInfo@@@std@@U1@@std@@YAPAUArcFileInfo@@PAU1@00AAV?$allocator@UArcFileInfo@@@0@0U_Nonscalar_ptr_iterator_tag@0@@Z 6400b0b0 f i archive.obj
 0001:0000a170       ??1?$pair@$$CBIUFileIndexInfo@@@std@@QAE@XZ 6400b170 f i update.obj
 0001:0000a170       ??1ArcFileInfo@@QAE@XZ     6400b170 f i archive.obj
 0001:0000a170       ??$_Dest_val@V?$allocator@UArcFileInfo@@@std@@UArcFileInfo@@@std@@YAXAAV?$allocator@UArcFileInfo@@@0@PAUArcFileInfo@@@Z 6400b170 f i archive.obj
 0001:0000a1a0       ??$_Uninit_move@PAUSfxModule@@PAU1@V?$allocator@USfxModule@@@std@@U1@@std@@YAPAUSfxModule@@PAU1@00AAV?$allocator@USfxModule@@@0@0U_Nonscalar_ptr_iterator_tag@0@@Z 6400b1a0 f i archive.obj
 0001:0000a250       ??$_Uninit_move@PAUArcLib@@PAU1@V?$allocator@UArcLib@@@std@@U1@@std@@YAPAUArcLib@@PAU1@00AAV?$allocator@UArcLib@@@0@0U_Nonscalar_ptr_iterator_tag@0@@Z 6400b250 f i archive.obj
 0001:0000a340       ??$_Insert@PAE@?$vector@EV?$allocator@E@std@@@std@@QAEXV?$_Vector_const_iterator@V?$_Vector_val@EV?$allocator@E@std@@@std@@@1@PAE1Uforward_iterator_tag@1@@Z 6400b340 f i archive.obj
 0001:0000a340       ??$_Insert@PBE@?$vector@EV?$allocator@E@std@@@std@@QAEXV?$_Vector_const_iterator@V?$_Vector_val@EV?$allocator@E@std@@@std@@@1@PBE1Uforward_iterator_tag@1@@Z 6400b340 f i archive.obj
 0001:0000a450       ??$_Median@PAIV<lambda5>@?A0xe7bd9b10@@@std@@YAXPAI00V<lambda5>@?A0xe7bd9b10@@@Z 6400b450 f i archive.obj
 0001:0000a500       ??$_Make_heap@PAIHIV<lambda5>@?A0xe7bd9b10@@@std@@YAXPAI0V<lambda5>@?A0xe7bd9b10@@PAH0@Z 6400b500 f i archive.obj
 0001:0000a620       ??$_Sort_heap@PAIV<lambda5>@?A0xe7bd9b10@@@std@@YAXPAI0V<lambda5>@?A0xe7bd9b10@@@Z 6400b620 f i archive.obj
 0001:0000a670       ??$_Insertion_sort1@PAIV<lambda5>@?A0xe7bd9b10@@I@std@@YAXPAI0V<lambda5>@?A0xe7bd9b10@@0@Z 6400b670 f i archive.obj
 0001:0000a7d0       ??$_Lower_bound@PAIHHV<lambda6>@?A0xe7bd9b10@@@std@@YAPAIPAI0ABHV<lambda6>@?A0xe7bd9b10@@PAH@Z 6400b7d0 f i archive.obj
 0001:0000a8a0       ??$_Upper_bound@PAIHHV<lambda6>@?A0xe7bd9b10@@@std@@YAPAIPAI0ABHV<lambda6>@?A0xe7bd9b10@@PAH@Z 6400b8a0 f i archive.obj
 0001:0000a970       ??$_Lower_bound@PAIHHV<lambda7>@?A0xe7bd9b10@@@std@@YAPAIPAI0ABHV<lambda7>@?A0xe7bd9b10@@PAH@Z 6400b970 f i archive.obj
 0001:0000a9f0       ??$_Upper_bound@PAIHHV<lambda7>@?A0xe7bd9b10@@@std@@YAPAIPAI0ABHV<lambda7>@?A0xe7bd9b10@@PAH@Z 6400b9f0 f i archive.obj
 0001:0000aa70       ??$_Med3@PAIV<lambda5>@?A0xe7bd9b10@@@std@@YAXPAI00V<lambda5>@?A0xe7bd9b10@@@Z 6400ba70 f i archive.obj
 0001:0000abb0       ??$_Adjust_heap@PAIHIV<lambda5>@?A0xe7bd9b10@@@std@@YAXPAIHH$$QAIV<lambda5>@?A0xe7bd9b10@@@Z 6400bbb0 f i archive.obj
 0001:0000ac80       ?reserve@?$vector@EV?$allocator@E@std@@@std@@QAEXI@Z 6400bc80 f i archive.obj
 0001:0000acf0       ??$_Push_heap@PAIHIV<lambda5>@?A0xe7bd9b10@@@std@@YAXPAIHH$$QAIV<lambda5>@?A0xe7bd9b10@@@Z 6400bcf0 f i archive.obj
 0001:0000adc0       ??$_Rotate@PAEHE@std@@YAXPAE00PAH0@Z 6400bdc0 f i archive.obj
 0001:0000ae80       ?_Lexicographical_compare@std@@YA_NPBE000@Z 6400be80 f i archive.obj
 0001:0000af20       ??3@YAXPAX0@Z              6400bf20 f i archive.obj
 0001:0000af30       ?compare@?$char_traits@D@std@@SAHPBD0I@Z 6400bf30 f i archive.obj
 0001:0000afb0       ?c_str@?$basic_string@_WU?$char_traits@_W@std@@V?$allocator@_W@2@@std@@QBEPB_WXZ 6400bfb0 f i archive.obj
 0001:0000afb0       ?_Myptr@?$basic_string@_WU?$char_traits@_W@std@@V?$allocator@_W@2@@std@@QBEPB_WXZ 6400bfb0 f i archive.obj
 0001:0000afb0       ?data@?$basic_string@_WU?$char_traits@_W@std@@V?$allocator@_W@2@@std@@QBEPB_WXZ 6400bfb0 f i archive.obj
 0001:0000afc0       ?assign@?$basic_string@_WU?$char_traits@_W@std@@V?$allocator@_W@2@@std@@QAEAAV12@PB_WI@Z 6400bfc0 f i archive.obj
 0001:0000b0b0       ??0?$basic_string@_WU?$char_traits@_W@std@@V?$allocator@_W@2@@std@@QAE@PB_W@Z 6400c0b0 f i archive.obj
 0001:0000b0f0       ?erase@?$basic_string@_WU?$char_traits@_W@std@@V?$allocator@_W@2@@std@@QAEAAV12@II@Z 6400c0f0 f i archive.obj
 0001:0000b170       ?allocate@?$allocator@_W@std@@QAEPA_WI@Z 6400c170 f i archive.obj
 0001:0000b1d0       ?_Copy@?$basic_string@_WU?$char_traits@_W@std@@V?$allocator@_W@2@@std@@QAEXII@Z 6400c1d0 f i archive.obj
 0001:0000b340       ?_Grow@?$basic_string@_WU?$char_traits@_W@std@@V?$allocator@_W@2@@std@@QAE_NI_N@Z 6400c340 f i archive.obj
 0001:0000b400       ?assign@?$basic_string@_WU?$char_traits@_W@std@@V?$allocator@_W@2@@std@@QAEAAV12@ABV12@II@Z 6400c400 f i archive.obj
 0001:0000b4f0       ??1?$basic_string@DU?$char_traits@D@std@@V?$allocator@D@2@@std@@QAE@XZ 6400c4f0 f i archive.obj
 0001:0000b520       ?erase@?$basic_string@DU?$char_traits@D@std@@V?$allocator@D@2@@std@@QAEAAV12@II@Z 6400c520 f i archive.obj
 0001:0000b5a0       ?assign@?$basic_string@DU?$char_traits@D@std@@V?$allocator@D@2@@std@@QAEAAV12@ABV12@II@Z 6400c5a0 f i archive.obj
 0001:0000b690       ??1bad_alloc@std@@UAE@XZ   6400c690 f i archive.obj
 0001:0000b6a0       ??_Gbad_alloc@std@@UAEPAXI@Z 6400c6a0 f i archive.obj
 0001:0000b6a0       ??_Ebad_alloc@std@@UAEPAXI@Z 6400c6a0 f i  CIL library: CIL module
 0001:0000b6d0       ??0bad_alloc@std@@QAE@ABV01@@Z 6400c6d0 f i archive.obj
 0001:0000b6f0       ?allocate@?$allocator@D@std@@QAEPADI@Z 6400c6f0 f i archive.obj
 0001:0000b750       ?_Copy@?$basic_string@DU?$char_traits@D@std@@V?$allocator@D@2@@std@@QAEXII@Z 6400c750 f i archive.obj
 0001:0000b8c0       ?assign@?$basic_string@DU?$char_traits@D@std@@V?$allocator@D@2@@std@@QAEAAV12@PBDI@Z 6400c8c0 f i archive.obj
 0001:0000b9b0       ??0Error@@QAE@ABV?$basic_string@_WU?$char_traits@_W@std@@V?$allocator@_W@2@@std@@0PBDH@Z 6400c9b0 f i plugin.obj
 0001:0000baa0       ??0Error@@QAE@ABVexception@std@@@Z 6400caa0 f i plugin.obj
 0001:0000bcf0       ?updatable@Archive@@QBE_NXZ 6400ccf0 f i plugin.obj
 0001:0000bde0       ??0Archive@@QAE@XZ         6400cde0 f i plugin.obj
 0001:0000bfc0       ??0Plugin@@QAE@XZ          6400cfc0 f i plugin.obj
 0001:0000c090       ?open@Plugin@@SAPAV1@ABV?$vector@V?$shared_ptr@VArchive@@@tr1@std@@V?$allocator@V?$shared_ptr@VArchive@@@tr1@std@@@3@@std@@@Z 6400d090 f i plugin.obj
 0001:0000c320       ?info@Plugin@@QAEXPAUOpenPanelInfo@@@Z 6400d320 f i plugin.obj
 0001:0000c700       ?set_dir@Plugin@@QAEXABV?$basic_string@_WU?$char_traits@_W@std@@V?$allocator@_W@2@@std@@@Z 6400d700 f i plugin.obj
 0001:0000c980       ?list@Plugin@@QAEXPAPAUPluginPanelItem@@PAI@Z 6400d980 f i plugin.obj
 0001:0000cad0       ?get_separate_dir_path@Plugin@@SA?AV?$basic_string@_WU?$char_traits@_W@std@@V?$allocator@_W@2@@std@@ABV23@0@Z 6400dad0 f i plugin.obj
 0001:0000cc00       ?extract@Plugin@@QAEXABVPluginPanelItemAccessor@1@AAV?$basic_string@_WU?$char_traits@_W@std@@V?$allocator@_W@2@@std@@_N_K@Z 6400dc00 f i plugin.obj
 0001:0000d410       ?get_files@Plugin@@QAEXPBUPluginPanelItem@@HHPAPB_W_K@Z 6400e410 f i plugin.obj
 0001:0000d4b0       ?extract@Plugin@@QAEXXZ    6400e4b0 f i plugin.obj
 0001:0000d570       ?extract@Plugin@@SAXABV?$vector@V?$basic_string@_WU?$char_traits@_W@std@@V?$allocator@_W@2@@std@@V?$allocator@V?$basic_string@_WU?$char_traits@_W@std@@V?$allocator@_W@2@@std@@@2@@std@@UExtractOptions@@@Z 6400e570 f i plugin.obj
 0001:0000e180       ?bulk_extract@Plugin@@SAXABV?$vector@V?$basic_string@_WU?$char_traits@_W@std@@V?$allocator@_W@2@@std@@V?$allocator@V?$basic_string@_WU?$char_traits@_W@std@@V?$allocator@_W@2@@std@@@2@@std@@@Z 6400f180 f i plugin.obj
 0001:0000e430       ?cmdline_extract@Plugin@@SAXABUExtractCommand@@@Z 6400f430 f i plugin.obj
 0001:0000e5d0       ?test_files@Plugin@@QAEXPAUPluginPanelItem@@H_K@Z 6400f5d0 f i plugin.obj
 0001:0000e830       ?bulk_test@Plugin@@SAXABV?$vector@V?$basic_string@_WU?$char_traits@_W@std@@V?$allocator@_W@2@@std@@V?$allocator@V?$basic_string@_WU?$char_traits@_W@std@@V?$allocator@_W@2@@std@@@2@@std@@@Z 6400f830 f i plugin.obj
 0001:0000f070       ?cmdline_test@Plugin@@SAXABUTestCommand@@@Z 64010070 f i plugin.obj
 0001:0000f120       ?put_files@Plugin@@QAEXPBUPluginPanelItem@@HHPB_W_K@Z 64010120 f i plugin.obj
 0001:0000fee0       ?create_archive@Plugin@@SAXXZ 64010ee0 f i plugin.obj
 0001:00010c60       ?cmdline_update@Plugin@@SAXABUUpdateCommand@@@Z 64011c60 f i plugin.obj
 0001:00011690       ?delete_files@Plugin@@QAEXPBUPluginPanelItem@@H_K@Z 64012690 f i plugin.obj
 0001:00011a80       ?create_dir@Plugin@@QAEXPAPB_W_K@Z 64012a80 f i plugin.obj
 0001:00011d50       ?show_attr@Plugin@@QAEXXZ  64012d50 f i plugin.obj
 0001:00011fd0       ?close@Plugin@@QAEXXZ      64012fd0 f i plugin.obj
 0001:00012070       ?convert_to_sfx@Plugin@@SAXABV?$vector@V?$basic_string@_WU?$char_traits@_W@std@@V?$allocator@_W@2@@std@@V?$allocator@V?$basic_string@_WU?$char_traits@_W@std@@V?$allocator@_W@2@@std@@@2@@std@@@Z 64013070 f i plugin.obj
 0001:00012410       ??1ExtractOptions@@QAE@XZ  64013410 f i plugin.obj
 0001:00012460       ??1PluginPanelItems@?1??extract@Plugin@@QAEXXZ@QAE@XZ 64013460 f i plugin.obj
 0001:00012470       ??1OpenOptions@@QAE@XZ     64013470 f i plugin.obj
 0001:000124d0       ??0ExtractOptions@@QAE@ABU0@@Z 640134d0 f i plugin.obj
 0001:00012580       ??1UpdateOptions@@QAE@XZ   64013580 f i plugin.obj
 0001:00012630       ??4SfxOptions@@QAEAAU0@ABU0@@Z 64013630 f i plugin.obj
 0001:000126a0       ??1PanelItem@Far@@QAE@XZ   640136a0 f i plugin.obj
 0001:000126f0       ??0UpdateOptions@@QAE@ABU0@@Z 640136f0 f i plugin.obj
 0001:000127c0       ??0SfxOptions@@QAE@ABU0@@Z 640137c0 f i plugin.obj
 0001:00012880       ??1SfxOptions@@QAE@XZ      64013880 f i plugin.obj
 0001:000128e0       ??1ProfileOptions@@QAE@XZ  640138e0 f i plugin.obj
 0001:000129b0       ??4SfxVersionInfo@@QAEAAU0@ABU0@@Z 640139b0 f i plugin.obj
 0001:00012a20       ??4SfxInstallConfig@@QAEAAU0@ABU0@@Z 64013a20 f i plugin.obj
 0001:00012aa0       ??0ProfileOptions@@QAE@ABU0@@Z 64013aa0 f i plugin.obj
 0001:00012be0       ??0SfxVersionInfo@@QAE@ABU0@@Z 64013be0 f i plugin.obj
 0001:00012ce0       ??1SfxVersionInfo@@QAE@XZ  64013ce0 f i plugin.obj
 0001:00012dc0       ??0SfxInstallConfig@@QAE@ABU0@@Z 64013dc0 f i plugin.obj
 0001:00012ef0       ??1SfxInstallConfig@@QAE@XZ 64013ef0 f i plugin.obj
 0001:00013000       _GetGlobalInfoW@4          64014000 f   plugin.obj
 0001:00013090       _SetStartupInfoW@4         64014090 f   plugin.obj
 0001:00013110       _GetPluginInfoW@4          64014110 f   plugin.obj
 0001:00013250       _AnalyseW@4                64014250 f   plugin.obj
 0001:00013a10       _CloseAnalyseW@4           64014a10 f   plugin.obj
 0001:00013a60       _OpenW@4                   64014a60 f   plugin.obj
 0001:00014450       ??1CommandArgs@@QAE@XZ     64015450 f i plugin.obj
 0001:00014490       ??1OpenCommand@@QAE@XZ     64015490 f i plugin.obj
 0001:000144a0       ??0OpenOptions@@QAE@ABU0@@Z 640154a0 f i plugin.obj
 0001:00014540       ??1UpdateCommand@@QAE@XZ   64015540 f i plugin.obj
 0001:000145c0       ??1ExtractCommand@@QAE@XZ  640155c0 f i plugin.obj
 0001:00014630       _ClosePanelW@4             64015630 f   plugin.obj
 0001:000146f0       ??1Plugin@@QAE@XZ          640156f0 f i plugin.obj
 0001:00014800       _GetOpenPanelInfoW@4       64015800 f   plugin.obj
 0001:000148e0       _SetDirectoryW@4           640158e0 f   plugin.obj
 0001:00014a30       _GetFindDataW@4            64015a30 f   plugin.obj
 0001:00014b40       _FreeFindDataW@4           64015b40 f   plugin.obj
 0001:00014ba0       _GetFilesW@4               64015ba0 f   plugin.obj
 0001:00014cc0       _PutFilesW@4               64015cc0 f   plugin.obj
 0001:00014de0       _DeleteFilesW@4            64015de0 f   plugin.obj
 0001:00014f10       _MakeDirectoryW@4          64015f10 f   plugin.obj
 0001:00015020       _ProcessHostFileW@4        64016020 f   plugin.obj
 0001:000151d0       _ProcessPanelInputW@4      640161d0 f   plugin.obj
 0001:000152f0       _ConfigureW@4              640162f0 f   plugin.obj
 0001:00015580       ??1PluginSettings@@QAE@XZ  64016580 f i plugin.obj
 0001:00015610       ?ExitFARW@@YGXPAUExitInfo@@@Z 64016610 f   plugin.obj
 0001:00015640       ??4?$basic_string@_WU?$char_traits@_W@std@@V?$allocator@_W@2@@std@@QAEAAV01@PB_W@Z 64016640 f i plugin.obj
 0001:00015670       ?clear@?$basic_string@_WU?$char_traits@_W@std@@V?$allocator@_W@2@@std@@QAEXXZ 64016670 f i plugin.obj
 0001:00015690       ?push_back@?$list@V?$basic_string@_WU?$char_traits@_W@std@@V?$allocator@_W@2@@std@@V?$allocator@V?$basic_string@_WU?$char_traits@_W@std@@V?$allocator@_W@2@@std@@@2@@std@@QAEX$$QAV?$basic_string@_WU?$char_traits@_W@std@@V?$allocator@_W@2@@2@@Z 64016690 f i plugin.obj
 0001:000156d0       ?push_back@?$vector@V?$basic_string@_WU?$char_traits@_W@std@@V?$allocator@_W@2@@std@@V?$allocator@V?$basic_string@_WU?$char_traits@_W@std@@V?$allocator@_W@2@@std@@@2@@std@@QAEX$$QAV?$basic_string@_WU?$char_traits@_W@std@@V?$allocator@_W@2@@2@@Z 640166d0 f i plugin.obj
 0001:000157b0       ?reserve@?$vector@V?$basic_string@_WU?$char_traits@_W@std@@V?$allocator@_W@2@@std@@V?$allocator@V?$basic_string@_WU?$char_traits@_W@std@@V?$allocator@_W@2@@std@@@2@@std@@QAEXI@Z 640167b0 f i plugin.obj
 0001:000158c0       ?push_back@?$vector@V?$basic_string@_WU?$char_traits@_W@std@@V?$allocator@_W@2@@std@@V?$allocator@V?$basic_string@_WU?$char_traits@_W@std@@V?$allocator@_W@2@@std@@@2@@std@@QAEXABV?$basic_string@_WU?$char_traits@_W@std@@V?$allocator@_W@2@@2@@Z 640168c0 f i plugin.obj
 0001:000159a0       ??0?$list@V?$vector@EV?$allocator@E@std@@@std@@V?$allocator@V?$vector@EV?$allocator@E@std@@@std@@@2@@std@@QAE@ABV01@@Z 640169a0 f i plugin.obj
 0001:00015a60       ??4?$list@V?$vector@EV?$allocator@E@std@@@std@@V?$allocator@V?$vector@EV?$allocator@E@std@@@std@@@2@@std@@QAEAAV01@$$QAV01@@Z 64016a60 f i plugin.obj
 0001:00015a90       ??1?$list@V?$vector@EV?$allocator@E@std@@@std@@V?$allocator@V?$vector@EV?$allocator@E@std@@@std@@@2@@std@@QAE@XZ 64016a90 f i archive.obj
 0001:00015a90       ??1?$list@UArcEntry@@V?$allocator@UArcEntry@@@std@@@std@@QAE@XZ 64016a90 f i plugin.obj
 0001:00015a90       ??1ArcChain@@QAE@XZ        64016a90 f i plugin.obj
 0001:00015ab0       ??1?$enable_shared_from_this@VArchive@@@tr1@std@@IAE@XZ 64016ab0 f i plugin.obj
 0001:00015ad0       ??0?$set@V?$basic_string@_WU?$char_traits@_W@std@@V?$allocator@_W@2@@std@@U?$less@V?$basic_string@_WU?$char_traits@_W@std@@V?$allocator@_W@2@@std@@@2@V?$allocator@V?$basic_string@_WU?$char_traits@_W@std@@V?$allocator@_W@2@@std@@@2@@std@@QAE@XZ 64016ad0 f i plugin.obj
 0001:00015b40       ?count@?$_Tree@V?$_Tset_traits@V?$basic_string@_WU?$char_traits@_W@std@@V?$allocator@_W@2@@std@@U?$less@V?$basic_string@_WU?$char_traits@_W@std@@V?$allocator@_W@2@@std@@@2@V?$allocator@V?$basic_string@_WU?$char_traits@_W@std@@V?$allocator@_W@2@@std@@@2@$0A@@std@@@std@@QBEIABV?$basic_string@_WU?$char_traits@_W@std@@V?$allocator@_W@2@@2@@Z 64016b40 f i plugin.obj
 0001:00015b80       ??1?$vector@UArcFileInfo@@V?$allocator@UArcFileInfo@@@std@@@std@@QAE@XZ 64016b80 f i plugin.obj
 0001:00015bc0       ??1?$list@UAttr@@V?$allocator@UAttr@@@std@@@std@@QAE@XZ 64016bc0 f i plugin.obj
 0001:00015be0       ??4?$shared_ptr@VArchive@@@tr1@std@@QAEAAV012@ABV012@@Z 64016be0 f i plugin.obj
 0001:00015c50       ?reserve@?$vector@UInfoPanelLine@@V?$allocator@UInfoPanelLine@@@std@@@std@@QAEXI@Z 64016c50 f i plugin.obj
 0001:00015d40       ??1?$unique_ptr@VPlugin@@U?$default_delete@VPlugin@@@std@@@std@@QAE@XZ 64016d40 f i plugin.obj
 0001:00015d60       ??0?$list@UError@@V?$allocator@UError@@@std@@@std@@QAE@XZ 64016d60 f i plugin.obj
 0001:00015dc0       ?push_back@?$list@UError@@V?$allocator@UError@@@std@@@std@@QAEXABUError@@@Z 64016dc0 f i plugin.obj
 0001:00015e00       ??1?$unique_ptr@V?$vector@V?$shared_ptr@VArchive@@@tr1@std@@V?$allocator@V?$shared_ptr@VArchive@@@tr1@std@@@3@@std@@U?$default_delete@V?$vector@V?$shared_ptr@VArchive@@@tr1@std@@V?$allocator@V?$shared_ptr@VArchive@@@tr1@std@@@3@@std@@@2@@std@@QAE@XZ 64016e00 f i plugin.obj
 0001:00015e50       ?_Reserve@?$vector@V?$basic_string@_WU?$char_traits@_W@std@@V?$allocator@_W@2@@std@@V?$allocator@V?$basic_string@_WU?$char_traits@_W@std@@V?$allocator@_W@2@@std@@@2@@std@@IAEXI@Z 64016e50 f i plugin.obj
 0001:00015ed0       ??1?$vector@V?$basic_string@_WU?$char_traits@_W@std@@V?$allocator@_W@2@@std@@V?$allocator@V?$basic_string@_WU?$char_traits@_W@std@@V?$allocator@_W@2@@std@@@2@@std@@QAE@XZ 64016ed0 f i plugin.obj
 0001:00015ed0       ??1MenuItems@Far@@QAE@XZ   64016ed0 f i plugin.obj
 0001:00015ed0       ??1TestCommand@@QAE@XZ     64016ed0 f i plugin.obj
 0001:00015ed0       ?_Tidy@?$vector@V?$basic_string@_WU?$char_traits@_W@std@@V?$allocator@_W@2@@std@@V?$allocator@V?$basic_string@_WU?$char_traits@_W@std@@V?$allocator@_W@2@@std@@@2@@std@@IAEXXZ 64016ed0 f i plugin.obj
 0001:00015f00       ?_Reserve@?$vector@UInfoPanelLine@@V?$allocator@UInfoPanelLine@@@std@@@std@@IAEXI@Z 64016f00 f i plugin.obj
 0001:00015f70       ?allocate@?$allocator@UInfoPanelLine@@@std@@QAEPAUInfoPanelLine@@I@Z 64016f70 f i plugin.obj
 0001:00015fd0       ?_Grow_to@?$vector@V?$basic_string@_WU?$char_traits@_W@std@@V?$allocator@_W@2@@std@@V?$allocator@V?$basic_string@_WU?$char_traits@_W@std@@V?$allocator@_W@2@@std@@@2@@std@@IBEII@Z 64016fd0 f i plugin.obj
 0001:00016010       ?_Eqrange@?$_Tree@V?$_Tmap_traits@V?$vector@EV?$allocator@E@std@@@std@@UArcFormat@@U?$less@V?$vector@EV?$allocator@E@std@@@std@@@2@V?$allocator@U?$pair@$$CBV?$vector@EV?$allocator@E@std@@@std@@UArcFormat@@@std@@@2@$0A@@std@@@std@@IBE?AU?$pair@V?$_Tree_const_iterator@V?$_Tree_val@V?$_Tmap_traits@V?$vector@EV?$allocator@E@std@@@std@@UArcFormat@@U?$less@V?$vector@EV?$allocator@E@std@@@std@@@2@V?$allocator@U?$pair@$$CBV?$vector@EV?$allocator@E@std@@@std@@UArcFormat@@@std@@@2@$0A@@std@@@std@@@std@@V12@@2@ABV?$vector@EV?$allocator@E@std@@@2@@Z 64017010 f i plugin.obj
 0001:00016100       ?clear@?$list@V?$vector@EV?$allocator@E@std@@@std@@V?$allocator@V?$vector@EV?$allocator@E@std@@@std@@@2@@std@@QAEXXZ 64017100 f i archive.obj
 0001:00016100       ?clear@?$list@UArcEntry@@V?$allocator@UArcEntry@@@std@@@std@@QAEXXZ 64017100 f i plugin.obj
 0001:00016150       ?erase@?$_Tree@V?$_Tset_traits@V?$basic_string@_WU?$char_traits@_W@std@@V?$allocator@_W@2@@std@@U?$less@V?$basic_string@_WU?$char_traits@_W@std@@V?$allocator@_W@2@@std@@@2@V?$allocator@V?$basic_string@_WU?$char_traits@_W@std@@V?$allocator@_W@2@@std@@@2@$0A@@std@@@std@@QAE?AV?$_Tree_const_iterator@V?$_Tree_val@V?$_Tset_traits@V?$basic_string@_WU?$char_traits@_W@std@@V?$allocator@_W@2@@std@@U?$less@V?$basic_string@_WU?$char_traits@_W@std@@V?$allocator@_W@2@@std@@@2@V?$allocator@V?$basic_string@_WU?$char_traits@_W@std@@V?$allocator@_W@2@@std@@@2@$0A@@std@@@std@@@2@V32@0@Z 64017150 f i plugin.obj
 0001:00016150       ?erase@?$_Tree@V?$_Tset_traits@V?$basic_string@_WU?$char_traits@_W@std@@V?$allocator@_W@2@@std@@UItemCompare@?1??show@MultiSelectDialog@@QAE_NXZ@V?$allocator@V?$basic_string@_WU?$char_traits@_W@std@@V?$allocator@_W@2@@std@@@2@$0A@@std@@@std@@QAE?AV?$_Tree_const_iterator@V?$_Tree_val@V?$_Tset_traits@V?$basic_string@_WU?$char_traits@_W@std@@V?$allocator@_W@2@@std@@UItemCompare@?1??show@MultiSelectDialog@@QAE_NXZ@V?$allocator@V?$basic_string@_WU?$char_traits@_W@std@@V?$allocator@_W@2@@std@@@2@$0A@@std@@@std@@@2@V32@0@Z 64017150 f i ui.obj
 0001:00016210       ?_Eqrange@?$_Tree@V?$_Tset_traits@V?$basic_string@_WU?$char_traits@_W@std@@V?$allocator@_W@2@@std@@U?$less@V?$basic_string@_WU?$char_traits@_W@std@@V?$allocator@_W@2@@std@@@2@V?$allocator@V?$basic_string@_WU?$char_traits@_W@std@@V?$allocator@_W@2@@std@@@2@$0A@@std@@@std@@IBE?AU?$pair@V?$_Tree_const_iterator@V?$_Tree_val@V?$_Tset_traits@V?$basic_string@_WU?$char_traits@_W@std@@V?$allocator@_W@2@@std@@U?$less@V?$basic_string@_WU?$char_traits@_W@std@@V?$allocator@_W@2@@std@@@2@V?$allocator@V?$basic_string@_WU?$char_traits@_W@std@@V?$allocator@_W@2@@std@@@2@$0A@@std@@@std@@@std@@V12@@2@ABV?$basic_string@_WU?$char_traits@_W@std@@V?$allocator@_W@2@@2@@Z 64017210 f i plugin.obj
 0001:000163c0       ?clear@?$list@UAttr@@V?$allocator@UAttr@@@std@@@std@@QAEXXZ 640173c0 f i plugin.obj
 0001:00016430       ?_Buynode@?$_List_val@UError@@V?$allocator@UError@@@std@@@std@@QAEPAU_Node@?$_List_nod@UError@@V?$allocator@UError@@@std@@@2@PAU342@0ABUError@@@Z 64017430 f i plugin.obj
 0001:00016510       ?erase@?$_Tree@V?$_Tset_traits@V?$basic_string@_WU?$char_traits@_W@std@@V?$allocator@_W@2@@std@@U?$less@V?$basic_string@_WU?$char_traits@_W@std@@V?$allocator@_W@2@@std@@@2@V?$allocator@V?$basic_string@_WU?$char_traits@_W@std@@V?$allocator@_W@2@@std@@@2@$0A@@std@@@std@@QAE?AV?$_Tree_const_iterator@V?$_Tree_val@V?$_Tset_traits@V?$basic_string@_WU?$char_traits@_W@std@@V?$allocator@_W@2@@std@@U?$less@V?$basic_string@_WU?$char_traits@_W@std@@V?$allocator@_W@2@@std@@@2@V?$allocator@V?$basic_string@_WU?$char_traits@_W@std@@V?$allocator@_W@2@@std@@@2@$0A@@std@@@std@@@2@V32@@Z 64017510 f i plugin.obj
 0001:00016510       ?erase@?$_Tree@V?$_Tset_traits@V?$basic_string@_WU?$char_traits@_W@std@@V?$allocator@_W@2@@std@@UItemCompare@?1??show@MultiSelectDialog@@QAE_NXZ@V?$allocator@V?$basic_string@_WU?$char_traits@_W@std@@V?$allocator@_W@2@@std@@@2@$0A@@std@@@std@@QAE?AV?$_Tree_const_iterator@V?$_Tree_val@V?$_Tset_traits@V?$basic_string@_WU?$char_traits@_W@std@@V?$allocator@_W@2@@std@@UItemCompare@?1??show@MultiSelectDialog@@QAE_NXZ@V?$allocator@V?$basic_string@_WU?$char_traits@_W@std@@V?$allocator@_W@2@@std@@@2@$0A@@std@@@std@@@2@V32@@Z 64017510 f i ui.obj
 0001:000167b0       ??R?$less@V?$basic_string@_WU?$char_traits@_W@std@@V?$allocator@_W@2@@std@@@std@@QBE_NABV?$basic_string@_WU?$char_traits@_W@std@@V?$allocator@_W@2@@1@0@Z 640177b0 f i plugin.obj
 0001:000167d0       ?_Splice_same@?$list@UAttr@@V?$allocator@UAttr@@@std@@@std@@QAEXV?$_List_const_iterator@V?$_List_val@UAttr@@V?$allocator@UAttr@@@std@@@std@@@2@AAV12@00I@Z 640177d0 f i plugin.obj
 0001:00016850       ?_Erase@?$_Tree@V?$_Tset_traits@V?$basic_string@_WU?$char_traits@_W@std@@V?$allocator@_W@2@@std@@U?$less@V?$basic_string@_WU?$char_traits@_W@std@@V?$allocator@_W@2@@std@@@2@V?$allocator@V?$basic_string@_WU?$char_traits@_W@std@@V?$allocator@_W@2@@std@@@2@$0A@@std@@@std@@IAEXPAU_Node@?$_Tree_nod@V?$_Tset_traits@V?$basic_string@_WU?$char_traits@_W@std@@V?$allocator@_W@2@@std@@U?$less@V?$basic_string@_WU?$char_traits@_W@std@@V?$allocator@_W@2@@std@@@2@V?$allocator@V?$basic_string@_WU?$char_traits@_W@std@@V?$allocator@_W@2@@std@@@2@$0A@@std@@@2@@Z 64017850 f i plugin.obj
 0001:00016850       ?_Erase@?$_Tree@V?$_Tset_traits@V?$basic_string@_WU?$char_traits@_W@std@@V?$allocator@_W@2@@std@@UItemCompare@?1??show@MultiSelectDialog@@QAE_NXZ@V?$allocator@V?$basic_string@_WU?$char_traits@_W@std@@V?$allocator@_W@2@@std@@@2@$0A@@std@@@std@@IAEXPAU_Node@?$_Tree_nod@V?$_Tset_traits@V?$basic_string@_WU?$char_traits@_W@std@@V?$allocator@_W@2@@std@@UItemCompare@?1??show@MultiSelectDialog@@QAE_NXZ@V?$allocator@V?$basic_string@_WU?$char_traits@_W@std@@V?$allocator@_W@2@@std@@@2@$0A@@std@@@2@@Z 64017850 f i ui.obj
 0001:000168b0       ?_Rrotate@?$_Tree@V?$_Tset_traits@V?$basic_string@_WU?$char_traits@_W@std@@V?$allocator@_W@2@@std@@UItemCompare@?1??show@MultiSelectDialog@@QAE_NXZ@V?$allocator@V?$basic_string@_WU?$char_traits@_W@std@@V?$allocator@_W@2@@std@@@2@$0A@@std@@@std@@IAEXPAU_Node@?$_Tree_nod@V?$_Tset_traits@V?$basic_string@_WU?$char_traits@_W@std@@V?$allocator@_W@2@@std@@UItemCompare@?1??show@MultiSelectDialog@@QAE_NXZ@V?$allocator@V?$basic_string@_WU?$char_traits@_W@std@@V?$allocator@_W@2@@std@@@2@$0A@@std@@@2@@Z 640178b0 f i ui.obj
 0001:000168b0       ?_Rrotate@?$_Tree@V?$_Tset_traits@V?$basic_string@_WU?$char_traits@_W@std@@V?$allocator@_W@2@@std@@U?$less@V?$basic_string@_WU?$char_traits@_W@std@@V?$allocator@_W@2@@std@@@2@V?$allocator@V?$basic_string@_WU?$char_traits@_W@std@@V?$allocator@_W@2@@std@@@2@$0A@@std@@@std@@IAEXPAU_Node@?$_Tree_nod@V?$_Tset_traits@V?$basic_string@_WU?$char_traits@_W@std@@V?$allocator@_W@2@@std@@U?$less@V?$basic_string@_WU?$char_traits@_W@std@@V?$allocator@_W@2@@std@@@2@V?$allocator@V?$basic_string@_WU?$char_traits@_W@std@@V?$allocator@_W@2@@std@@@2@$0A@@std@@@2@@Z 640178b0 f i plugin.obj
 0001:00016900       ?erase@?$list@UAttr@@V?$allocator@UAttr@@@std@@@std@@QAE?AV?$_List_iterator@V?$_List_val@UAttr@@V?$allocator@UAttr@@@std@@@std@@@2@V?$_List_const_iterator@V?$_List_val@UAttr@@V?$allocator@UAttr@@@std@@@std@@@2@@Z 64017900 f i plugin.obj
 0001:00016990       ??$?HDU?$char_traits@D@std@@V?$allocator@D@1@@std@@YA?AV?$basic_string@DU?$char_traits@D@std@@V?$allocator@D@2@@0@$$QAV10@PBD@Z 64017990 f i plugin.obj
 0001:000169e0       ??$?H_WU?$char_traits@_W@std@@V?$allocator@_W@1@@std@@YA?AV?$basic_string@_WU?$char_traits@_W@std@@V?$allocator@_W@2@@0@PB_W$$QAV10@@Z 640179e0 f i plugin.obj
 0001:00016a30       ??$?8_WU?$char_traits@_W@std@@V?$allocator@_W@1@@std@@YA_NABV?$basic_string@_WU?$char_traits@_W@std@@V?$allocator@_W@2@@0@PB_W@Z 64017a30 f i plugin.obj
 0001:00016a60       ??$?H_WU?$char_traits@_W@std@@V?$allocator@_W@1@@std@@YA?AV?$basic_string@_WU?$char_traits@_W@std@@V?$allocator@_W@2@@0@$$QAV10@ABV10@@Z 64017a60 f i plugin.obj
 0001:00016aa0       ??$copy@V?$_List_const_iterator@V?$_List_val@V?$basic_string@_WU?$char_traits@_W@std@@V?$allocator@_W@2@@std@@V?$allocator@V?$basic_string@_WU?$char_traits@_W@std@@V?$allocator@_W@2@@std@@@2@@std@@@std@@V?$insert_iterator@V?$set@V?$basic_string@_WU?$char_traits@_W@std@@V?$allocator@_W@2@@std@@U?$less@V?$basic_string@_WU?$char_traits@_W@std@@V?$allocator@_W@2@@std@@@2@V?$allocator@V?$basic_string@_WU?$char_traits@_W@std@@V?$allocator@_W@2@@std@@@2@@std@@@2@@std@@YA?AV?$insert_iterator@V?$set@V?$basic_string@_WU?$char_traits@_W@std@@V?$allocator@_W@2@@std@@U?$less@V?$basic_string@_WU?$char_traits@_W@std@@V?$allocator@_W@2@@std@@@2@V?$allocator@V?$basic_string@_WU?$char_traits@_W@std@@V?$allocator@_W@2@@std@@@2@@std@@@0@V?$_List_const_iterator@V?$_List_val@V?$basic_string@_WU?$char_traits@_W@std@@V?$allocator@_W@2@@std@@V?$allocator@V?$basic_string@_WU?$char_traits@_W@std@@V?$allocator@_W@2@@std@@@2@@std@@@0@0V10@@Z 64017aa0 f i plugin.obj
 0001:00016ae0       ?_Reset@?$_Ptr_base@VArchive@@@tr1@std@@QAEXPAVArchive@@PAV_Ref_count_base@23@_N@Z 64017ae0 f i plugin.obj
 0001:00016b70       ?_Reset@?$_Ptr_base@V?$map@IUFileIndexInfo@@U?$less@I@std@@V?$allocator@U?$pair@$$CBIUFileIndexInfo@@@std@@@3@@std@@@tr1@std@@QAEXPAV?$map@IUFileIndexInfo@@U?$less@I@std@@V?$allocator@U?$pair@$$CBIUFileIndexInfo@@@std@@@3@@3@PAV_Ref_count_base@23@_N@Z 64017b70 f i update.obj
 0001:00016b70       ?_Reset@?$_Ptr_base@VArchiveFileDeleterProgress@@@tr1@std@@QAEXPAVArchiveFileDeleterProgress@@PAV_Ref_count_base@23@_N@Z 64017b70 f i delete.obj
 0001:00016b70       ?_Reset@?$_Ptr_base@V?$list@UError@@V?$allocator@UError@@@std@@@std@@@tr1@std@@QAEXPAV?$list@UError@@V?$allocator@UError@@@std@@@3@PAV_Ref_count_base@23@_N@Z 64017b70 f i plugin.obj
 0001:00016b70       ?_Reset@?$_Ptr_base@VFileWriteCache@@@tr1@std@@QAEXPAVFileWriteCache@@PAV_Ref_count_base@23@_N@Z 64017b70 f i extract.obj
 0001:00016b70       ?_Reset@?$_Ptr_base@VExtractProgress@@@tr1@std@@QAEXPAVExtractProgress@@PAV_Ref_count_base@23@_N@Z 64017b70 f i extract.obj
 0001:00016b70       ?_Reset@?$_Ptr_base@VFileFilter@Far@@@tr1@std@@QAEXPAVFileFilter@Far@@PAV_Ref_count_base@23@_N@Z 64017b70 f i plugin.obj
 0001:00016b70       ?_Reset@?$_Ptr_base@W4OverwriteAction@@@tr1@std@@QAEXPAW4OverwriteAction@@PAV_Ref_count_base@23@_N@Z 64017b70 f i extract.obj
 0001:00016b70       ?_Reset@?$_Ptr_base@VProgressMonitor@@@tr1@std@@QAEXPAVProgressMonitor@@PAV_Ref_count_base@23@_N@Z 64017b70 f i delete.obj
 0001:00016b70       ?_Reset@?$_Ptr_base@_N@tr1@std@@QAEXPA_NPAV_Ref_count_base@23@_N@Z 64017b70 f i extract.obj
 0001:00016b70       ?_Reset@?$_Ptr_base@V?$set@IU?$less@I@std@@V?$allocator@I@2@@std@@@tr1@std@@QAEXPAV?$set@IU?$less@I@std@@V?$allocator@I@2@@3@PAV_Ref_count_base@23@_N@Z 64017b70 f i extract.obj
 0001:00016b70       ?_Reset@?$_Ptr_base@VArchiveUpdateProgress@@@tr1@std@@QAEXPAVArchiveUpdateProgress@@PAV_Ref_count_base@23@_N@Z 64017b70 f i update.obj
 0001:00016be0       ??0bad_weak_ptr@tr1@std@@QAE@ABV012@@Z 64017be0 f i plugin.obj
 0001:00016c00       ?append@?$basic_string@DU?$char_traits@D@std@@V?$allocator@D@2@@std@@QAEAAV12@PBDI@Z 64017c00 f i plugin.obj
 0001:00016d10       ?insert@?$basic_string@_WU?$char_traits@_W@std@@V?$allocator@_W@2@@std@@QAEAAV12@IPB_WI@Z 64017d10 f i plugin.obj
 0001:00016e60       ?append@?$basic_string@DU?$char_traits@D@std@@V?$allocator@D@2@@std@@QAEAAV12@ABV12@II@Z 64017e60 f i plugin.obj
 0001:00016f40       ??$_Construct@V?$_String_iterator@DU?$char_traits@D@std@@V?$allocator@D@2@@std@@@?$basic_string@_WU?$char_traits@_W@std@@V?$allocator@_W@2@@std@@QAEXV?$_String_iterator@DU?$char_traits@D@std@@V?$allocator@D@2@@1@0Uforward_iterator_tag@1@@Z 64017f40 f i plugin.obj
 0001:00016f40       ??$_Construct@V?$_String_const_iterator@DU?$char_traits@D@std@@V?$allocator@D@2@@std@@@?$basic_string@_WU?$char_traits@_W@std@@V?$allocator@_W@2@@std@@QAEXV?$_String_const_iterator@DU?$char_traits@D@std@@V?$allocator@D@2@@1@0Uforward_iterator_tag@1@@Z 64017f40 f i strutils.obj
 0001:000170c0       ??$_Resetp@VArchive@@@?$shared_ptr@VArchive@@@tr1@std@@AAEXPAVArchive@@@Z 640180c0 f i plugin.obj
 0001:00017160       ??$_For_each@V?$_List_unchecked_iterator@V?$_List_val@UAttr@@V?$allocator@UAttr@@@std@@@std@@@std@@V<lambda0>@?A0xc5e9a1c5@@@std@@YA?AV<lambda0>@?A0xc5e9a1c5@@V?$_List_unchecked_iterator@V?$_List_val@UAttr@@V?$allocator@UAttr@@@std@@@std@@@0@0V12@@Z 64018160 f i plugin.obj
 0001:00017270       ??$_For_each@PBIV<lambda1>@?A0xc5e9a1c5@@@std@@YA?AV<lambda1>@?A0xc5e9a1c5@@PBI0V12@@Z 64018270 f i plugin.obj
 0001:00017400       ??$_Resetp@V?$list@UError@@V?$allocator@UError@@@std@@@std@@@?$shared_ptr@V?$list@UError@@V?$allocator@UError@@@std@@@std@@@tr1@std@@AAEXPAV?$list@UError@@V?$allocator@UError@@@std@@@2@@Z 64018400 f i plugin.obj
 0001:000174c0       ??$_For_each@PBIV<lambda2>@?A0xc5e9a1c5@@@std@@YA?AV<lambda2>@?A0xc5e9a1c5@@PBI0V12@@Z 640184c0 f i plugin.obj
 0001:000174c0       ??$_For_each@PBIV<lambda4>@?A0xc5e9a1c5@@@std@@YA?AV<lambda4>@?A0xc5e9a1c5@@PBI0V12@@Z 640184c0 f i plugin.obj
 0001:000175d0       ??$_For_each@PBV?$basic_string@_WU?$char_traits@_W@std@@V?$allocator@_W@2@@std@@V<lambda5>@?A0xc5e9a1c5@@@std@@YA?AV<lambda5>@?A0xc5e9a1c5@@PBV?$basic_string@_WU?$char_traits@_W@std@@V?$allocator@_W@2@@0@0V12@@Z 640185d0 f i plugin.obj
 0001:000175d0       ??$_For_each@PBV?$basic_string@_WU?$char_traits@_W@std@@V?$allocator@_W@2@@std@@V<lambda3>@?A0xc5e9a1c5@@@std@@YA?AV<lambda3>@?A0xc5e9a1c5@@PBV?$basic_string@_WU?$char_traits@_W@std@@V?$allocator@_W@2@@0@0V12@@Z 640185d0 f i plugin.obj
 0001:000175d0       ??$_For_each@PBV?$basic_string@_WU?$char_traits@_W@std@@V?$allocator@_W@2@@std@@V<lambda6>@?A0xc5e9a1c5@@@std@@YA?AV<lambda6>@?A0xc5e9a1c5@@PBV?$basic_string@_WU?$char_traits@_W@std@@V?$allocator@_W@2@@0@0V12@@Z 640185d0 f i plugin.obj
 0001:00017690       ??$_For_each@PBV?$basic_string@_WU?$char_traits@_W@std@@V?$allocator@_W@2@@std@@V<lambda7>@?A0xc5e9a1c5@@@std@@YA?AV<lambda7>@?A0xc5e9a1c5@@PBV?$basic_string@_WU?$char_traits@_W@std@@V?$allocator@_W@2@@0@0V12@@Z 64018690 f i plugin.obj
 0001:00017810       ??$_For_each@PAV?$basic_string@_WU?$char_traits@_W@std@@V?$allocator@_W@2@@std@@V<lambda8>@?A0xc5e9a1c5@@@std@@YA?AV<lambda8>@?A0xc5e9a1c5@@PAV?$basic_string@_WU?$char_traits@_W@std@@V?$allocator@_W@2@@0@0V12@@Z 64018810 f i plugin.obj
 0001:00017a80       ??$_For_each@PAV?$basic_string@_WU?$char_traits@_W@std@@V?$allocator@_W@2@@std@@V<lambda9>@?A0xc5e9a1c5@@@std@@YA?AV<lambda9>@?A0xc5e9a1c5@@PAV?$basic_string@_WU?$char_traits@_W@std@@V?$allocator@_W@2@@0@0V12@@Z 64018a80 f i plugin.obj
 0001:00017b10       ??$_For_each@V?$_List_unchecked_iterator@V?$_List_val@V?$basic_string@_WU?$char_traits@_W@std@@V?$allocator@_W@2@@std@@V?$allocator@V?$basic_string@_WU?$char_traits@_W@std@@V?$allocator@_W@2@@std@@@2@@std@@@std@@V<lambda10>@?A0xc5e9a1c5@@@std@@YA?AV<lambda10>@?A0xc5e9a1c5@@V?$_List_unchecked_iterator@V?$_List_val@V?$basic_string@_WU?$char_traits@_W@std@@V?$allocator@_W@2@@std@@V?$allocator@V?$basic_string@_WU?$char_traits@_W@std@@V?$allocator@_W@2@@std@@@2@@std@@@0@0V12@@Z 64018b10 f i plugin.obj
 0001:00017bd0       ??$_Resetp@XV<lambda11>@?A0xc5e9a1c5@@@?$shared_ptr@X@tr1@std@@AAEXPAXV<lambda11>@?A0xc5e9a1c5@@@Z 64018bd0 f i plugin.obj
 0001:00017c90       ??$_Buynode@V?$basic_string@_WU?$char_traits@_W@std@@V?$allocator@_W@2@@std@@@?$_List_val@V?$basic_string@_WU?$char_traits@_W@std@@V?$allocator@_W@2@@std@@V?$allocator@V?$basic_string@_WU?$char_traits@_W@std@@V?$allocator@_W@2@@std@@@2@@std@@QAEPAU_Node@?$_List_nod@V?$basic_string@_WU?$char_traits@_W@std@@V?$allocator@_W@2@@std@@V?$allocator@V?$basic_string@_WU?$char_traits@_W@std@@V?$allocator@_W@2@@std@@@2@@1@PAU231@0$$QAV?$basic_string@_WU?$char_traits@_W@std@@V?$allocator@_W@2@@1@@Z 64018c90 f i plugin.obj
 0001:00017d60       ??$_Insert@V?$_List_const_iterator@V?$_List_val@V?$vector@EV?$allocator@E@std@@@std@@V?$allocator@V?$vector@EV?$allocator@E@std@@@std@@@2@@std@@@std@@@?$list@V?$vector@EV?$allocator@E@std@@@std@@V?$allocator@V?$vector@EV?$allocator@E@std@@@std@@@2@@std@@QAEXV?$_List_const_iterator@V?$_List_val@V?$vector@EV?$allocator@E@std@@@std@@V?$allocator@V?$vector@EV?$allocator@E@std@@@std@@@2@@std@@@1@00Uforward_iterator_tag@1@@Z 64018d60 f i plugin.obj
 0001:00017e30       ??$_Distance2@V?$_Tree_const_iterator@V?$_Tree_val@V?$_Tmap_traits@V?$vector@EV?$allocator@E@std@@@std@@UArcFormat@@U?$less@V?$vector@EV?$allocator@E@std@@@std@@@2@V?$allocator@U?$pair@$$CBV?$vector@EV?$allocator@E@std@@@std@@UArcFormat@@@std@@@2@$0A@@std@@@std@@@std@@I@std@@YAXV?$_Tree_const_iterator@V?$_Tree_val@V?$_Tmap_traits@V?$vector@EV?$allocator@E@std@@@std@@UArcFormat@@U?$less@V?$vector@EV?$allocator@E@std@@@std@@@2@V?$allocator@U?$pair@$$CBV?$vector@EV?$allocator@E@std@@@std@@UArcFormat@@@std@@@2@$0A@@std@@@std@@@0@0AAIUbidirectional_iterator_tag@0@@Z 64018e30 f i plugin.obj
 0001:00017ea0       ??$_Destroy_range@V?$allocator@V?$shared_ptr@VArchive@@@tr1@std@@@std@@@std@@YAXPAV?$shared_ptr@VArchive@@@tr1@0@0AAV?$allocator@V?$shared_ptr@VArchive@@@tr1@std@@@0@U_Nonscalar_ptr_iterator_tag@0@@Z 64018ea0 f i plugin.obj
 0001:00017ef0       ??_G?$list@UError@@V?$allocator@UError@@@std@@@std@@QAEPAXI@Z 64018ef0 f i plugin.obj
 0001:00017f10       ??1Archive@@QAE@XZ         64018f10 f i plugin.obj
 0001:000180d0       ?append@?$basic_string@_WU?$char_traits@_W@std@@V?$allocator@_W@2@@std@@QAEAAV12@I_W@Z 640190d0 f i plugin.obj
 0001:00018180       ??1?$list@UError@@V?$allocator@UError@@@std@@@std@@QAE@XZ 64019180 f i plugin.obj
 0001:00018190       ?_Destroy@?$_Ref_count@VArchive@@@tr1@std@@EAEXXZ 64019190 f i plugin.obj
 0001:000181b0       ?_Destroy@?$_Ref_count@V?$list@UError@@V?$allocator@UError@@@std@@@std@@@tr1@std@@EAEXXZ 640191b0 f i plugin.obj
 0001:000181e0       ?_Get_deleter@?$_Ref_count_del@XV<lambda11>@?A0xc5e9a1c5@@@tr1@std@@UBEPAXABVtype_info@@@Z 640191e0 f i plugin.obj
 0001:00018210       ?_Destroy@?$_Ref_count_del@XV<lambda11>@?A0xc5e9a1c5@@@tr1@std@@EAEXXZ 64019210 f i plugin.obj
 0001:00018220       ?clear@?$list@UError@@V?$allocator@UError@@@std@@@std@@QAEXXZ 64019220 f i plugin.obj
 0001:00018270       ??$_Resetp0@VArchive@@@?$shared_ptr@VArchive@@@tr1@std@@QAEXPAVArchive@@PAV_Ref_count_base@12@@Z 64019270 f i plugin.obj
 0001:000182f0       ??$_Copy_impl@V?$_List_unchecked_const_iterator@V?$_List_val@V?$basic_string@_WU?$char_traits@_W@std@@V?$allocator@_W@2@@std@@V?$allocator@V?$basic_string@_WU?$char_traits@_W@std@@V?$allocator@_W@2@@std@@@2@@std@@U_Iterator_base0@2@@std@@V?$insert_iterator@V?$set@V?$basic_string@_WU?$char_traits@_W@std@@V?$allocator@_W@2@@std@@U?$less@V?$basic_string@_WU?$char_traits@_W@std@@V?$allocator@_W@2@@std@@@2@V?$allocator@V?$basic_string@_WU?$char_traits@_W@std@@V?$allocator@_W@2@@std@@@2@@std@@@2@@std@@YA?AV?$insert_iterator@V?$set@V?$basic_string@_WU?$char_traits@_W@std@@V?$allocator@_W@2@@std@@U?$less@V?$basic_string@_WU?$char_traits@_W@std@@V?$allocator@_W@2@@std@@@2@V?$allocator@V?$basic_string@_WU?$char_traits@_W@std@@V?$allocator@_W@2@@std@@@2@@std@@@0@V?$_List_unchecked_const_iterator@V?$_List_val@V?$basic_string@_WU?$char_traits@_W@std@@V?$allocator@_W@2@@std@@V?$allocator@V?$basic_string@_WU?$char_traits@_W@std@@V?$allocator@_W@2@@std@@@2@@std@@U_Iterator_base0@2@@0@0V10@U_Nonscalar_ptr_iterator_tag@0@@Z 640192f0 f i plugin.obj
 0001:00018380       ??$_Uninit_move@PAV?$basic_string@_WU?$char_traits@_W@std@@V?$allocator@_W@2@@std@@PAV12@V?$allocator@V?$basic_string@_WU?$char_traits@_W@std@@V?$allocator@_W@2@@std@@@2@V12@@std@@YAPAV?$basic_string@_WU?$char_traits@_W@std@@V?$allocator@_W@2@@0@PAV10@00AAV?$allocator@V?$basic_string@_WU?$char_traits@_W@std@@V?$allocator@_W@2@@std@@@0@0U_Nonscalar_ptr_iterator_tag@0@@Z 64019380 f i plugin.obj
 0001:00018440       ??$_Uninit_move@PAUInfoPanelLine@@PAU1@V?$allocator@UInfoPanelLine@@@std@@U1@@std@@YAPAUInfoPanelLine@@PAU1@00AAV?$allocator@UInfoPanelLine@@@0@0U_Nonscalar_ptr_iterator_tag@0@@Z 64019440 f i plugin.obj
 0001:00018470       ?insert@?$_Tree@V?$_Tset_traits@V?$basic_string@_WU?$char_traits@_W@std@@V?$allocator@_W@2@@std@@U?$less@V?$basic_string@_WU?$char_traits@_W@std@@V?$allocator@_W@2@@std@@@2@V?$allocator@V?$basic_string@_WU?$char_traits@_W@std@@V?$allocator@_W@2@@std@@@2@$0A@@std@@@std@@QAE?AV?$_Tree_const_iterator@V?$_Tree_val@V?$_Tset_traits@V?$basic_string@_WU?$char_traits@_W@std@@V?$allocator@_W@2@@std@@U?$less@V?$basic_string@_WU?$char_traits@_W@std@@V?$allocator@_W@2@@std@@@2@V?$allocator@V?$basic_string@_WU?$char_traits@_W@std@@V?$allocator@_W@2@@std@@@2@$0A@@std@@@std@@@2@V32@ABV?$basic_string@_WU?$char_traits@_W@std@@V?$allocator@_W@2@@2@@Z 64019470 f i plugin.obj
 0001:00018610       ?insert@?$_Tree@V?$_Tset_traits@V?$basic_string@_WU?$char_traits@_W@std@@V?$allocator@_W@2@@std@@U?$less@V?$basic_string@_WU?$char_traits@_W@std@@V?$allocator@_W@2@@std@@@2@V?$allocator@V?$basic_string@_WU?$char_traits@_W@std@@V?$allocator@_W@2@@std@@@2@$0A@@std@@@std@@QAE?AU?$pair@V?$_Tree_const_iterator@V?$_Tree_val@V?$_Tset_traits@V?$basic_string@_WU?$char_traits@_W@std@@V?$allocator@_W@2@@std@@U?$less@V?$basic_string@_WU?$char_traits@_W@std@@V?$allocator@_W@2@@std@@@2@V?$allocator@V?$basic_string@_WU?$char_traits@_W@std@@V?$allocator@_W@2@@std@@@2@$0A@@std@@@std@@@std@@_N@2@ABV?$basic_string@_WU?$char_traits@_W@std@@V?$allocator@_W@2@@2@_N@Z 64019610 f i plugin.obj
 0001:00018790       ?_Insert@?$_Tree@V?$_Tset_traits@V?$basic_string@_WU?$char_traits@_W@std@@V?$allocator@_W@2@@std@@UItemCompare@?1??show@MultiSelectDialog@@QAE_NXZ@V?$allocator@V?$basic_string@_WU?$char_traits@_W@std@@V?$allocator@_W@2@@std@@@2@$0A@@std@@@std@@IAE?AV?$_Tree_const_iterator@V?$_Tree_val@V?$_Tset_traits@V?$basic_string@_WU?$char_traits@_W@std@@V?$allocator@_W@2@@std@@UItemCompare@?1??show@MultiSelectDialog@@QAE_NXZ@V?$allocator@V?$basic_string@_WU?$char_traits@_W@std@@V?$allocator@_W@2@@std@@@2@$0A@@std@@@std@@@2@_NPAU_Node@?$_Tree_nod@V?$_Tset_traits@V?$basic_string@_WU?$char_traits@_W@std@@V?$allocator@_W@2@@std@@UItemCompare@?1??show@MultiSelectDialog@@QAE_NXZ@V?$allocator@V?$basic_string@_WU?$char_traits@_W@std@@V?$allocator@_W@2@@std@@@2@$0A@@std@@@2@1@Z 64019790 f i ui.obj
 0001:00018790       ?_Insert@?$_Tree@V?$_Tset_traits@V?$basic_string@_WU?$char_traits@_W@std@@V?$allocator@_W@2@@std@@U?$less@V?$basic_string@_WU?$char_traits@_W@std@@V?$allocator@_W@2@@std@@@2@V?$allocator@V?$basic_string@_WU?$char_traits@_W@std@@V?$allocator@_W@2@@std@@@2@$0A@@std@@@std@@IAE?AV?$_Tree_const_iterator@V?$_Tree_val@V?$_Tset_traits@V?$basic_string@_WU?$char_traits@_W@std@@V?$allocator@_W@2@@std@@U?$less@V?$basic_string@_WU?$char_traits@_W@std@@V?$allocator@_W@2@@std@@@2@V?$allocator@V?$basic_string@_WU?$char_traits@_W@std@@V?$allocator@_W@2@@std@@@2@$0A@@std@@@std@@@2@_NPAU_Node@?$_Tree_nod@V?$_Tset_traits@V?$basic_string@_WU?$char_traits@_W@std@@V?$allocator@_W@2@@std@@U?$less@V?$basic_string@_WU?$char_traits@_W@std@@V?$allocator@_W@2@@std@@@2@V?$allocator@V?$basic_string@_WU?$char_traits@_W@std@@V?$allocator@_W@2@@std@@@2@$0A@@std@@@2@1@Z 64019790 f i plugin.obj
 0001:000189e0       ??F?$_Tree_unchecked_const_iterator@V?$_Tree_val@V?$_Tset_traits@V?$basic_string@_WU?$char_traits@_W@std@@V?$allocator@_W@2@@std@@U?$less@V?$basic_string@_WU?$char_traits@_W@std@@V?$allocator@_W@2@@std@@@2@V?$allocator@V?$basic_string@_WU?$char_traits@_W@std@@V?$allocator@_W@2@@std@@@2@$0A@@std@@@std@@U_Iterator_base0@2@@std@@QAEAAV01@XZ 640199e0 f i plugin.obj
 0001:000189e0       ??F?$_Tree_unchecked_const_iterator@V?$_Tree_val@V?$_Tset_traits@V?$basic_string@_WU?$char_traits@_W@std@@V?$allocator@_W@2@@std@@UItemCompare@?1??show@MultiSelectDialog@@QAE_NXZ@V?$allocator@V?$basic_string@_WU?$char_traits@_W@std@@V?$allocator@_W@2@@std@@@2@$0A@@std@@@std@@U_Iterator_base0@2@@std@@QAEAAV01@XZ 640199e0 f i ui.obj
 0001:00018a40       ??$_Insert@V?$_List_const_iterator@V?$_List_val@UAttr@@V?$allocator@UAttr@@@std@@@std@@@std@@@?$list@UAttr@@V?$allocator@UAttr@@@std@@@std@@QAEXV?$_List_const_iterator@V?$_List_val@UAttr@@V?$allocator@UAttr@@@std@@@std@@@1@00Uforward_iterator_tag@1@@Z 64019a40 f i plugin.obj
 0001:00018b10       ?_Buynode@?$_List_val@UAttr@@V?$allocator@UAttr@@@std@@@std@@QAEPAU_Node@?$_List_nod@UAttr@@V?$allocator@UAttr@@@std@@@2@PAU342@0ABUAttr@@@Z 64019b10 f i plugin.obj
 0001:00018bc0       ??$_Construct@UAttr@@ABU1@@std@@YAXPAUAttr@@ABU1@@Z 64019bc0 f i plugin.obj
 0001:00018c50       ?_Get_deleter@_Ref_count_base@tr1@std@@UBEPAXABVtype_info@@@Z 64019c50 f i plugin.obj
 0001:00018c60       ??1runtime_error@std@@UAE@XZ 64019c60 f i ui.obj
 0001:00018c60       ??1bad_weak_ptr@tr1@std@@UAE@XZ 64019c60 f i plugin.obj
 0001:00018c60       ??1failure@ios_base@std@@UAE@XZ 64019c60 f i ui.obj
 0001:00018c70       ??_Eruntime_error@std@@UAEPAXI@Z 64019c70 f i  CIL library: CIL module
 0001:00018c70       ??_Gbad_weak_ptr@tr1@std@@UAEPAXI@Z 64019c70 f i plugin.obj
 0001:00018c70       ??_Efailure@ios_base@std@@UAEPAXI@Z 64019c70 f i  CIL library: CIL module
 0001:00018c70       ??_Gfailure@ios_base@std@@UAEPAXI@Z 64019c70 f i ui.obj
 0001:00018c70       ??_Esystem_error@std@@UAEPAXI@Z 64019c70 f i  CIL library: CIL module
 0001:00018c70       ??_Gsystem_error@std@@UAEPAXI@Z 64019c70 f i ui.obj
 0001:00018c70       ??_Gruntime_error@std@@UAEPAXI@Z 64019c70 f i ui.obj
 0001:00018c70       ??_Ebad_weak_ptr@tr1@std@@UAEPAXI@Z 64019c70 f i  CIL library: CIL module
 0001:00018c90       ?what@bad_weak_ptr@tr1@std@@UBEPBDXZ 64019c90 f i plugin.obj
 0001:00018ca0       ?assign@?$basic_string@DU?$char_traits@D@std@@V?$allocator@D@2@@std@@QAEAAV12@$$QAV12@@Z 64019ca0 f i plugin.obj
 0001:00018d10       ??0?$basic_string@DU?$char_traits@D@std@@V?$allocator@D@2@@std@@QAE@PBD@Z 64019d10 f i plugin.obj
 0001:00018d50       ??0DisableEvents@Dialog@Far@@QAE@AAV12@@Z 64019d50 f i ui.obj
 0001:00018d70       ??1DisableEvents@Dialog@Far@@QAE@XZ 64019d70 f i ui.obj
 0001:00018d90       ?get_path@TempFile@@QBE?AV?$basic_string@_WU?$char_traits@_W@std@@V?$allocator@_W@2@@std@@XZ 64019d90 f i ui.obj
 0001:00018dc0       ??0ProgressSuspend@@QAE@AAVProgressMonitor@@@Z 64019dc0 f i ui.obj
 0001:00018e00       ??1ProgressSuspend@@QAE@XZ 64019e00 f i ui.obj
 0001:00018e10       ?sfx@ArcAPI@@SAABVSfxModules@@XZ 64019e10 f i ui.obj
 0001:00018e90       ?get_error_dlg_title@@YA?AV?$basic_string@_WU?$char_traits@_W@std@@V?$allocator@_W@2@@std@@XZ 64019e90 f   ui.obj
 0001:00018eb0       ??0ProgressMonitor@@QAE@ABV?$basic_string@_WU?$char_traits@_W@std@@V?$allocator@_W@2@@std@@_N1@Z 64019eb0 f   ui.obj
 0001:00018fb0       ??1ProgressMonitor@@UAE@XZ 64019fb0 f   ui.obj
 0001:000190b0       ?display@ProgressMonitor@@AAEXXZ 6401a0b0 f   ui.obj
 0001:000194d0       ?update_ui@ProgressMonitor@@QAEX_N@Z 6401a4d0 f   ui.obj
 0001:000196f0       ?handle_esc@ProgressMonitor@@IAEXXZ 6401a6f0 f   ui.obj
 0001:000199b0       ?get_size_suffixes@@YAPAPB_WXZ 6401a9b0 f   ui.obj
 0001:00019a60       ?get_speed_suffixes@@YAPAPB_WXZ 6401aa60 f   ui.obj
 0001:00019b20       ?dialog_proc@PasswordDialog@@EAEHHHPAX@Z 6401ab20 f i ui.obj
 0001:00019c00       ??0PasswordDialog@@QAE@AAV?$basic_string@_WU?$char_traits@_W@std@@V?$allocator@_W@2@@std@@ABV12@@Z 6401ac00 f i ui.obj
 0001:00019d10       ?show@PasswordDialog@@QAE_NXZ 6401ad10 f i ui.obj
 0001:00019f00       ?password_dialog@@YA_NAAV?$basic_string@_WU?$char_traits@_W@std@@V?$allocator@_W@2@@std@@ABV12@@Z 6401af00 f   ui.obj
 0001:00019f90       ??1OverwriteDialog@@QAE@XZ 6401af90 f i ui.obj
 0001:00019f90       ??1PasswordDialog@@QAE@XZ  6401af90 f i ui.obj
 0001:0001a000       ?dialog_proc@OverwriteDialog@@EAEHHHPAX@Z 6401b000 f i ui.obj
 0001:0001a0f0       ??0OverwriteDialog@@QAE@ABV?$basic_string@_WU?$char_traits@_W@std@@V?$allocator@_W@2@@std@@ABUOverwriteFileInfo@@1W4OverwriteDialogKind@@AAUOverwriteOptions@@@Z 6401b0f0 f i ui.obj
 0001:0001a260       ?show@OverwriteDialog@@QAE_NXZ 6401b260 f i ui.obj
 0001:0001a9f0       ?overwrite_dialog@@YA_NABV?$basic_string@_WU?$char_traits@_W@std@@V?$allocator@_W@2@@std@@ABUOverwriteFileInfo@@1W4OverwriteDialogKind@@AAUOverwriteOptions@@@Z 6401b9f0 f   ui.obj
 0001:0001aa90       ?read_controls@ExtractDialog@@AAEXAAUExtractOptions@@@Z 6401ba90 f i ui.obj
 0001:0001ae40       ?dialog_proc@ExtractDialog@@EAEHHHPAX@Z 6401be40 f i ui.obj
 0001:0001b0c0       ??0ExtractDialog@@QAE@AAUExtractOptions@@@Z 6401c0c0 f i ui.obj
 0001:0001b1a0       ?show@ExtractDialog@@QAE_NXZ 6401c1a0 f i ui.obj
 0001:0001b900       ?extract_dialog@@YA_NAAUExtractOptions@@@Z 6401c900 f   ui.obj
 0001:0001b9b0       ??1SettingsDialog@@QAE@XZ  6401c9b0 f i ui.obj
 0001:0001b9b0       ??1ExtractDialog@@QAE@XZ   6401c9b0 f i ui.obj
 0001:0001b9b0       ??1Dialog@Far@@QAE@XZ      6401c9b0 f i ui.obj
 0001:0001b9b0       ??1AttrDialog@@QAE@XZ      6401c9b0 f i ui.obj
 0001:0001ba00       ?retry_or_ignore_error@@YAXABUError@@AA_N1AAV?$list@UError@@V?$allocator@UError@@@std@@@std@@AAVProgressMonitor@@_N4@Z 6401ca00 f   ui.obj
 0001:0001c150       ??_D?$basic_ostringstream@_WU?$char_traits@_W@std@@V?$allocator@_W@2@@std@@QAEXXZ 6401d150 f i ui.obj
 0001:0001c1d0       ?show_error_log@@YAXABV?$list@UError@@V?$allocator@UError@@@std@@@std@@@Z 6401d1d0 f   ui.obj
 0001:0001c970       ??8@YA_NABUSfxOptions@@0@Z 6401d970 f   ui.obj
 0001:0001cb10       ??8@YA_NABUProfileOptions@@0@Z 6401db10 f   ui.obj
 0001:0001ccd0       ?get_default_ext@UpdateDialog@@ABE?AV?$basic_string@_WU?$char_traits@_W@std@@V?$allocator@_W@2@@std@@XZ 6401dcd0 f i ui.obj
 0001:0001cf00       ?change_extension@UpdateDialog@@AAE_NXZ 6401df00 f i ui.obj
 0001:0001d2f0       ?update_level_list@UpdateDialog@@AAEXXZ 6401e2f0 f i ui.obj
 0001:0001d830       ?set_control_state@UpdateDialog@@AAEXXZ 6401e830 f i ui.obj
 0001:0001dce0       ?eval_arc_path@UpdateDialog@@AAE?AV?$basic_string@_WU?$char_traits@_W@std@@V?$allocator@_W@2@@std@@XZ 6401ece0 f i ui.obj
 0001:0001e140       ?read_controls@UpdateDialog@@AAEXAAUUpdateOptions@@@Z 6401f140 f i ui.obj
 0001:0001eb20       ?write_controls@UpdateDialog@@AAEXABUProfileOptions@@@Z 6401fb20 f i ui.obj
 0001:0001f1e0       ?populate_profile_list@UpdateDialog@@AAEXXZ 640201e0 f i ui.obj
 0001:0001f380       ?dialog_proc@UpdateDialog@@EAEHHHPAX@Z 64020380 f i ui.obj
 0001:0001ff80       ??0UpdateDialog@@QAE@_NAAUUpdateOptions@@AAUUpdateProfiles@@@Z 64020f80 f i ui.obj
 0001:00020100       ?show@UpdateDialog@@QAE_NXZ 64021100 f i ui.obj
 0001:00021b50       ??1UpdateDialog@@QAE@XZ    64022b50 f i ui.obj
 0001:00021c60       ?estimate_column_widths@MultiSelectDialog@@AAE?AV?$vector@IV?$allocator@I@std@@@std@@ABV?$vector@V?$basic_string@_WU?$char_traits@_W@std@@V?$allocator@_W@2@@std@@V?$allocator@V?$basic_string@_WU?$char_traits@_W@std@@V?$allocator@_W@2@@std@@@2@@3@@Z 64022c60 f i ui.obj
 0001:00021ee0       ?dialog_proc@MultiSelectDialog@@EAEHHHPAX@Z 64022ee0 f i ui.obj
 0001:00022110       ??0MultiSelectDialog@@QAE@ABV?$basic_string@_WU?$char_traits@_W@std@@V?$allocator@_W@2@@std@@0AAV12@@Z 64023110 f i ui.obj
 0001:000221e0       ??0MultiSelectDialog@@QAE@ABV?$basic_string@_WU?$char_traits@_W@std@@V?$allocator@_W@2@@std@@0@Z 640231e0 f i ui.obj
 0001:000222b0       ?show@MultiSelectDialog@@QAE_NXZ 640232b0 f i ui.obj
 0001:00022810       ??1?$set@V?$basic_string@_WU?$char_traits@_W@std@@V?$allocator@_W@2@@std@@U?$less@V?$basic_string@_WU?$char_traits@_W@std@@V?$allocator@_W@2@@std@@@2@V?$allocator@V?$basic_string@_WU?$char_traits@_W@std@@V?$allocator@_W@2@@std@@@2@@std@@QAE@XZ 64023810 f i plugin.obj
 0001:00022810       ??1?$set@V?$basic_string@_WU?$char_traits@_W@std@@V?$allocator@_W@2@@std@@UItemCompare@?1??show@MultiSelectDialog@@QAE_NXZ@V?$allocator@V?$basic_string@_WU?$char_traits@_W@std@@V?$allocator@_W@2@@std@@@2@@std@@QAE@XZ 64023810 f i ui.obj
 0001:00022870       ?get_masks@FormatLibraryInfoDialog@@AAE?AV?$basic_string@_WU?$char_traits@_W@std@@V?$allocator@_W@2@@std@@I@Z 64023870 f i ui.obj
 0001:00022ac0       ?get_formats@FormatLibraryInfoDialog@@AAE?AV?$basic_string@_WU?$char_traits@_W@std@@V?$allocator@_W@2@@std@@I@Z 64023ac0 f i ui.obj
 0001:00022cf0       ?dialog_proc@FormatLibraryInfoDialog@@EAEHHHPAX@Z 64023cf0 f i ui.obj
 0001:00023030       ??0FormatLibraryInfoDialog@@QAE@XZ 64024030 f i ui.obj
 0001:00023200       ?show@FormatLibraryInfoDialog@@QAEXXZ 64024200 f i ui.obj
 0001:000238d0       ??1MultiSelectDialog@@QAE@XZ 640248d0 f i ui.obj
 0001:00023960       ?dialog_proc@SettingsDialog@@EAEHHHPAX@Z 64024960 f i ui.obj
 0001:000242a0       ?generate_masks@SettingsDialog@@AAEXXZ 640252a0 f i ui.obj
 0001:000243b0       ?default_masks@SettingsDialog@@AAEXXZ 640253b0 f i ui.obj
 0001:00024450       ?get_available_formats@SettingsDialog@@AAE?AV?$basic_string@_WU?$char_traits@_W@std@@V?$allocator@_W@2@@std@@XZ 64025450 f i ui.obj
 0001:000245a0       ??0SettingsDialog@@QAE@AAUPluginSettings@@@Z 640255a0 f i ui.obj
 0001:00024680       ?show@SettingsDialog@@QAE_NXZ 64025680 f i ui.obj
 0001:00024f90       ??R<lambda1>@?A0xc33845b5@@QBE_NABUUpdateProfile@@0@Z 64025f90 f i options.obj
 0001:00024f90       ??R<lambda4>@?A0x80a7ab2d@@QBE_NABV?$basic_string@_WU?$char_traits@_W@std@@V?$allocator@_W@2@@std@@0@Z 64025f90 f i ui.obj
 0001:00025070       ??1FormatLibraryInfoDialog@@QAE@XZ 64026070 f i ui.obj
 0001:00025150       ??1Options@@QAE@XZ         64026150 f i ui.obj
 0001:000252b0       ?settings_dialog@@YA_NAAUPluginSettings@@@Z 640262b0 f   ui.obj
 0001:00025360       ?dialog_proc@AttrDialog@@EAEHHHPAX@Z 64026360 f i ui.obj
 0001:00025570       ??0AttrDialog@@QAE@ABV?$list@UAttr@@V?$allocator@UAttr@@@std@@@std@@@Z 64026570 f i ui.obj
 0001:00025640       ?show@AttrDialog@@QAEXXZ   64026640 f i ui.obj
 0001:00025710       ?attr_dialog@@YAXABV?$list@UAttr@@V?$allocator@UAttr@@@std@@@std@@@Z 64026710 f   ui.obj
 0001:000257a0       ??6?$basic_ostream@_WU?$char_traits@_W@std@@@std@@QAEAAV01@H@Z 640267a0 f i ui.obj
 0001:00025990       ?reset@?$shared_ptr@VFileFilter@Far@@@tr1@std@@QAEXXZ 64026990 f i ui.obj
 0001:000259e0       ?erase@?$vector@UUpdateProfile@@V?$allocator@UUpdateProfile@@@std@@@std@@QAE?AV?$_Vector_iterator@V?$_Vector_val@UUpdateProfile@@V?$allocator@UUpdateProfile@@@std@@@std@@@2@V?$_Vector_const_iterator@V?$_Vector_val@UUpdateProfile@@V?$allocator@UUpdateProfile@@@std@@@std@@@2@@Z 640269e0 f i ui.obj
 0001:00025a30       ??4?$vector@IV?$allocator@I@std@@@std@@QAEAAV01@ABV01@@Z 64026a30 f i ui.obj
 0001:00025b40       ??0?$basic_ostringstream@_WU?$char_traits@_W@std@@V?$allocator@_W@2@@std@@QAE@H@Z 64026b40 f i ui.obj
 0001:00025be0       ?str@?$basic_ostringstream@_WU?$char_traits@_W@std@@V?$allocator@_W@2@@std@@QBE?AV?$basic_string@_WU?$char_traits@_W@std@@V?$allocator@_W@2@@2@XZ 64026be0 f i ui.obj
 0001:00025c00       ??1?$basic_stringbuf@_WU?$char_traits@_W@std@@V?$allocator@_W@2@@std@@UAE@XZ 64026c00 f i ui.obj
 0001:00025c70       ?overflow@?$basic_stringbuf@_WU?$char_traits@_W@std@@V?$allocator@_W@2@@std@@MAEGG@Z 64026c70 f i ui.obj
 0001:00025e70       ?pbackfail@?$basic_stringbuf@_WU?$char_traits@_W@std@@V?$allocator@_W@2@@std@@MAEGG@Z 64026e70 f i ui.obj
 0001:00025ed0       ?underflow@?$basic_stringbuf@_WU?$char_traits@_W@std@@V?$allocator@_W@2@@std@@MAEGXZ 64026ed0 f i ui.obj
 0001:00025f40       ?seekoff@?$basic_stringbuf@_WU?$char_traits@_W@std@@V?$allocator@_W@2@@std@@MAE?AV?$fpos@H@2@_JHH@Z 64026f40 f i ui.obj
 0001:00026100       ?seekpos@?$basic_stringbuf@_WU?$char_traits@_W@std@@V?$allocator@_W@2@@std@@MAE?AV?$fpos@H@2@V32@H@Z 64027100 f i ui.obj
 0001:00026240       ??1?$vector@V?$vector@EV?$allocator@E@std@@@std@@V?$allocator@V?$vector@EV?$allocator@E@std@@@std@@@2@@std@@QAE@XZ 64027240 f i ui.obj
 0001:00026270       ?push_back@?$vector@V?$vector@EV?$allocator@E@std@@@std@@V?$allocator@V?$vector@EV?$allocator@E@std@@@std@@@2@@std@@QAEXABV?$vector@EV?$allocator@E@std@@@2@@Z 64027270 f i ui.obj
 0001:00026320       ??1?$vector@UDialogItem@Far@@V?$allocator@UDialogItem@Far@@@std@@@std@@QAE@XZ 64027320 f i ui.obj
 0001:00026320       ?_Tidy@?$vector@EV?$allocator@E@std@@@std@@IAEXXZ 64027320 f i archive.obj
 0001:00026320       ??1?$vector@UFarListItem@@V?$allocator@UFarListItem@@@std@@@std@@QAE@XZ 64027320 f i ui.obj
 0001:00026320       ??1?$vector@PB_WV?$allocator@PB_W@std@@@std@@QAE@XZ 64027320 f i update.obj
 0001:00026320       ?_Tidy@?$vector@IV?$allocator@I@std@@@std@@IAEXXZ 64027320 f i plugin.obj
 0001:00026320       ??1VersionEncoder@@QAE@XZ  64027320 f i rsrc.obj
 0001:00026320       ??1?$vector@EV?$allocator@E@std@@@std@@QAE@XZ 64027320 f i archive.obj
 0001:00026320       ??1?$_Vb_val@V?$allocator@_N@std@@@std@@QAE@XZ 64027320 f i msearch.obj
 0001:00026320       ??1?$vector@UStrPos@@V?$allocator@UStrPos@@@std@@@std@@QAE@XZ 64027320 f i open.obj
 0001:00026320       ??1?$vector@IV?$allocator@I@std@@@std@@QAE@XZ 64027320 f i plugin.obj
 0001:00026320       ?_Tidy@?$vector@UStrPos@@V?$allocator@UStrPos@@@std@@@std@@IAEXXZ 64027320 f i open.obj
 0001:00026320       ??1ArcEntry@@QAE@XZ        64027320 f i plugin.obj
 0001:00026320       ??1?$vector@UFarMenuItem@@V?$allocator@UFarMenuItem@@@std@@@std@@QAE@XZ 64027320 f i farutils.obj
 0001:00026350       ?push_back@?$vector@UFarListItem@@V?$allocator@UFarListItem@@@std@@@std@@QAEXABUFarListItem@@@Z 64027350 f i ui.obj
 0001:00026400       ??A?$map@IIU?$less@I@std@@V?$allocator@U?$pair@$$CBII@std@@@2@@std@@QAEAAIABI@Z 64027400 f i archive.obj
 0001:00026400       ??A?$map@IIU?$less@I@std@@V?$allocator@U?$pair@$$CBII@std@@@2@@std@@QAEAAI$$QAI@Z 64027400 f i ui.obj
 0001:00026480       ?find@?$_Tree@V?$_Tmap_traits@IIU?$less@I@std@@V?$allocator@U?$pair@$$CBII@std@@@2@$0A@@std@@@std@@QAE?AV?$_Tree_iterator@V?$_Tree_val@V?$_Tmap_traits@IIU?$less@I@std@@V?$allocator@U?$pair@$$CBII@std@@@2@$0A@@std@@@std@@@2@ABI@Z 64027480 f i ui.obj
 0001:000264e0       ??_G?$basic_ostringstream@_WU?$char_traits@_W@std@@V?$allocator@_W@2@@std@@UAEPAXI@Z 640274e0 f i ui.obj
 0001:000264e0       ??_E?$basic_ostringstream@_WU?$char_traits@_W@std@@V?$allocator@_W@2@@std@@UAEPAXI@Z 640274e0 f i  CIL library: CIL module
 0001:00026580       ??_E?$basic_stringbuf@_WU?$char_traits@_W@std@@V?$allocator@_W@2@@std@@UAEPAXI@Z 64027580 f i  CIL library: CIL module
 0001:00026580       ??_G?$basic_stringbuf@_WU?$char_traits@_W@std@@V?$allocator@_W@2@@std@@UAEPAXI@Z 64027580 f i ui.obj
 0001:000265a0       ??0?$basic_ostream@_WU?$char_traits@_W@std@@@std@@QAE@PAV?$basic_streambuf@_WU?$char_traits@_W@std@@@1@_N@Z 640275a0 f i ui.obj
 0001:00026640       ?replace@?$basic_string@_WU?$char_traits@_W@std@@V?$allocator@_W@2@@std@@QAEAAV12@IIABV12@II@Z 64027640 f i ui.obj
 0001:00026980       ?find_last_of@?$basic_string@_WU?$char_traits@_W@std@@V?$allocator@_W@2@@std@@QBEIPB_WII@Z 64027980 f i ui.obj
 0001:00026a00       ?_Construct_n@?$vector@IV?$allocator@I@std@@@std@@QAEXIPBI@Z 64027a00 f i ui.obj
 0001:00026a60       ?_Buy@?$vector@IV?$allocator@I@std@@@std@@IAE_NI@Z 64027a60 f i ui.obj
 0001:00026aa0       ?str@?$basic_stringbuf@_WU?$char_traits@_W@std@@V?$allocator@_W@2@@std@@QBE?AV?$basic_string@_WU?$char_traits@_W@std@@V?$allocator@_W@2@@2@XZ 64027aa0 f i ui.obj
 0001:00026c00       ?_Reserve@?$vector@V?$vector@EV?$allocator@E@std@@@std@@V?$allocator@V?$vector@EV?$allocator@E@std@@@std@@@2@@std@@IAEXI@Z 64027c00 f i ui.obj
 0001:00026c50       ?_Reserve@?$vector@UFarListItem@@V?$allocator@UFarListItem@@@std@@@std@@IAEXI@Z 64027c50 f i ui.obj
 0001:00026cc0       ?do_put@?$num_put@_WV?$ostreambuf_iterator@_WU?$char_traits@_W@std@@@std@@@std@@MBE?AV?$ostreambuf_iterator@_WU?$char_traits@_W@std@@@2@V32@AAVios_base@2@_W_N@Z 64027cc0 f i ui.obj
 0001:00026ef0       ?do_put@?$num_put@_WV?$ostreambuf_iterator@_WU?$char_traits@_W@std@@@std@@@std@@MBE?AV?$ostreambuf_iterator@_WU?$char_traits@_W@std@@@2@V32@AAVios_base@2@_WJ@Z 64027ef0 f i ui.obj
 0001:00026f70       ?do_put@?$num_put@_WV?$ostreambuf_iterator@_WU?$char_traits@_W@std@@@std@@@std@@MBE?AV?$ostreambuf_iterator@_WU?$char_traits@_W@std@@@2@V32@AAVios_base@2@_WK@Z 64027f70 f i ui.obj
 0001:00026ff0       ?do_put@?$num_put@_WV?$ostreambuf_iterator@_WU?$char_traits@_W@std@@@std@@@std@@MBE?AV?$ostreambuf_iterator@_WU?$char_traits@_W@std@@@2@V32@AAVios_base@2@_W_J@Z 64027ff0 f i ui.obj
 0001:00027080       ?do_put@?$num_put@_WV?$ostreambuf_iterator@_WU?$char_traits@_W@std@@@std@@@std@@MBE?AV?$ostreambuf_iterator@_WU?$char_traits@_W@std@@@2@V32@AAVios_base@2@_W_K@Z 64028080 f i ui.obj
 0001:00027110       ?do_put@?$num_put@_WV?$ostreambuf_iterator@_WU?$char_traits@_W@std@@@std@@@std@@MBE?AV?$ostreambuf_iterator@_WU?$char_traits@_W@std@@@2@V32@AAVios_base@2@_WN@Z 64028110 f i ui.obj
 0001:00027330       ?do_put@?$num_put@_WV?$ostreambuf_iterator@_WU?$char_traits@_W@std@@@std@@@std@@MBE?AV?$ostreambuf_iterator@_WU?$char_traits@_W@std@@@2@V32@AAVios_base@2@_WO@Z 64028330 f i ui.obj
 0001:00027540       ?do_put@?$num_put@_WV?$ostreambuf_iterator@_WU?$char_traits@_W@std@@@std@@@std@@MBE?AV?$ostreambuf_iterator@_WU?$char_traits@_W@std@@@2@V32@AAVios_base@2@_WPBX@Z 64028540 f i ui.obj
 0001:000275b0       ??_Efacet@locale@std@@UAEPAXI@Z 640285b0 f i  CIL library: CIL module
 0001:000275b0       ??_G?$num_put@_WV?$ostreambuf_iterator@_WU?$char_traits@_W@std@@@std@@@std@@MAEPAXI@Z 640285b0 f i ui.obj
 0001:000275b0       ??_Gfacet@locale@std@@UAEPAXI@Z 640285b0 f i ui.obj
 0001:000275b0       ??_E?$num_put@_WV?$ostreambuf_iterator@_WU?$char_traits@_W@std@@@std@@@std@@MAEPAXI@Z 640285b0 f i  CIL library: CIL module
 0001:000275d0       ??0?$basic_streambuf@_WU?$char_traits@_W@std@@@std@@IAE@XZ 640285d0 f i ui.obj
 0001:000276d0       ?reserve@?$vector@V?$vector@EV?$allocator@E@std@@@std@@V?$allocator@V?$vector@EV?$allocator@E@std@@@std@@@2@@std@@QAEXI@Z 640286d0 f i ui.obj
 0001:000277b0       ?_Destroy@?$vector@V?$vector@EV?$allocator@E@std@@@std@@V?$allocator@V?$vector@EV?$allocator@E@std@@@std@@@2@@std@@IAEXPAV?$vector@EV?$allocator@E@std@@@2@0@Z 640287b0 f i ui.obj
 0001:000277f0       ?reserve@?$vector@UFarListItem@@V?$allocator@UFarListItem@@@std@@@std@@QAEXI@Z 640287f0 f i ui.obj
 0001:000278e0       ?_Eqrange@?$_Tree@V?$_Tset_traits@V?$basic_string@_WU?$char_traits@_W@std@@V?$allocator@_W@2@@std@@UItemCompare@?1??show@MultiSelectDialog@@QAE_NXZ@V?$allocator@V?$basic_string@_WU?$char_traits@_W@std@@V?$allocator@_W@2@@std@@@2@$0A@@std@@@std@@IBE?AU?$pair@V?$_Tree_const_iterator@V?$_Tree_val@V?$_Tset_traits@V?$basic_string@_WU?$char_traits@_W@std@@V?$allocator@_W@2@@std@@UItemCompare@?1??show@MultiSelectDialog@@QAE_NXZ@V?$allocator@V?$basic_string@_WU?$char_traits@_W@std@@V?$allocator@_W@2@@std@@@2@$0A@@std@@@std@@@std@@V12@@2@ABV?$basic_string@_WU?$char_traits@_W@std@@V?$allocator@_W@2@@2@@Z 640288e0 f i ui.obj
 0001:00027980       ?_Fput@?$num_put@_WV?$ostreambuf_iterator@_WU?$char_traits@_W@std@@@std@@@std@@ABA?AV?$ostreambuf_iterator@_WU?$char_traits@_W@std@@@2@V32@AAVios_base@2@_WPBDIIII@Z 64028980 f i ui.obj
 0001:00028040       ?_Ifmt@?$num_put@_WV?$ostreambuf_iterator@_WU?$char_traits@_W@std@@@std@@@std@@ABAPADPADPBDH@Z 64029040 f i ui.obj
 0001:000280c0       ?_Iput@?$num_put@_WV?$ostreambuf_iterator@_WU?$char_traits@_W@std@@@std@@@std@@ABA?AV?$ostreambuf_iterator@_WU?$char_traits@_W@std@@@2@V32@AAVios_base@2@_WPADI@Z 640290c0 f i ui.obj
 0001:000283a0       ?_Put@?$num_put@_WV?$ostreambuf_iterator@_WU?$char_traits@_W@std@@@std@@@std@@ABA?AV?$ostreambuf_iterator@_WU?$char_traits@_W@std@@@2@V32@PB_WI@Z 640293a0 f i ui.obj
 0001:00028410       ?_Rep@?$num_put@_WV?$ostreambuf_iterator@_WU?$char_traits@_W@std@@@std@@@std@@ABA?AV?$ostreambuf_iterator@_WU?$char_traits@_W@std@@@2@V32@_WI@Z 64029410 f i ui.obj
 0001:00028480       ?falsename@?$numpunct@_W@std@@QBE?AV?$basic_string@_WU?$char_traits@_W@std@@V?$allocator@_W@2@@2@XZ 64029480 f i ui.obj
 0001:000284a0       ?truename@?$numpunct@_W@std@@QBE?AV?$basic_string@_WU?$char_traits@_W@std@@V?$allocator@_W@2@@2@XZ 640294a0 f i ui.obj
 0001:000284c0       ?do_decimal_point@?$numpunct@_W@std@@MBE_WXZ 640294c0 f i ui.obj
 0001:000284d0       ?do_thousands_sep@?$numpunct@_W@std@@MBE_WXZ 640294d0 f i ui.obj
 0001:000284e0       ?do_grouping@?$numpunct@_W@std@@MBE?AV?$basic_string@DU?$char_traits@D@std@@V?$allocator@D@2@@2@XZ 640294e0 f i ui.obj
 0001:00028530       ?do_falsename@?$numpunct@_W@std@@MBE?AV?$basic_string@_WU?$char_traits@_W@std@@V?$allocator@_W@2@@2@XZ 64029530 f i ui.obj
 0001:00028580       ?do_truename@?$numpunct@_W@std@@MBE?AV?$basic_string@_WU?$char_traits@_W@std@@V?$allocator@_W@2@@2@XZ 64029580 f i ui.obj
 0001:000285d0       ??_G?$numpunct@_W@std@@MAEPAXI@Z 640295d0 f i ui.obj
 0001:000285d0       ??_E?$numpunct@_W@std@@MAEPAXI@Z 640295d0 f i  CIL library: CIL module
 0001:00028620       ?append@?$basic_string@DU?$char_traits@D@std@@V?$allocator@D@2@@std@@QAEAAV12@ID@Z 64029620 f i ui.obj
 0001:000286e0       ?widen@?$basic_ios@_WU?$char_traits@_W@std@@@std@@QBE_WD@Z 640296e0 f i ui.obj
 0001:00028790       ?allocate@?$allocator@V?$vector@EV?$allocator@E@std@@@std@@@std@@QAEPAV?$vector@EV?$allocator@E@std@@@2@I@Z 64029790 f i ui.obj
 0001:00028790       ?allocate@?$allocator@VPropVariant@@@std@@QAEPAVPropVariant@@I@Z 64029790 f i update.obj
 0001:000287f0       ?allocate@?$allocator@UFarListItem@@@std@@QAEPAUFarListItem@@I@Z 640297f0 f i ui.obj
 0001:00028850       ?_Putc@?$num_put@_WV?$ostreambuf_iterator@_WU?$char_traits@_W@std@@@std@@@std@@ABA?AV?$ostreambuf_iterator@_WU?$char_traits@_W@std@@@2@V32@PBDI@Z 64029850 f i ui.obj
 0001:00028930       ?_Putgrouped@?$num_put@_WV?$ostreambuf_iterator@_WU?$char_traits@_W@std@@@std@@@std@@ABA?AV?$ostreambuf_iterator@_WU?$char_traits@_W@std@@@2@V32@PBDI_W@Z 64029930 f i ui.obj
 0001:000289e0       ?grouping@?$numpunct@_W@std@@QBE?AV?$basic_string@DU?$char_traits@D@std@@V?$allocator@D@2@@2@XZ 640299e0 f i ui.obj
 0001:00028a00       ?_Tidy@?$numpunct@_W@std@@AAEXXZ 64029a00 f i ui.obj
 0001:00028a20       ?_Lrotate@?$_Tree@V?$_Tset_traits@V?$basic_string@_WU?$char_traits@_W@std@@V?$allocator@_W@2@@std@@UItemCompare@?1??show@MultiSelectDialog@@QAE_NXZ@V?$allocator@V?$basic_string@_WU?$char_traits@_W@std@@V?$allocator@_W@2@@std@@@2@$0A@@std@@@std@@IAEXPAU_Node@?$_Tree_nod@V?$_Tset_traits@V?$basic_string@_WU?$char_traits@_W@std@@V?$allocator@_W@2@@std@@UItemCompare@?1??show@MultiSelectDialog@@QAE_NXZ@V?$allocator@V?$basic_string@_WU?$char_traits@_W@std@@V?$allocator@_W@2@@std@@@2@$0A@@std@@@2@@Z 64029a20 f i ui.obj
 0001:00028a20       ?_Lrotate@?$_Tree@V?$_Tset_traits@V?$basic_string@_WU?$char_traits@_W@std@@V?$allocator@_W@2@@std@@U?$less@V?$basic_string@_WU?$char_traits@_W@std@@V?$allocator@_W@2@@std@@@2@V?$allocator@V?$basic_string@_WU?$char_traits@_W@std@@V?$allocator@_W@2@@std@@@2@$0A@@std@@@std@@IAEXPAU_Node@?$_Tree_nod@V?$_Tset_traits@V?$basic_string@_WU?$char_traits@_W@std@@V?$allocator@_W@2@@std@@U?$less@V?$basic_string@_WU?$char_traits@_W@std@@V?$allocator@_W@2@@std@@@2@V?$allocator@V?$basic_string@_WU?$char_traits@_W@std@@V?$allocator@_W@2@@std@@@2@$0A@@std@@@2@@Z 64029a20 f i plugin.obj
 0001:00028a70       ?_Max@?$_Tree_val@V?$_Tset_traits@V?$basic_string@_WU?$char_traits@_W@std@@V?$allocator@_W@2@@std@@UItemCompare@?1??show@MultiSelectDialog@@QAE_NXZ@V?$allocator@V?$basic_string@_WU?$char_traits@_W@std@@V?$allocator@_W@2@@std@@@2@$0A@@std@@@std@@SAPAU_Node@?$_Tree_nod@V?$_Tset_traits@V?$basic_string@_WU?$char_traits@_W@std@@V?$allocator@_W@2@@std@@UItemCompare@?1??show@MultiSelectDialog@@QAE_NXZ@V?$allocator@V?$basic_string@_WU?$char_traits@_W@std@@V?$allocator@_W@2@@std@@@2@$0A@@std@@@2@PAU342@@Z 64029a70 f i ui.obj
 0001:00028a70       ?_Max@?$_Tree_val@V?$_Tset_traits@V?$basic_string@_WU?$char_traits@_W@std@@V?$allocator@_W@2@@std@@U?$less@V?$basic_string@_WU?$char_traits@_W@std@@V?$allocator@_W@2@@std@@@2@V?$allocator@V?$basic_string@_WU?$char_traits@_W@std@@V?$allocator@_W@2@@std@@@2@$0A@@std@@@std@@SAPAU_Node@?$_Tree_nod@V?$_Tset_traits@V?$basic_string@_WU?$char_traits@_W@std@@V?$allocator@_W@2@@std@@U?$less@V?$basic_string@_WU?$char_traits@_W@std@@V?$allocator@_W@2@@std@@@2@V?$allocator@V?$basic_string@_WU?$char_traits@_W@std@@V?$allocator@_W@2@@std@@@2@$0A@@std@@@2@PAU342@@Z 64029a70 f i plugin.obj
 0001:00028a90       ??E?$_Tree_unchecked_const_iterator@V?$_Tree_val@V?$_Tset_traits@V?$basic_string@_WU?$char_traits@_W@std@@V?$allocator@_W@2@@std@@U?$less@V?$basic_string@_WU?$char_traits@_W@std@@V?$allocator@_W@2@@std@@@2@V?$allocator@V?$basic_string@_WU?$char_traits@_W@std@@V?$allocator@_W@2@@std@@@2@$0A@@std@@@std@@U_Iterator_base0@2@@std@@QAEAAV01@XZ 64029a90 f i plugin.obj
 0001:00028a90       ??E?$_Tree_unchecked_const_iterator@V?$_Tree_val@V?$_Tset_traits@V?$basic_string@_WU?$char_traits@_W@std@@V?$allocator@_W@2@@std@@UItemCompare@?1??show@MultiSelectDialog@@QAE_NXZ@V?$allocator@V?$basic_string@_WU?$char_traits@_W@std@@V?$allocator@_W@2@@std@@@2@$0A@@std@@@std@@U_Iterator_base0@2@@std@@QAEAAV01@XZ 64029a90 f i ui.obj
 0001:00028ae0       ??$?8EV?$allocator@E@std@@@std@@YA_NABV?$vector@EV?$allocator@E@std@@@0@0@Z 64029ae0 f i ui.obj
 0001:00028b10       ??$?H_WU?$char_traits@_W@std@@V?$allocator@_W@1@@std@@YA?AV?$basic_string@_WU?$char_traits@_W@std@@V?$allocator@_W@2@@0@ABV10@_W@Z 64029b10 f i ui.obj
 0001:00028bd0       ??$?6_WU?$char_traits@_W@std@@V?$allocator@_W@1@@std@@YAAAV?$basic_ostream@_WU?$char_traits@_W@std@@@0@AAV10@ABV?$basic_string@_WU?$char_traits@_W@std@@V?$allocator@_W@2@@0@@Z 64029bd0 f i ui.obj
 0001:00028e80       ??$?6_WU?$char_traits@_W@std@@@std@@YAAAV?$basic_ostream@_WU?$char_traits@_W@std@@@0@AAV10@_W@Z 64029e80 f i ui.obj
 0001:00029140       ??$?H_WU?$char_traits@_W@std@@V?$allocator@_W@1@@std@@YA?AV?$basic_string@_WU?$char_traits@_W@std@@V?$allocator@_W@2@@0@$$QAV10@_W@Z 6402a140 f i ui.obj
 0001:00029180       ??$reset@VFileFilter@Far@@@?$shared_ptr@VFileFilter@Far@@@tr1@std@@QAEXPAVFileFilter@Far@@@Z 6402a180 f i ui.obj
 0001:000291f0       ??$insert@V?$_List_const_iterator@V?$_List_val@V?$basic_string@_WU?$char_traits@_W@std@@V?$allocator@_W@2@@std@@V?$allocator@V?$basic_string@_WU?$char_traits@_W@std@@V?$allocator@_W@2@@std@@@2@@std@@@std@@@?$_Tree@V?$_Tset_traits@V?$basic_string@_WU?$char_traits@_W@std@@V?$allocator@_W@2@@std@@UItemCompare@?1??show@MultiSelectDialog@@QAE_NXZ@V?$allocator@V?$basic_string@_WU?$char_traits@_W@std@@V?$allocator@_W@2@@std@@@2@$0A@@std@@@std@@QAEXV?$_List_const_iterator@V?$_List_val@V?$basic_string@_WU?$char_traits@_W@std@@V?$allocator@_W@2@@std@@V?$allocator@V?$basic_string@_WU?$char_traits@_W@std@@V?$allocator@_W@2@@std@@@2@@std@@@1@0@Z 6402a1f0 f i ui.obj
 0001:000292c0       ??$use_facet@V?$num_put@_WV?$ostreambuf_iterator@_WU?$char_traits@_W@std@@@std@@@std@@@std@@YAABV?$num_put@_WV?$ostreambuf_iterator@_WU?$char_traits@_W@std@@@std@@@0@ABVlocale@0@@Z 6402a2c0 f i ui.obj
 0001:00029410       ??$_Ucopy@PAI@?$vector@IV?$allocator@I@std@@@std@@IAEPAIPAI00@Z 6402a410 f i ui.obj
 0001:00029440       ??$use_facet@V?$numpunct@_W@std@@@std@@YAABV?$numpunct@_W@0@ABVlocale@0@@Z 6402a440 f i ui.obj
 0001:00029590       ?_Getcat@?$num_put@_WV?$ostreambuf_iterator@_WU?$char_traits@_W@std@@@std@@@std@@SAIPAPBVfacet@locale@2@PBV42@@Z 6402a590 f i ui.obj
 0001:00029650       ?_Getcat@?$numpunct@_W@std@@SAIPAPBVfacet@locale@2@PBV42@@Z 6402a650 f i ui.obj
 0001:00029720       ?insert@?$_Tree@V?$_Tset_traits@V?$basic_string@_WU?$char_traits@_W@std@@V?$allocator@_W@2@@std@@UItemCompare@?1??show@MultiSelectDialog@@QAE_NXZ@V?$allocator@V?$basic_string@_WU?$char_traits@_W@std@@V?$allocator@_W@2@@std@@@2@$0A@@std@@@std@@QAE?AU?$pair@V?$_Tree_const_iterator@V?$_Tree_val@V?$_Tset_traits@V?$basic_string@_WU?$char_traits@_W@std@@V?$allocator@_W@2@@std@@UItemCompare@?1??show@MultiSelectDialog@@QAE_NXZ@V?$allocator@V?$basic_string@_WU?$char_traits@_W@std@@V?$allocator@_W@2@@std@@@2@$0A@@std@@@std@@@std@@_N@2@ABV?$basic_string@_WU?$char_traits@_W@std@@V?$allocator@_W@2@@2@_N@Z 6402a720 f i ui.obj
 0001:00029810       ?_Init@?$numpunct@_W@std@@IAEXABV_Locinfo@2@_N@Z 6402a810 f i ui.obj
 0001:000299e0       ??$_For_each@PAUUpdateProfile@@V<lambda0>@?A0x80a7ab2d@@@std@@YA?AV<lambda0>@?A0x80a7ab2d@@PAUUpdateProfile@@0V12@@Z 6402a9e0 f i ui.obj
 0001:00029a60       ??$_Sort@PAV?$basic_string@_WU?$char_traits@_W@std@@V?$allocator@_W@2@@std@@HUItemCompare@?1??show@MultiSelectDialog@@QAE_NXZ@@std@@YAXPAV?$basic_string@_WU?$char_traits@_W@std@@V?$allocator@_W@2@@0@0HUItemCompare@?1??show@MultiSelectDialog@@QAE_NXZ@@Z 6402aa60 f i ui.obj
 0001:00029bb0       ??$_For_each@V?$_Tree_unchecked_const_iterator@V?$_Tree_val@V?$_Tmap_traits@V?$vector@EV?$allocator@E@std@@@std@@UArcFormat@@U?$less@V?$vector@EV?$allocator@E@std@@@std@@@2@V?$allocator@U?$pair@$$CBV?$vector@EV?$allocator@E@std@@@std@@UArcFormat@@@std@@@2@$0A@@std@@@std@@U_Iterator_base0@2@@std@@V<lambda2>@?A0x80a7ab2d@@@std@@YA?AV<lambda2>@?A0x80a7ab2d@@V?$_Tree_unchecked_const_iterator@V?$_Tree_val@V?$_Tmap_traits@V?$vector@EV?$allocator@E@std@@@std@@UArcFormat@@U?$less@V?$vector@EV?$allocator@E@std@@@std@@@2@V?$allocator@U?$pair@$$CBV?$vector@EV?$allocator@E@std@@@std@@UArcFormat@@@std@@@2@$0A@@std@@@std@@U_Iterator_base0@2@@0@0V12@@Z 6402abb0 f i ui.obj
 0001:00029cd0       ??$_For_each@V?$_Tree_unchecked_const_iterator@V?$_Tree_val@V?$_Tmap_traits@V?$vector@EV?$allocator@E@std@@@std@@UArcFormat@@U?$less@V?$vector@EV?$allocator@E@std@@@std@@@2@V?$allocator@U?$pair@$$CBV?$vector@EV?$allocator@E@std@@@std@@UArcFormat@@@std@@@2@$0A@@std@@@std@@U_Iterator_base0@2@@std@@V<lambda3>@?A0x80a7ab2d@@@std@@YA?AV<lambda3>@?A0x80a7ab2d@@V?$_Tree_unchecked_const_iterator@V?$_Tree_val@V?$_Tmap_traits@V?$vector@EV?$allocator@E@std@@@std@@UArcFormat@@U?$less@V?$vector@EV?$allocator@E@std@@@std@@@2@V?$allocator@U?$pair@$$CBV?$vector@EV?$allocator@E@std@@@std@@UArcFormat@@@std@@@2@$0A@@std@@@std@@U_Iterator_base0@2@@0@0V12@@Z 6402acd0 f i ui.obj
 0001:00029d60       ??$_Sort@PAV?$basic_string@_WU?$char_traits@_W@std@@V?$allocator@_W@2@@std@@HV<lambda4>@?A0x80a7ab2d@@@std@@YAXPAV?$basic_string@_WU?$char_traits@_W@std@@V?$allocator@_W@2@@0@0HV<lambda4>@?A0x80a7ab2d@@@Z 6402ad60 f i ui.obj
 0001:00029eb0       ??$_For_each@PAV?$basic_string@_WU?$char_traits@_W@std@@V?$allocator@_W@2@@std@@V<lambda5>@?A0x80a7ab2d@@@std@@YA?AV<lambda5>@?A0x80a7ab2d@@PAV?$basic_string@_WU?$char_traits@_W@std@@V?$allocator@_W@2@@0@0V12@@Z 6402aeb0 f i ui.obj
 0001:00029f10       ??$_For_each@V?$_List_unchecked_iterator@V?$_List_val@V?$basic_string@_WU?$char_traits@_W@std@@V?$allocator@_W@2@@std@@V?$allocator@V?$basic_string@_WU?$char_traits@_W@std@@V?$allocator@_W@2@@std@@@2@@std@@@std@@V<lambda6>@?A0x80a7ab2d@@@std@@YA?AV<lambda6>@?A0x80a7ab2d@@V?$_List_unchecked_iterator@V?$_List_val@V?$basic_string@_WU?$char_traits@_W@std@@V?$allocator@_W@2@@std@@V?$allocator@V?$basic_string@_WU?$char_traits@_W@std@@V?$allocator@_W@2@@std@@@2@@std@@@0@0V12@@Z 6402af10 f i ui.obj
 0001:00029f10       ??$_For_each@V?$_List_unchecked_iterator@V?$_List_val@V?$basic_string@_WU?$char_traits@_W@std@@V?$allocator@_W@2@@std@@V?$allocator@V?$basic_string@_WU?$char_traits@_W@std@@V?$allocator@_W@2@@std@@@2@@std@@@std@@V<lambda1>@?A0x80a7ab2d@@@std@@YA?AV<lambda1>@?A0x80a7ab2d@@V?$_List_unchecked_iterator@V?$_List_val@V?$basic_string@_WU?$char_traits@_W@std@@V?$allocator@_W@2@@std@@V?$allocator@V?$basic_string@_WU?$char_traits@_W@std@@V?$allocator@_W@2@@std@@@2@@std@@@0@0V12@@Z 6402af10 f i ui.obj
 0001:0002a030       ??$_For_each@V?$_List_unchecked_const_iterator@V?$_List_val@UAttr@@V?$allocator@UAttr@@@std@@@std@@U_Iterator_base0@2@@std@@V<lambda7>@?A0x80a7ab2d@@@std@@YA?AV<lambda7>@?A0x80a7ab2d@@V?$_List_unchecked_const_iterator@V?$_List_val@UAttr@@V?$allocator@UAttr@@@std@@@std@@U_Iterator_base0@2@@0@0V12@@Z 6402b030 f i ui.obj
 0001:0002a090       ??$_For_each@V?$_List_unchecked_const_iterator@V?$_List_val@UAttr@@V?$allocator@UAttr@@@std@@@std@@U_Iterator_base0@2@@std@@V<lambda8>@?A0x80a7ab2d@@@std@@YA?AV<lambda8>@?A0x80a7ab2d@@V?$_List_unchecked_const_iterator@V?$_List_val@UAttr@@V?$allocator@UAttr@@@std@@@std@@U_Iterator_base0@2@@0@0V12@@Z 6402b090 f i ui.obj
 0001:0002a120       ??$_Move@PAUUpdateProfile@@PAU1@@std@@YAPAUUpdateProfile@@PAU1@00U_Nonscalar_ptr_iterator_tag@0@@Z 6402b120 f i ui.obj
 0001:0002a170       ??$_Distance2@V?$_Tree_const_iterator@V?$_Tree_val@V?$_Tset_traits@V?$basic_string@_WU?$char_traits@_W@std@@V?$allocator@_W@2@@std@@U?$less@V?$basic_string@_WU?$char_traits@_W@std@@V?$allocator@_W@2@@std@@@2@V?$allocator@V?$basic_string@_WU?$char_traits@_W@std@@V?$allocator@_W@2@@std@@@2@$0A@@std@@@std@@@std@@I@std@@YAXV?$_Tree_const_iterator@V?$_Tree_val@V?$_Tset_traits@V?$basic_string@_WU?$char_traits@_W@std@@V?$allocator@_W@2@@std@@U?$less@V?$basic_string@_WU?$char_traits@_W@std@@V?$allocator@_W@2@@std@@@2@V?$allocator@V?$basic_string@_WU?$char_traits@_W@std@@V?$allocator@_W@2@@std@@@2@$0A@@std@@@std@@@0@0AAIUbidirectional_iterator_tag@0@@Z 6402b170 f i plugin.obj
 0001:0002a170       ??$_Distance2@V?$_Tree_const_iterator@V?$_Tree_val@V?$_Tset_traits@V?$basic_string@_WU?$char_traits@_W@std@@V?$allocator@_W@2@@std@@UItemCompare@?1??show@MultiSelectDialog@@QAE_NXZ@V?$allocator@V?$basic_string@_WU?$char_traits@_W@std@@V?$allocator@_W@2@@std@@@2@$0A@@std@@@std@@@std@@I@std@@YAXV?$_Tree_const_iterator@V?$_Tree_val@V?$_Tset_traits@V?$basic_string@_WU?$char_traits@_W@std@@V?$allocator@_W@2@@std@@UItemCompare@?1??show@MultiSelectDialog@@QAE_NXZ@V?$allocator@V?$basic_string@_WU?$char_traits@_W@std@@V?$allocator@_W@2@@std@@@2@$0A@@std@@@std@@@0@0AAIUbidirectional_iterator_tag@0@@Z 6402b170 f i ui.obj
 0001:0002a1e0       ??$_Buynode@U?$pair@II@std@@@?$_Tree_val@V?$_Tmap_traits@IIU?$less@I@std@@V?$allocator@U?$pair@$$CBII@std@@@2@$0A@@std@@@std@@QAEPAU_Node@?$_Tree_nod@V?$_Tmap_traits@IIU?$less@I@std@@V?$allocator@U?$pair@$$CBII@std@@@2@$0A@@std@@@1@$$QAU?$pair@II@1@@Z 6402b1e0 f i ui.obj
 0001:0002a1e0       ??$_Buynode@U?$pair@$$CBII@std@@@?$_Tree_val@V?$_Tmap_traits@IIU?$less@I@std@@V?$allocator@U?$pair@$$CBII@std@@@2@$0A@@std@@@std@@QAEPAU_Node@?$_Tree_nod@V?$_Tmap_traits@IIU?$less@I@std@@V?$allocator@U?$pair@$$CBII@std@@@2@$0A@@std@@@1@$$QAU?$pair@$$CBII@1@@Z 6402b1e0 f i archive.obj
 0001:0002a250       ??$_Destroy_range@V?$allocator@UUpdateProfile@@@std@@@std@@YAXPAUUpdateProfile@@0AAV?$allocator@UUpdateProfile@@@0@U_Nonscalar_ptr_iterator_tag@0@@Z 6402b250 f i ui.obj
 0001:0002a2a0       ??4ProfileOptions@@QAEAAU0@ABU0@@Z 6402b2a0 f i ui.obj
 0001:0002a3b0       ??$_Resetp@VFileFilter@Far@@@?$shared_ptr@VFileFilter@Far@@@tr1@std@@AAEXPAVFileFilter@Far@@@Z 6402b3b0 f i ui.obj
 0001:0002a470       ??$_Unguarded_partition@PAV?$basic_string@_WU?$char_traits@_W@std@@V?$allocator@_W@2@@std@@UItemCompare@?1??show@MultiSelectDialog@@QAE_NXZ@@std@@YA?AU?$pair@PAV?$basic_string@_WU?$char_traits@_W@std@@V?$allocator@_W@2@@std@@PAV12@@0@PAV?$basic_string@_WU?$char_traits@_W@std@@V?$allocator@_W@2@@0@0UItemCompare@?1??show@MultiSelectDialog@@QAE_NXZ@@Z 6402b470 f i ui.obj
 0001:0002a920       ??$_Unguarded_partition@PAV?$basic_string@_WU?$char_traits@_W@std@@V?$allocator@_W@2@@std@@V<lambda4>@?A0x80a7ab2d@@@std@@YA?AU?$pair@PAV?$basic_string@_WU?$char_traits@_W@std@@V?$allocator@_W@2@@std@@PAV12@@0@PAV?$basic_string@_WU?$char_traits@_W@std@@V?$allocator@_W@2@@0@0V<lambda4>@?A0x80a7ab2d@@@Z 6402b920 f i ui.obj
 0001:0002add0       ??$_Uninit_move@PAV?$vector@EV?$allocator@E@std@@@std@@PAV12@V?$allocator@V?$vector@EV?$allocator@E@std@@@std@@@2@V12@@std@@YAPAV?$vector@EV?$allocator@E@std@@@0@PAV10@00AAV?$allocator@V?$vector@EV?$allocator@E@std@@@std@@@0@0U_Nonscalar_ptr_iterator_tag@0@@Z 6402bdd0 f i ui.obj
 0001:0002ae50       ??$_Uninit_move@PAUFarListItem@@PAU1@V?$allocator@UFarListItem@@@std@@U1@@std@@YAPAUFarListItem@@PAU1@00AAV?$allocator@UFarListItem@@@0@0U_Nonscalar_ptr_iterator_tag@0@@Z 6402be50 f i ui.obj
 0001:0002ae90       ??_GFileFilter@Far@@QAEPAXI@Z 6402be90 f i ui.obj
 0001:0002aec0       ?_Destroy@?$_Ref_count@VFileFilter@Far@@@tr1@std@@EAEXXZ 6402bec0 f i ui.obj
 0001:0002aef0       ??$_Insert@V?$_List_const_iterator@V?$_List_val@V?$basic_string@_WU?$char_traits@_W@std@@V?$allocator@_W@2@@std@@V?$allocator@V?$basic_string@_WU?$char_traits@_W@std@@V?$allocator@_W@2@@std@@@2@@std@@@std@@@?$vector@V?$basic_string@_WU?$char_traits@_W@std@@V?$allocator@_W@2@@std@@V?$allocator@V?$basic_string@_WU?$char_traits@_W@std@@V?$allocator@_W@2@@std@@@2@@std@@QAEXV?$_Vector_const_iterator@V?$_Vector_val@V?$basic_string@_WU?$char_traits@_W@std@@V?$allocator@_W@2@@std@@V?$allocator@V?$basic_string@_WU?$char_traits@_W@std@@V?$allocator@_W@2@@std@@@2@@std@@@1@V?$_List_const_iterator@V?$_List_val@V?$basic_string@_WU?$char_traits@_W@std@@V?$allocator@_W@2@@std@@V?$allocator@V?$basic_string@_WU?$char_traits@_W@std@@V?$allocator@_W@2@@std@@@2@@std@@@1@1Uforward_iterator_tag@1@@Z 6402bef0 f i ui.obj
 0001:0002b0e0       ??$_Median@PAV?$basic_string@_WU?$char_traits@_W@std@@V?$allocator@_W@2@@std@@UItemCompare@?1??show@MultiSelectDialog@@QAE_NXZ@@std@@YAXPAV?$basic_string@_WU?$char_traits@_W@std@@V?$allocator@_W@2@@0@00UItemCompare@?1??show@MultiSelectDialog@@QAE_NXZ@@Z 6402c0e0 f i ui.obj
 0001:0002b1c0       ??$_Make_heap@PAV?$basic_string@_WU?$char_traits@_W@std@@V?$allocator@_W@2@@std@@HV12@UItemCompare@?1??show@MultiSelectDialog@@QAE_NXZ@@std@@YAXPAV?$basic_string@_WU?$char_traits@_W@std@@V?$allocator@_W@2@@0@0UItemCompare@?1??show@MultiSelectDialog@@QAE_NXZ@PAH0@Z 6402c1c0 f i ui.obj
 0001:0002b300       ??$_Sort_heap@PAV?$basic_string@_WU?$char_traits@_W@std@@V?$allocator@_W@2@@std@@UItemCompare@?1??show@MultiSelectDialog@@QAE_NXZ@@std@@YAXPAV?$basic_string@_WU?$char_traits@_W@std@@V?$allocator@_W@2@@0@0UItemCompare@?1??show@MultiSelectDialog@@QAE_NXZ@@Z 6402c300 f i ui.obj
 0001:0002b360       ??$_Insertion_sort1@PAV?$basic_string@_WU?$char_traits@_W@std@@V?$allocator@_W@2@@std@@UItemCompare@?1??show@MultiSelectDialog@@QAE_NXZ@V12@@std@@YAXPAV?$basic_string@_WU?$char_traits@_W@std@@V?$allocator@_W@2@@0@0UItemCompare@?1??show@MultiSelectDialog@@QAE_NXZ@0@Z 6402c360 f i ui.obj
 0001:0002b590       ??$_Median@PAV?$basic_string@_WU?$char_traits@_W@std@@V?$allocator@_W@2@@std@@V<lambda4>@?A0x80a7ab2d@@@std@@YAXPAV?$basic_string@_WU?$char_traits@_W@std@@V?$allocator@_W@2@@0@00V<lambda4>@?A0x80a7ab2d@@@Z 6402c590 f i ui.obj
 0001:0002b670       ??$_Make_heap@PAV?$basic_string@_WU?$char_traits@_W@std@@V?$allocator@_W@2@@std@@HV12@V<lambda4>@?A0x80a7ab2d@@@std@@YAXPAV?$basic_string@_WU?$char_traits@_W@std@@V?$allocator@_W@2@@0@0V<lambda4>@?A0x80a7ab2d@@PAH0@Z 6402c670 f i ui.obj
 0001:0002b7b0       ??$_Sort_heap@PAV?$basic_string@_WU?$char_traits@_W@std@@V?$allocator@_W@2@@std@@V<lambda4>@?A0x80a7ab2d@@@std@@YAXPAV?$basic_string@_WU?$char_traits@_W@std@@V?$allocator@_W@2@@0@0V<lambda4>@?A0x80a7ab2d@@@Z 6402c7b0 f i ui.obj
 0001:0002b810       ??$_Insertion_sort1@PAV?$basic_string@_WU?$char_traits@_W@std@@V?$allocator@_W@2@@std@@V<lambda4>@?A0x80a7ab2d@@V12@@std@@YAXPAV?$basic_string@_WU?$char_traits@_W@std@@V?$allocator@_W@2@@0@0V<lambda4>@?A0x80a7ab2d@@0@Z 6402c810 f i ui.obj
 0001:0002ba40       ??$_Move@PAV?$basic_string@_WU?$char_traits@_W@std@@V?$allocator@_W@2@@std@@PAV12@@std@@YAPAV?$basic_string@_WU?$char_traits@_W@std@@V?$allocator@_W@2@@0@PAV10@00U_Nonscalar_ptr_iterator_tag@0@@Z 6402ca40 f i ui.obj
 0001:0002bad0       ??$_Dest_val@V?$allocator@UUpdateProfile@@@std@@UUpdateProfile@@@std@@YAXAAV?$allocator@UUpdateProfile@@@0@PAUUpdateProfile@@@Z 6402cad0 f i ui.obj
 0001:0002bad0       ??1UpdateProfile@@QAE@XZ   6402cad0 f i ui.obj
 0001:0002bb00       ??$rotate@PAV?$basic_string@_WU?$char_traits@_W@std@@V?$allocator@_W@2@@std@@@std@@YAPAV?$basic_string@_WU?$char_traits@_W@std@@V?$allocator@_W@2@@0@PAV10@00@Z 6402cb00 f i ui.obj
 0001:0002bb40       ??$_Med3@PAV?$basic_string@_WU?$char_traits@_W@std@@V?$allocator@_W@2@@std@@UItemCompare@?1??show@MultiSelectDialog@@QAE_NXZ@@std@@YAXPAV?$basic_string@_WU?$char_traits@_W@std@@V?$allocator@_W@2@@0@00UItemCompare@?1??show@MultiSelectDialog@@QAE_NXZ@@Z 6402cb40 f i ui.obj
 0001:0002bca0       ??$_Adjust_heap@PAV?$basic_string@_WU?$char_traits@_W@std@@V?$allocator@_W@2@@std@@HV12@UItemCompare@?1??show@MultiSelectDialog@@QAE_NXZ@@std@@YAXPAV?$basic_string@_WU?$char_traits@_W@std@@V?$allocator@_W@2@@0@HH$$QAV10@UItemCompare@?1??show@MultiSelectDialog@@QAE_NXZ@@Z 6402cca0 f i ui.obj
 0001:0002be00       ??$_Med3@PAV?$basic_string@_WU?$char_traits@_W@std@@V?$allocator@_W@2@@std@@V<lambda4>@?A0x80a7ab2d@@@std@@YAXPAV?$basic_string@_WU?$char_traits@_W@std@@V?$allocator@_W@2@@0@00V<lambda4>@?A0x80a7ab2d@@@Z 6402ce00 f i ui.obj
 0001:0002bf60       ??$_Adjust_heap@PAV?$basic_string@_WU?$char_traits@_W@std@@V?$allocator@_W@2@@std@@HV12@V<lambda4>@?A0x80a7ab2d@@@std@@YAXPAV?$basic_string@_WU?$char_traits@_W@std@@V?$allocator@_W@2@@0@HH$$QAV10@V<lambda4>@?A0x80a7ab2d@@@Z 6402cf60 f i ui.obj
 0001:0002c0c0       ??$_Pop_heap_0@PAV?$basic_string@_WU?$char_traits@_W@std@@V?$allocator@_W@2@@std@@V12@UItemCompare@?1??show@MultiSelectDialog@@QAE_NXZ@@std@@YAXPAV?$basic_string@_WU?$char_traits@_W@std@@V?$allocator@_W@2@@0@0UItemCompare@?1??show@MultiSelectDialog@@QAE_NXZ@0@Z 6402d0c0 f i ui.obj
 0001:0002c190       ??$_Move_backward@PAV?$basic_string@_WU?$char_traits@_W@std@@V?$allocator@_W@2@@std@@PAV12@@std@@YAPAV?$basic_string@_WU?$char_traits@_W@std@@V?$allocator@_W@2@@0@PAV10@00U_Nonscalar_ptr_iterator_tag@0@@Z 6402d190 f i ui.obj
 0001:0002c210       ??$_Push_heap@PAV?$basic_string@_WU?$char_traits@_W@std@@V?$allocator@_W@2@@std@@HV12@UItemCompare@?1??show@MultiSelectDialog@@QAE_NXZ@@std@@YAXPAV?$basic_string@_WU?$char_traits@_W@std@@V?$allocator@_W@2@@0@HH$$QAV10@UItemCompare@?1??show@MultiSelectDialog@@QAE_NXZ@@Z 6402d210 f i ui.obj
 0001:0002c210       ??$_Push_heap@PAV?$basic_string@_WU?$char_traits@_W@std@@V?$allocator@_W@2@@std@@HV12@V<lambda4>@?A0x80a7ab2d@@@std@@YAXPAV?$basic_string@_WU?$char_traits@_W@std@@V?$allocator@_W@2@@0@HH$$QAV10@V<lambda4>@?A0x80a7ab2d@@@Z 6402d210 f i ui.obj
 0001:0002c480       ??$_Pop_heap_0@PAV?$basic_string@_WU?$char_traits@_W@std@@V?$allocator@_W@2@@std@@V12@V<lambda4>@?A0x80a7ab2d@@@std@@YAXPAV?$basic_string@_WU?$char_traits@_W@std@@V?$allocator@_W@2@@0@0V<lambda4>@?A0x80a7ab2d@@0@Z 6402d480 f i ui.obj
 0001:0002c550       ??$_Uninit_copy@V?$_List_const_iterator@V?$_List_val@V?$basic_string@_WU?$char_traits@_W@std@@V?$allocator@_W@2@@std@@V?$allocator@V?$basic_string@_WU?$char_traits@_W@std@@V?$allocator@_W@2@@std@@@2@@std@@@std@@PAV?$basic_string@_WU?$char_traits@_W@std@@V?$allocator@_W@2@@2@V?$allocator@V?$basic_string@_WU?$char_traits@_W@std@@V?$allocator@_W@2@@std@@@2@@std@@YAPAV?$basic_string@_WU?$char_traits@_W@std@@V?$allocator@_W@2@@0@V?$_List_const_iterator@V?$_List_val@V?$basic_string@_WU?$char_traits@_W@std@@V?$allocator@_W@2@@std@@V?$allocator@V?$basic_string@_WU?$char_traits@_W@std@@V?$allocator@_W@2@@std@@@2@@std@@@0@0PAV10@AAV?$allocator@V?$basic_string@_WU?$char_traits@_W@std@@V?$allocator@_W@2@@std@@@0@U_Nonscalar_ptr_iterator_tag@0@@Z 6402d550 f i ui.obj
 0001:0002c610       ??$_Rotate@PAV?$basic_string@_WU?$char_traits@_W@std@@V?$allocator@_W@2@@std@@HV12@@std@@YAXPAV?$basic_string@_WU?$char_traits@_W@std@@V?$allocator@_W@2@@0@00PAH0@Z 6402d610 f i ui.obj
 0001:0002c7c0       ?_Equal@std@@YA_NPBE00@Z   6402d7c0 f i ui.obj
 0001:0002c840       ??$_Maklocstr@_W@std@@YAPA_WPBDPA_WABU_Cvtvec@@@Z 6402d840 f i ui.obj
 0001:0002c900       ??_E?$ctype@_W@std@@MAEPAXI@Z 6402d900 f i  CIL library: CIL module
 0001:0002c900       ??_G?$ctype@_W@std@@MAEPAXI@Z 6402d900 f i ui.obj
 0001:0002c940       ?do_is@?$ctype@_W@std@@MBEPB_WPB_W0PAF@Z 6402d940 f i ui.obj
 0001:0002c960       ?do_scan_is@?$ctype@_W@std@@MBEPB_WFPB_W0@Z 6402d960 f i ui.obj
 0001:0002c9a0       ?do_is@?$ctype@_W@std@@MBE_NF_W@Z 6402d9a0 f i ui.obj
 0001:0002c9d0       ?do_scan_not@?$ctype@_W@std@@MBEPB_WFPB_W0@Z 6402d9d0 f i ui.obj
 0001:0002ca10       ?do_tolower@?$ctype@_W@std@@MBEPB_WPA_WPB_W@Z 6402da10 f i ui.obj
 0001:0002ca50       ?do_tolower@?$ctype@_W@std@@MBE_W_W@Z 6402da50 f i ui.obj
 0001:0002ca70       ?do_toupper@?$ctype@_W@std@@MBEPB_WPA_WPB_W@Z 6402da70 f i ui.obj
 0001:0002cab0       ?do_toupper@?$ctype@_W@std@@MBE_W_W@Z 6402dab0 f i ui.obj
 0001:0002cad0       ?do_widen@?$ctype@_W@std@@MBEPBDPBD0PA_W@Z 6402dad0 f i ui.obj
 0001:0002cb40       ?do_widen@?$ctype@_W@std@@MBE_WD@Z 6402db40 f i ui.obj
 0001:0002cb90       ?do_narrow@?$ctype@_W@std@@MBEPB_WPB_W0DPAD@Z 6402db90 f i ui.obj
 0001:0002cc10       ?do_narrow@?$ctype@_W@std@@MBED_WD@Z 6402dc10 f i ui.obj
 0001:0002cc60       ??0?$ctype@_W@std@@QAE@ABV_Locinfo@1@I@Z 6402dc60 f i ui.obj
 0001:0002ccb0       ??0_Locinfo@std@@QAE@PBD@Z 6402dcb0 f i ui.obj
 0001:0002cd60       ??1?$_Yarn@D@std@@QAE@XZ   6402dd60 f i ui.obj
 0001:0002cd80       ??1_Locinfo@std@@QAE@XZ    6402dd80 f i ui.obj
 0001:0002ce30       ?_Getcat@?$ctype@_W@std@@SAIPAPBVfacet@locale@2@PBV42@@Z 6402de30 f i ui.obj
 0001:0002cee0       ??$use_facet@V?$ctype@_W@std@@@std@@YAABV?$ctype@_W@0@ABVlocale@0@@Z 6402dee0 f i ui.obj
 0001:0002d030       ?_Chassign@?$basic_string@DU?$char_traits@D@std@@V?$allocator@D@2@@std@@QAEXIID@Z 6402e030 f i ui.obj
 0001:0002d060       ?insert@?$basic_string@DU?$char_traits@D@std@@V?$allocator@D@2@@std@@QAEAAV12@IID@Z 6402e060 f i ui.obj
 0001:0002d140       ?_Init@ios_base@std@@IAEXXZ 6402e140 f i ui.obj
 0001:0002d1d0       ??_G?$basic_streambuf@_WU?$char_traits@_W@std@@@std@@UAEPAXI@Z 6402e1d0 f i ui.obj
 0001:0002d1d0       ??_E?$basic_streambuf@_WU?$char_traits@_W@std@@@std@@UAEPAXI@Z 6402e1d0 f i  CIL library: CIL module
 0001:0002d1f0       ?pbackfail@?$basic_streambuf@_WU?$char_traits@_W@std@@@std@@MAEGG@Z 6402e1f0 f i ui.obj
 0001:0002d1f0       ?overflow@?$basic_streambuf@_WU?$char_traits@_W@std@@@std@@MAEGG@Z 6402e1f0 f i ui.obj
 0001:0002d200       ?showmanyc@?$basic_streambuf@_WU?$char_traits@_W@std@@@std@@MAE_JXZ 6402e200 f i ui.obj
 0001:0002d210       ?_Gnavail@?$basic_streambuf@_WU?$char_traits@_W@std@@@std@@IBE_JXZ 6402e210 f i ui.obj
 0001:0002d230       ?underflow@?$basic_streambuf@_WU?$char_traits@_W@std@@@std@@MAEGXZ 6402e230 f i ui.obj
 0001:0002d240       ?uflow@?$basic_streambuf@_WU?$char_traits@_W@std@@@std@@MAEGXZ 6402e240 f i ui.obj
 0001:0002d270       ?xsgetn@?$basic_streambuf@_WU?$char_traits@_W@std@@@std@@MAE_JPA_W_J@Z 6402e270 f i ui.obj
 0001:0002d370       ?_Pnavail@?$basic_streambuf@_WU?$char_traits@_W@std@@@std@@IBE_JXZ 6402e370 f i ui.obj
 0001:0002d390       ?xsputn@?$basic_streambuf@_WU?$char_traits@_W@std@@@std@@MAE_JPB_W_J@Z 6402e390 f i ui.obj
 0001:0002d480       ?seekoff@?$basic_streambuf@_WU?$char_traits@_W@std@@@std@@MAE?AV?$fpos@H@2@_JHH@Z 6402e480 f i ui.obj
 0001:0002d4b0       ?seekpos@?$basic_streambuf@_WU?$char_traits@_W@std@@@std@@MAE?AV?$fpos@H@2@V32@H@Z 6402e4b0 f i ui.obj
 0001:0002d4e0       ?setbuf@?$basic_streambuf@_WU?$char_traits@_W@std@@@std@@MAEPAV12@PA_W_J@Z 6402e4e0 f i ui.obj
 0001:0002d4f0       ?imbue@?$basic_streambuf@_WU?$char_traits@_W@std@@@std@@MAEXABVlocale@2@@Z 6402e4f0 f i ui.obj
 0001:0002d500       ??1?$basic_streambuf@_WU?$char_traits@_W@std@@@std@@UAE@XZ 6402e500 f i ui.obj
 0001:0002d570       ??_G?$basic_ostream@_WU?$char_traits@_W@std@@@std@@UAEPAXI@Z 6402e570 f i ui.obj
 0001:0002d570       ??_E?$basic_ostream@_WU?$char_traits@_W@std@@@std@@UAEPAXI@Z 6402e570 f i  CIL library: CIL module
 0001:0002d5b0       ??1?$basic_ostream@_WU?$char_traits@_W@std@@@std@@UAE@XZ 6402e5b0 f i ui.obj
 0001:0002d5c0       ?_Incref@facet@locale@std@@QAEXXZ 6402e5c0 f i ui.obj
 0001:0002d5f0       ?_Decref@facet@locale@std@@QAEPAV123@XZ 6402e5f0 f i ui.obj
 0001:0002d630       ??1facet@locale@std@@UAE@XZ 6402e630 f i ui.obj
 0001:0002d640       ??1locale@std@@QAE@XZ      6402e640 f i ui.obj
 0001:0002d690       ?getloc@ios_base@std@@QBE?AVlocale@2@XZ 6402e690 f i ui.obj
 0001:0002d6c0       ?_Osfx@?$basic_ostream@_WU?$char_traits@_W@std@@@std@@QAEXXZ 6402e6c0 f i ui.obj
 0001:0002d770       ??1sentry@?$basic_ostream@_WU?$char_traits@_W@std@@@std@@QAE@XZ 6402e770 f i ui.obj
 0001:0002d7f0       ?_Lock@?$basic_streambuf@_WU?$char_traits@_W@std@@@std@@UAEXXZ 6402e7f0 f i ui.obj
 0001:0002d800       ?_Unlock@?$basic_streambuf@_WU?$char_traits@_W@std@@@std@@UAEXXZ 6402e800 f i ui.obj
 0001:0002d810       ??1_Sentry_base@?$basic_ostream@_WU?$char_traits@_W@std@@@std@@QAE@XZ 6402e810 f i ui.obj
 0001:0002d830       ?sync@?$basic_streambuf@_WU?$char_traits@_W@std@@@std@@MAEHXZ 6402e830 f i ui.obj
 0001:0002d840       ??0failure@ios_base@std@@QAE@ABV012@@Z 6402e840 f i ui.obj
 0001:0002d870       ??0system_error@std@@QAE@ABV01@@Z 6402e870 f i ui.obj
 0001:0002d8a0       ??0runtime_error@std@@QAE@ABV01@@Z 6402e8a0 f i ui.obj
 0001:0002d8c0       ?clear@ios_base@std@@QAEXH_N@Z 6402e8c0 f i ui.obj
 0001:0002d9a0       ?flush@?$basic_ostream@_WU?$char_traits@_W@std@@@std@@QAEAAV12@XZ 6402e9a0 f i ui.obj
 0001:0002da00       ??_G?$basic_ios@_WU?$char_traits@_W@std@@@std@@UAEPAXI@Z 6402ea00 f i ui.obj
 0001:0002da00       ??_E?$basic_ios@_WU?$char_traits@_W@std@@@std@@UAEPAXI@Z 6402ea00 f i  CIL library: CIL module
 0001:0002da00       ??_Eios_base@std@@UAEPAXI@Z 6402ea00 f i  CIL library: CIL module
 0001:0002da00       ??_Gios_base@std@@UAEPAXI@Z 6402ea00 f i ui.obj
 0001:0002da30       ??1?$basic_ios@_WU?$char_traits@_W@std@@@std@@UAE@XZ 6402ea30 f i ui.obj
 0001:0002da40       ??1DisableSleepMode@@QAE@XZ 6402ea40 f i extract.obj
 0001:0002da50       ??1ComBase@@UAE@XZ         6402ea50 f i extract.obj
 0001:0002da60       ??_EComBase@@UAEPAXI@Z     6402ea60 f i  CIL library: CIL module
 0001:0002da60       ??_GComBase@@UAEPAXI@Z     6402ea60 f i extract.obj
 0001:0002da80       ??1BStr@@QAE@XZ            6402ea80 f i extract.obj
 0001:0002daa0       ??0BStr@@QAE@ABV?$basic_string@_WU?$char_traits@_W@std@@V?$allocator@_W@2@@std@@@Z 6402eaa0 f i extract.obj
 0001:0002db40       ?get_progress_bar_str@@YA?AV?$basic_string@_WU?$char_traits@_W@std@@V?$allocator@_W@2@@std@@III@Z 6402eb40 f   extract.obj
 0001:0002dca0       ?do_update_ui@ExtractProgress@@EAEXXZ 6402eca0 f i extract.obj
 0001:0002e4f0       ??0ExtractProgress@@QAE@ABV?$basic_string@_WU?$char_traits@_W@std@@V?$allocator@_W@2@@std@@@Z 6402f4f0 f i extract.obj
 0001:0002e620       ??_EExtractProgress@@UAEPAXI@Z 6402f620 f i  CIL library: CIL module
 0001:0002e620       ??_GExtractProgress@@UAEPAXI@Z 6402f620 f i extract.obj
 0001:0002e640       ??1ExtractProgress@@UAE@XZ 6402f640 f i extract.obj
 0001:0002e6f0       ?create_file@FileWriteCache@@AAEXXZ 6402f6f0 f i extract.obj
 0001:0002e8a0       ?allocate_file@FileWriteCache@@AAEXXZ 6402f8a0 f i extract.obj
 0001:0002e9b0       ?write_file@FileWriteCache@@AAEXXZ 6402f9b0 f i extract.obj
 0001:0002eae0       ?close_file@FileWriteCache@@AAEXXZ 6402fae0 f i extract.obj
 0001:0002ec60       ?write@FileWriteCache@@AAEXXZ 6402fc60 f i extract.obj
 0001:0002ecf0       ?store@FileWriteCache@@AAEXPBEI@Z 6402fcf0 f i extract.obj
 0001:0002ee20       ??0FileWriteCache@@QAE@V?$shared_ptr@VArchive@@@tr1@std@@V?$shared_ptr@_N@23@V?$shared_ptr@V?$list@UError@@V?$allocator@UError@@@std@@@std@@@23@V?$shared_ptr@VExtractProgress@@@23@@Z 6402fe20 f i extract.obj
 0001:0002f130       ??1FileWriteCache@@QAE@XZ  64030130 f i extract.obj
 0001:0002f340       ?store_file@FileWriteCache@@QAEXABV?$basic_string@_WU?$char_traits@_W@std@@V?$allocator@_W@2@@std@@IW4OverwriteAction@@@Z 64030340 f i extract.obj
 0001:0002f420       ?store_data@FileWriteCache@@QAEXPBEI@Z 64030420 f i extract.obj
 0001:0002f5a0       ??0CachedFileExtractStream@@QAE@V?$shared_ptr@VFileWriteCache@@@tr1@std@@@Z 640305a0 f i extract.obj
 0001:0002f660       ?QueryInterface@CachedFileExtractStream@@UAGJABU_GUID@@PAPAX@Z 64030660 f i extract.obj
 0001:0002f6f0       ?Write@CachedFileExtractStream@@UAGJPBXIPAI@Z 640306f0 f i extract.obj
 0001:0002f7d0       ??_GCachedFileExtractStream@@UAEPAXI@Z 640307d0 f i extract.obj
 0001:0002f7d0       ??_ECachedFileExtractStream@@UAEPAXI@Z 640307d0 f i  CIL library: CIL module
 0001:0002f860       ??4Error@@QAEAAU0@ABU0@@Z  64030860 f i extract.obj
 0001:0002f8b0       ??0ArchiveExtractor@@QAE@IABV?$basic_string@_WU?$char_traits@_W@std@@V?$allocator@_W@2@@std@@V?$shared_ptr@VArchive@@@tr1@2@V?$shared_ptr@W4OverwriteAction@@@42@V?$shared_ptr@_N@42@V?$shared_ptr@V?$list@UError@@V?$allocator@UError@@@std@@@std@@@42@V?$shared_ptr@VFileWriteCache@@@42@V?$shared_ptr@VExtractProgress@@@42@V?$shared_ptr@V?$set@IU?$less@I@std@@V?$allocator@I@2@@std@@@42@@Z 640308b0 f i extract.obj
 0001:0002fbe0       ?QueryInterface@ArchiveTester@@UAGJABU_GUID@@PAPAX@Z 64030be0 f i test.obj
 0001:0002fbe0       ?QueryInterface@ArchiveExtractor@@UAGJABU_GUID@@PAPAX@Z 64030be0 f i extract.obj
 0001:0002fcb0       ?SetTotal@ArchiveExtractor@@UAGJ_K@Z 64030cb0 f i extract.obj
 0001:0002fd10       ?SetCompleted@ArchiveExtractor@@UAGJPB_K@Z 64030d10 f i extract.obj
 0001:0002fdf0       ?GetStream@ArchiveExtractor@@UAGJIPAPAUISequentialOutStream@@H@Z 64030df0 f i extract.obj
 0001:00030210       ?PrepareOperation@ArchiveExtractor@@UAGJH@Z 64031210 f i extract.obj
 0001:00030210       ?PrepareOperation@ArchiveTester@@UAGJH@Z 64031210 f i test.obj
 0001:00030210       ?SetOperationResult@ArchiveFileDeleter@@UAGJH@Z 64031210 f i delete.obj
 0001:00030250       ?SetOperationResult@ArchiveExtractor@@UAGJH@Z 64031250 f i extract.obj
 0001:00030530       ?CryptoGetTextPassword@ArchiveExtractor@@UAGJPAPA_W@Z 64031530 f i extract.obj
 0001:000306e0       ??_EArchiveExtractor@@UAEPAXI@Z 640316e0 f i  CIL library: CIL module
 0001:000306e0       ??_GArchiveExtractor@@UAEPAXI@Z 640316e0 f i extract.obj
 0001:00030700       ??1ArchiveExtractor@@UAE@XZ 64031700 f i extract.obj
 0001:00030940       ?prepare_dst_dir@Archive@@AAEXABV?$basic_string@_WU?$char_traits@_W@std@@V?$allocator@_W@2@@std@@@Z 64031940 f   extract.obj
 0001:00030a40       ?do_update_ui@PrepareExtract@@EAEXXZ 64031a40 f i extract.obj
 0001:00030c20       ??0PrepareExtract@@QAE@ABU?$pair@V?$_Vector_const_iterator@V?$_Vector_val@IV?$allocator@I@std@@@std@@@std@@V12@@std@@ABV?$basic_string@_WU?$char_traits@_W@std@@V?$allocator@_W@2@@2@AAVArchive@@AAV?$list@IV?$allocator@I@std@@@2@AA_NAAV?$list@UError@@V?$allocator@UError@@@std@@@2@@Z 64031c20 f i extract.obj
 0001:00030d20       ??R<lambda1>@?A0xd401d377@@QBEXI@Z 64031d20 f i extract.obj
 0001:00030f10       ?do_update_ui@SetDirAttr@@EAEXXZ 64031f10 f i extract.obj
 0001:000310f0       ??0SetDirAttr@@QAE@ABU?$pair@V?$_Vector_const_iterator@V?$_Vector_val@IV?$allocator@I@std@@@std@@@std@@V12@@std@@ABV?$basic_string@_WU?$char_traits@_W@std@@V?$allocator@_W@2@@2@AAVArchive@@AA_NAAV?$list@UError@@V?$allocator@UError@@@std@@@2@@Z 640320f0 f i extract.obj
 0001:000311f0       ??R<lambda2>@?A0xd401d377@@QBEXI@Z 640321f0 f i extract.obj
 0001:00031460       ?extract@Archive@@QAEXIABV?$vector@IV?$allocator@I@std@@@std@@ABUExtractOptions@@V?$shared_ptr@V?$list@UError@@V?$allocator@UError@@@std@@@std@@@tr1@3@PAV23@@Z 64032460 f   extract.obj
 0001:00031eb0       ??R<lambda3>@?A0xd401d377@@QBEXABV?$basic_string@_WU?$char_traits@_W@std@@V?$allocator@_W@2@@std@@@Z 64032eb0 f i extract.obj
 0001:00031fe0       ??0?$vector@IV?$allocator@I@std@@@std@@QAE@ABV01@@Z 64032fe0 f i extract.obj
 0001:000320a0       ?shrink_to_fit@?$vector@IV?$allocator@I@std@@@std@@QAEXXZ 640330a0 f i extract.obj
 0001:00032130       ?shared_from_this@?$enable_shared_from_this@VArchive@@@tr1@std@@QAE?AV?$shared_ptr@VArchive@@@23@XZ 64033130 f i extract.obj
 0001:00032160       ??1?$shared_ptr@X@tr1@std@@QAE@XZ 64033160 f i plugin.obj
 0001:00032160       ??1?$shared_ptr@VArchiveFileDeleterProgress@@@tr1@std@@QAE@XZ 64033160 f i delete.obj
 0001:00032160       ??1?$shared_ptr@VArchiveUpdateProgress@@@tr1@std@@QAE@XZ 64033160 f i update.obj
 0001:00032160       ??1?$shared_ptr@VArchive@@@tr1@std@@QAE@XZ 64033160 f i plugin.obj
 0001:00032160       ??1?$shared_ptr@V?$map@IUFileIndexInfo@@U?$less@I@std@@V?$allocator@U?$pair@$$CBIUFileIndexInfo@@@std@@@3@@std@@@tr1@std@@QAE@XZ 64033160 f i update.obj
 0001:00032160       ??1?$shared_ptr@VProgressMonitor@@@tr1@std@@QAE@XZ 64033160 f i delete.obj
 0001:00032160       ??1?$shared_ptr@V?$set@IU?$less@I@std@@V?$allocator@I@2@@std@@@tr1@std@@QAE@XZ 64033160 f i extract.obj
 0001:00032160       ??1?$shared_ptr@V?$list@UError@@V?$allocator@UError@@@std@@@std@@@tr1@std@@QAE@XZ 64033160 f i plugin.obj
 0001:00032160       ??1?$shared_ptr@VFileWriteCache@@@tr1@std@@QAE@XZ 64033160 f i extract.obj
 0001:00032160       ??1?$shared_ptr@W4OverwriteAction@@@tr1@std@@QAE@XZ 64033160 f i extract.obj
 0001:00032160       ??1?$shared_ptr@VExtractProgress@@@tr1@std@@QAE@XZ 64033160 f i extract.obj
 0001:00032160       ??1?$shared_ptr@_N@tr1@std@@QAE@XZ 64033160 f i extract.obj
 0001:000321a0       ?_Assign_n@?$list@UCacheRecord@FileWriteCache@@V?$allocator@UCacheRecord@FileWriteCache@@@std@@@std@@QAEXIABUCacheRecord@FileWriteCache@@@Z 640331a0 f i extract.obj
 0001:00032260       ?_Insert_n@?$list@UCacheRecord@FileWriteCache@@V?$allocator@UCacheRecord@FileWriteCache@@@std@@@std@@QAEXV?$_List_const_iterator@V?$_List_val@UCacheRecord@FileWriteCache@@V?$allocator@UCacheRecord@FileWriteCache@@@std@@@std@@@2@IABUCacheRecord@FileWriteCache@@@Z 64033260 f i extract.obj
 0001:00032320       ?_Buynode@?$_List_val@UCacheRecord@FileWriteCache@@V?$allocator@UCacheRecord@FileWriteCache@@@std@@@std@@QAEPAU_Node@?$_List_nod@UCacheRecord@FileWriteCache@@V?$allocator@UCacheRecord@FileWriteCache@@@std@@@2@PAU342@0ABUCacheRecord@FileWriteCache@@@Z 64033320 f i extract.obj
 0001:00032410       ?_Buynode@?$_List_val@IV?$allocator@I@std@@@std@@QAEPAU_Node@?$_List_nod@IV?$allocator@I@std@@@2@PAU342@0ABI@Z 64033410 f i extract.obj
 0001:00032480       ??$?6_WU?$char_traits@_W@std@@@std@@YAAAV?$basic_ostream@_WU?$char_traits@_W@std@@@0@AAV10@PB_W@Z 64033480 f i extract.obj
 0001:00032750       ??$reset@V?$set@IU?$less@I@std@@V?$allocator@I@2@@std@@@?$shared_ptr@V?$set@IU?$less@I@std@@V?$allocator@I@2@@std@@@tr1@std@@QAEXPAV?$set@IU?$less@I@std@@V?$allocator@I@2@@2@@Z 64033750 f i extract.obj
 0001:000327c0       ?_Linsert@?$_Tree@V?$_Tset_traits@IU?$less@I@std@@V?$allocator@I@2@$0A@@std@@@std@@QAE?AU?$pair@V?$_Tree_const_iterator@V?$_Tree_val@V?$_Tset_traits@IU?$less@I@std@@V?$allocator@I@2@$0A@@std@@@std@@@std@@_N@2@PAU_Node@?$_Tree_nod@V?$_Tset_traits@IU?$less@I@std@@V?$allocator@I@2@$0A@@std@@@2@_N@Z 640337c0 f i extract.obj
 0001:00032890       ??$_For_each@V?$_List_unchecked_iterator@V?$_List_val@UCacheRecord@FileWriteCache@@V?$allocator@UCacheRecord@FileWriteCache@@@std@@@std@@@std@@V<lambda0>@?A0xd401d377@@@std@@YA?AV<lambda0>@?A0xd401d377@@V?$_List_unchecked_iterator@V?$_List_val@UCacheRecord@FileWriteCache@@V?$allocator@UCacheRecord@FileWriteCache@@@std@@@std@@@0@0V12@@Z 64033890 f i extract.obj
 0001:00032970       ??$_Resetp@_N@?$shared_ptr@_N@tr1@std@@AAEXPA_N@Z 64033970 f i extract.obj
 0001:00032a30       ??$_Resetp@W4OverwriteAction@@@?$shared_ptr@W4OverwriteAction@@@tr1@std@@AAEXPAW4OverwriteAction@@@Z 64033a30 f i extract.obj
 0001:00032af0       ??$_Sort@PAIH@std@@YAXPAI0H@Z 64033af0 f i extract.obj
 0001:00032bc0       ??$_Resetp@VExtractProgress@@@?$shared_ptr@VExtractProgress@@@tr1@std@@AAEXPAVExtractProgress@@@Z 64033bc0 f i extract.obj
 0001:00032c80       ??$_Resetp@VFileWriteCache@@@?$shared_ptr@VFileWriteCache@@@tr1@std@@AAEXPAVFileWriteCache@@@Z 64033c80 f i extract.obj
 0001:00032d50       ??$_Set_difference@PAIV?$_Tree_unchecked_const_iterator@V?$_Tree_val@V?$_Tset_traits@IU?$less@I@std@@V?$allocator@I@2@$0A@@std@@@std@@U_Iterator_base0@2@@std@@V?$back_insert_iterator@V?$vector@IV?$allocator@I@std@@@std@@@2@@std@@YA?AV?$back_insert_iterator@V?$vector@IV?$allocator@I@std@@@std@@@0@PAI0V?$_Tree_unchecked_const_iterator@V?$_Tree_val@V?$_Tset_traits@IU?$less@I@std@@V?$allocator@I@2@$0A@@std@@@std@@U_Iterator_base0@2@@0@1V10@@Z 64033d50 f i extract.obj
 0001:00032f40       ??$_For_each@V?$_Tree_unchecked_const_iterator@V?$_Tree_val@V?$_Tset_traits@V?$basic_string@_WU?$char_traits@_W@std@@V?$allocator@_W@2@@std@@U?$less@V?$basic_string@_WU?$char_traits@_W@std@@V?$allocator@_W@2@@std@@@2@V?$allocator@V?$basic_string@_WU?$char_traits@_W@std@@V?$allocator@_W@2@@std@@@2@$0A@@std@@@std@@U_Iterator_base0@2@@std@@V<lambda3>@?A0xd401d377@@@std@@YA?AV<lambda3>@?A0xd401d377@@V?$_Tree_unchecked_const_iterator@V?$_Tree_val@V?$_Tset_traits@V?$basic_string@_WU?$char_traits@_W@std@@V?$allocator@_W@2@@std@@U?$less@V?$basic_string@_WU?$char_traits@_W@std@@V?$allocator@_W@2@@std@@@2@V?$allocator@V?$basic_string@_WU?$char_traits@_W@std@@V?$allocator@_W@2@@std@@@2@$0A@@std@@@std@@U_Iterator_base0@2@@0@0V12@@Z 64033f40 f i extract.obj
 0001:00032fd0       ?_Destroy@?$_Ref_count@_N@tr1@std@@EAEXXZ 64033fd0 f i extract.obj
 0001:00032fd0       ?_Destroy@?$_Ref_count@W4OverwriteAction@@@tr1@std@@EAEXXZ 64033fd0 f i extract.obj
 0001:00032fe0       ?_Delete_this@?$_Ref_count@VFileFilter@Far@@@tr1@std@@EAEXXZ 64033fe0 f i ui.obj
 0001:00032fe0       ?_Delete_this@?$_Ref_count@_N@tr1@std@@EAEXXZ 64033fe0 f i extract.obj
 0001:00032fe0       ?_Delete_this@?$_Ref_count@VArchiveUpdateProgress@@@tr1@std@@EAEXXZ 64033fe0 f i update.obj
 0001:00032fe0       ?_Delete_this@?$_Ref_count@V?$list@UError@@V?$allocator@UError@@@std@@@std@@@tr1@std@@EAEXXZ 64033fe0 f i plugin.obj
 0001:00032fe0       ?_Delete_this@?$_Ref_count@VArchive@@@tr1@std@@EAEXXZ 64033fe0 f i plugin.obj
 0001:00032fe0       ?_Delete_this@?$_Ref_count@VArchiveFileDeleterProgress@@@tr1@std@@EAEXXZ 64033fe0 f i delete.obj
 0001:00032fe0       ?_Delete_this@?$_Ref_count@VExtractProgress@@@tr1@std@@EAEXXZ 64033fe0 f i extract.obj
 0001:00032fe0       ?_Delete_this@?$_Ref_count@V?$set@IU?$less@I@std@@V?$allocator@I@2@@std@@@tr1@std@@EAEXXZ 64033fe0 f i extract.obj
 0001:00032fe0       ?_Delete_this@?$_Ref_count_del@XV<lambda11>@?A0xc5e9a1c5@@@tr1@std@@EAEXXZ 64033fe0 f i plugin.obj
 0001:00032fe0       ?_Delete_this@?$_Ref_count@V?$map@IUFileIndexInfo@@U?$less@I@std@@V?$allocator@U?$pair@$$CBIUFileIndexInfo@@@std@@@3@@std@@@tr1@std@@EAEXXZ 64033fe0 f i update.obj
 0001:00032fe0       ?_Delete_this@?$_Ref_count@W4OverwriteAction@@@tr1@std@@EAEXXZ 64033fe0 f i extract.obj
 0001:00032fe0       ?_Delete_this@?$_Ref_count@VFileWriteCache@@@tr1@std@@EAEXXZ 64033fe0 f i extract.obj
 0001:00032ff0       ?_Destroy@?$_Ref_count@VFileWriteCache@@@tr1@std@@EAEXXZ 64033ff0 f i extract.obj
 0001:00033010       ??$_Copy_impl@V?$_List_unchecked_iterator@V?$_List_val@IV?$allocator@I@std@@@std@@@std@@V?$back_insert_iterator@V?$vector@IV?$allocator@I@std@@@std@@@2@@std@@YA?AV?$back_insert_iterator@V?$vector@IV?$allocator@I@std@@@std@@@0@V?$_List_unchecked_iterator@V?$_List_val@IV?$allocator@I@std@@@std@@@0@0V10@U_Nonscalar_ptr_iterator_tag@0@@Z 64034010 f i extract.obj
 0001:00033110       ??$_Unguarded_partition@PAI@std@@YA?AU?$pair@PAIPAI@0@PAI0@Z 64034110 f i extract.obj
 0001:00033250       ??$_Resetp@V?$set@IU?$less@I@std@@V?$allocator@I@2@@std@@@?$shared_ptr@V?$set@IU?$less@I@std@@V?$allocator@I@2@@std@@@tr1@std@@AAEXPAV?$set@IU?$less@I@std@@V?$allocator@I@2@@2@@Z 64034250 f i extract.obj
 0001:00033310       ??$_Uninit_copy@V?$_Vector_const_iterator@V?$_Vector_val@IV?$allocator@I@std@@@std@@@std@@PAIV?$allocator@I@2@@std@@YAPAIV?$_Vector_const_iterator@V?$_Vector_val@IV?$allocator@I@std@@@std@@@0@0PAIAAV?$allocator@I@0@U_Nonscalar_ptr_iterator_tag@0@@Z 64034310 f i extract.obj
 0001:00033340       ??_G?$set@IU?$less@I@std@@V?$allocator@I@2@@std@@QAEPAXI@Z 64034340 f i extract.obj
 0001:000333b0       ?_Destroy@?$_Ref_count@V?$set@IU?$less@I@std@@V?$allocator@I@2@@std@@@tr1@std@@EAEXXZ 640343b0 f i extract.obj
 0001:00033420       ??$_Median@PAI@std@@YAXPAI00@Z 64034420 f i extract.obj
 0001:00033540       ??$_Make_heap@PAIHI@std@@YAXPAI0PAH0@Z 64034540 f i extract.obj
 0001:000335e0       ??$_Sort_heap@PAI@std@@YAXPAI0@Z 640345e0 f i extract.obj
 0001:00033670       ??$_Insertion_sort1@PAII@std@@YAXPAI00@Z 64034670 f i extract.obj
 0001:000336e0       ??$_Copy_impl@PAIV?$back_insert_iterator@V?$vector@IV?$allocator@I@std@@@std@@@std@@@std@@YA?AV?$back_insert_iterator@V?$vector@IV?$allocator@I@std@@@std@@@0@PAI0V10@U_Nonscalar_ptr_iterator_tag@0@@Z 640346e0 f i extract.obj
 0001:000337e0       ??_EArchiveExtractor@@W7AEPAXI@Z 640347e0 f i extract.obj
 0001:000337f0       ??_ECachedFileExtractStream@@W3AEPAXI@Z 640347f0 f i extract.obj
 0001:00033800       ?AddRef@ArchiveUpdater@@W3AGKXZ 64034800 f i update.obj
 0001:00033800       ?AddRef@ArchiveExtractor@@W3AGKXZ 64034800 f i extract.obj
 0001:00033800       ?AddRef@ArchiveTester@@W3AGKXZ 64034800 f i test.obj
 0001:00033810       ?QueryInterface@ArchiveExtractor@@W3AGJABU_GUID@@PAPAX@Z 64034810 f i extract.obj
 0001:00033810       ?QueryInterface@ArchiveTester@@W3AGJABU_GUID@@PAPAX@Z 64034810 f i test.obj
 0001:00033820       ?QueryInterface@CachedFileExtractStream@@W3AGJABU_GUID@@PAPAX@Z 64034820 f i extract.obj
 0001:00033830       ?Release@ArchiveTester@@W3AGKXZ 64034830 f i test.obj
 0001:00033830       ?Release@ArchiveExtractor@@W3AGKXZ 64034830 f i extract.obj
 0001:00033830       ?Release@ArchiveUpdater@@W3AGKXZ 64034830 f i update.obj
 0001:00033840       _IsEqualGUID               64034840 f i extract.obj
 0001:000338b0       ?detach@PropVariant@@QAEXPAUtagPROPVARIANT@@@Z 640348b0 f i open.obj
 0001:00033960       ??4PropVariant@@QAEAAV0@PB_W@Z 64034960 f i open.obj
 0001:00033a20       ??4PropVariant@@QAEAAV0@_N@Z 64034a20 f i open.obj
 0001:00033a50       ??4PropVariant@@QAEAAV0@_K@Z 64034a50 f i open.obj
 0001:00033a80       ??4PropVariant@@QAEAAV0@ABU_FILETIME@@@Z 64034a80 f i open.obj
 0001:00033ab0       ??0OpenOptions@@QAE@XZ     64034ab0 f   open.obj
 0001:00033b60       ?check_device_file@ArchiveOpenStream@@AAEXXZ 64034b60 f i open.obj
 0001:00033ce0       ??0ArchiveOpenStream@@QAE@ABV?$basic_string@_WU?$char_traits@_W@std@@V?$allocator@_W@2@@std@@@Z 64034ce0 f i open.obj
 0001:00033d70       ?QueryInterface@FileReadStream@@UAGJABU_GUID@@PAPAX@Z 64034d70 f i update.obj
 0001:00033d70       ?QueryInterface@ArchiveOpenStream@@UAGJABU_GUID@@PAPAX@Z 64034d70 f i open.obj
 0001:00033e10       ?Release@ArchiveOpenStream@@UAGKXZ 64034e10 f i open.obj
 0001:00033e10       ?Release@ArchiveFileDeleter@@UAGKXZ 64034e10 f i delete.obj
 0001:00033e10       ?Release@FileReadStream@@UAGKXZ 64034e10 f i update.obj
 0001:00033e10       ?Release@CachedFileExtractStream@@UAGKXZ 64034e10 f i extract.obj
 0001:00033e10       ?Release@ArchiveFileDeleterStream@@UAGKXZ 64034e10 f i delete.obj
 0001:00033e30       ?Read@ArchiveOpenStream@@UAGJPAXIPAI@Z 64034e30 f i open.obj
 0001:00033fe0       ?Seek@ArchiveOpenStream@@UAGJ_JIPA_K@Z 64034fe0 f i open.obj
 0001:00034180       ?get_info@ArchiveOpenStream@@QAE?AUFindData@@XZ 64035180 f i open.obj
 0001:000342a0       ??_EArchiveOpenStream@@UAEPAXI@Z 640352a0 f i  CIL library: CIL module
 0001:000342a0       ??_GArchiveOpenStream@@UAEPAXI@Z 640352a0 f i open.obj
 0001:00034300       ?do_update_ui@ArchiveOpener@@EAEXXZ 64035300 f i open.obj
 0001:00034780       ??0ArchiveOpener@@QAE@V?$shared_ptr@VArchive@@@tr1@std@@@Z 64035780 f i open.obj
 0001:00034910       ?QueryInterface@ArchiveOpener@@UAGJABU_GUID@@PAPAX@Z 64035910 f i open.obj
 0001:00034a00       ?AddRef@SimpleUpdateStream@@UAGKXZ 64035a00 f i update.obj
 0001:00034a00       ?AddRef@SfxUpdateStream@@UAGKXZ 64035a00 f i update.obj
 0001:00034a00       ?AddRef@MultiVolumeUpdateStream@@UAGKXZ 64035a00 f i update.obj
 0001:00034a00       ?AddRef@ArchiveOpener@@UAGKXZ 64035a00 f i open.obj
 0001:00034a10       ?Release@ArchiveOpener@@UAGKXZ 64035a10 f i open.obj
 0001:00034a30       ?SetTotal@ArchiveOpener@@UAGJPB_K0@Z 64035a30 f i open.obj
 0001:00034b20       ?SetCompleted@ArchiveOpener@@UAGJPB_K0@Z 64035b20 f i open.obj
 0001:00034c10       ?GetProperty@ArchiveOpener@@UAGJKPAUtagPROPVARIANT@@@Z 64035c10 f i open.obj
 0001:00034e20       ?GetStream@ArchiveOpener@@UAGJPB_WPAPAUIInStream@@@Z 64035e20 f i open.obj
 0001:00035060       ?CryptoGetTextPassword@ArchiveOpener@@UAGJPAPA_W@Z 64036060 f i open.obj
 0001:00035220       ??_EArchiveOpener@@UAEPAXI@Z 64036220 f i  CIL library: CIL module
 0001:00035220       ??_GArchiveOpener@@UAEPAXI@Z 64036220 f i open.obj
 0001:000352c0       ?get_stream@Archive@@QAE_NIPAPAUIInStream@@@Z 640362c0 f   open.obj
 0001:00035420       ?open@Archive@@AAE_NPAUIInStream@@ABV?$vector@EV?$allocator@E@std@@@std@@@Z 64036420 f   open.obj
 0001:00035730       ?prioritize@@YAXAAV?$list@UArcEntry@@V?$allocator@UArcEntry@@@std@@@std@@ABV?$vector@EV?$allocator@E@std@@@2@1@Z 64036730 f   open.obj
 0001:00035810       ?detect@Archive@@CA?AV?$list@UArcEntry@@V?$allocator@UArcEntry@@@std@@@std@@PAUIInStream@@ABV?$basic_string@_WU?$char_traits@_W@std@@V?$allocator@_W@2@@3@ABV?$list@V?$vector@EV?$allocator@E@std@@@std@@V?$allocator@V?$vector@EV?$allocator@E@std@@@std@@@2@@3@@Z 64036810 f   open.obj
 0001:00035c10       ??1?$set@V?$vector@EV?$allocator@E@std@@@std@@U?$less@V?$vector@EV?$allocator@E@std@@@std@@@2@V?$allocator@V?$vector@EV?$allocator@E@std@@@std@@@2@@std@@QAE@XZ 64036c10 f i open.obj
 0001:00035c70       ?open@Archive@@CAXABUOpenOptions@@AAV?$vector@V?$shared_ptr@VArchive@@@tr1@std@@V?$allocator@V?$shared_ptr@VArchive@@@tr1@std@@@3@@std@@@Z 64036c70 f   open.obj
 0001:000361c0       ?open@Archive@@SA?AV?$unique_ptr@V?$vector@V?$shared_ptr@VArchive@@@tr1@std@@V?$allocator@V?$shared_ptr@VArchive@@@tr1@std@@@3@@std@@U?$default_delete@V?$vector@V?$shared_ptr@VArchive@@@tr1@std@@V?$allocator@V?$shared_ptr@VArchive@@@tr1@std@@@3@@std@@@2@@std@@ABUOpenOptions@@@Z 640371c0 f   open.obj
 0001:00036280       ?reopen@Archive@@QAEXXZ    64037280 f   open.obj
 0001:000365a0       ?close@Archive@@QAEXXZ     640375a0 f   open.obj
 0001:00036640       ??6?$basic_ostream@_WU?$char_traits@_W@std@@@std@@QAEAAV01@_K@Z 64037640 f i open.obj
 0001:00036830       ?erase@?$list@V?$vector@EV?$allocator@E@std@@@std@@V?$allocator@V?$vector@EV?$allocator@E@std@@@std@@@2@@std@@QAE?AV?$_List_iterator@V?$_List_val@V?$vector@EV?$allocator@E@std@@@std@@V?$allocator@V?$vector@EV?$allocator@E@std@@@std@@@2@@std@@@2@V?$_List_const_iterator@V?$_List_val@V?$vector@EV?$allocator@E@std@@@std@@V?$allocator@V?$vector@EV?$allocator@E@std@@@std@@@2@@std@@@2@@Z 64037830 f i archive.obj
 0001:00036830       ?erase@?$list@UArcEntry@@V?$allocator@UArcEntry@@@std@@@std@@QAE?AV?$_List_iterator@V?$_List_val@UArcEntry@@V?$allocator@UArcEntry@@@std@@@std@@@2@V?$_List_const_iterator@V?$_List_val@UArcEntry@@V?$allocator@UArcEntry@@@std@@@std@@@2@@Z 64037830 f i open.obj
 0001:000368a0       ??1?$ComObject@UIInStream@@@@QAE@XZ 640378a0 f i open.obj
 0001:000368a0       ??1?$ComObject@UIOutStream@@@@QAE@XZ 640378a0 f i update.obj
 0001:000368a0       ??1?$ComObject@UIArchiveExtractCallback@@@@QAE@XZ 640378a0 f i extract.obj
 0001:000368a0       ??1?$ComObject@UIArchiveUpdateCallback@@@@QAE@XZ 640378a0 f i update.obj
 0001:000368a0       ??1?$ComObject@UISetProperties@@@@QAE@XZ 640378a0 f i update.obj
 0001:000368a0       ??1?$ComObject@UISequentialInStream@@@@QAE@XZ 640378a0 f i open.obj
 0001:000368a0       ??1?$ComObject@UIInArchiveGetStream@@@@QAE@XZ 640378a0 f i open.obj
 0001:000368a0       ??1?$ComObject@UIOutArchive@@@@QAE@XZ 640378a0 f i update.obj
 0001:000368a0       ??1?$ComObject@UIInArchive@@@@QAE@XZ 640378a0 f i plugin.obj
 0001:000368a0       ??1?$ComObject@UIArchiveOpenCallback@@@@QAE@XZ 640378a0 f i open.obj
 0001:000368c0       ?push_back@?$vector@V?$shared_ptr@VArchive@@@tr1@std@@V?$allocator@V?$shared_ptr@VArchive@@@tr1@std@@@3@@std@@QAEXABV?$shared_ptr@VArchive@@@tr1@2@@Z 640378c0 f i open.obj
 0001:00036990       ?insert@?$_Tree@V?$_Tset_traits@V?$vector@EV?$allocator@E@std@@@std@@U?$less@V?$vector@EV?$allocator@E@std@@@std@@@2@V?$allocator@V?$vector@EV?$allocator@E@std@@@std@@@2@$0A@@std@@@std@@QAE?AU?$pair@V?$_Tree_const_iterator@V?$_Tree_val@V?$_Tset_traits@V?$vector@EV?$allocator@E@std@@@std@@U?$less@V?$vector@EV?$allocator@E@std@@@std@@@2@V?$allocator@V?$vector@EV?$allocator@E@std@@@std@@@2@$0A@@std@@@std@@@std@@_N@2@ABV?$vector@EV?$allocator@E@std@@@2@_N@Z 64037990 f i open.obj
 0001:00036a90       ?_Reserve@?$vector@V?$shared_ptr@VArchive@@@tr1@std@@V?$allocator@V?$shared_ptr@VArchive@@@tr1@std@@@3@@std@@IAEXI@Z 64037a90 f i open.obj
 0001:00036ae0       ?_Buynode@?$_List_val@UArcEntry@@V?$allocator@UArcEntry@@@std@@@std@@QAEPAU_Node@?$_List_nod@UArcEntry@@V?$allocator@UArcEntry@@@std@@@2@PAU342@0ABUArcEntry@@@Z 64037ae0 f i open.obj
 0001:00036ae0       ??$_Buynode@UArcEntry@@@?$_List_val@UArcEntry@@V?$allocator@UArcEntry@@@std@@@std@@QAEPAU_Node@?$_List_nod@UArcEntry@@V?$allocator@UArcEntry@@@std@@@1@PAU231@0$$QAUArcEntry@@@Z 64037ae0 f i open.obj
 0001:00036ae0       ??$_Buynode@AAUArcEntry@@@?$_List_val@UArcEntry@@V?$allocator@UArcEntry@@@std@@@std@@QAEPAU_Node@?$_List_nod@UArcEntry@@V?$allocator@UArcEntry@@@std@@@1@PAU231@0AAUArcEntry@@@Z 64037ae0 f i open.obj
 0001:00036bb0       ?_Copy@?$_Tree@V?$_Tset_traits@V?$basic_string@_WU?$char_traits@_W@std@@V?$allocator@_W@2@@std@@U?$less@V?$basic_string@_WU?$char_traits@_W@std@@V?$allocator@_W@2@@std@@@2@V?$allocator@V?$basic_string@_WU?$char_traits@_W@std@@V?$allocator@_W@2@@std@@@2@$0A@@std@@@std@@IAEXABV12@@Z 64037bb0 f i open.obj
 0001:00036c20       ?erase@?$_Tree@V?$_Tset_traits@V?$vector@EV?$allocator@E@std@@@std@@U?$less@V?$vector@EV?$allocator@E@std@@@std@@@2@V?$allocator@V?$vector@EV?$allocator@E@std@@@std@@@2@$0A@@std@@@std@@QAE?AV?$_Tree_const_iterator@V?$_Tree_val@V?$_Tset_traits@V?$vector@EV?$allocator@E@std@@@std@@U?$less@V?$vector@EV?$allocator@E@std@@@std@@@2@V?$allocator@V?$vector@EV?$allocator@E@std@@@std@@@2@$0A@@std@@@std@@@2@V32@0@Z 64037c20 f i open.obj
 0001:00036ce0       ?_Eqrange@?$_Tree@V?$_Tset_traits@V?$vector@EV?$allocator@E@std@@@std@@U?$less@V?$vector@EV?$allocator@E@std@@@std@@@2@V?$allocator@V?$vector@EV?$allocator@E@std@@@std@@@2@$0A@@std@@@std@@IBE?AU?$pair@V?$_Tree_const_iterator@V?$_Tree_val@V?$_Tset_traits@V?$vector@EV?$allocator@E@std@@@std@@U?$less@V?$vector@EV?$allocator@E@std@@@std@@@2@V?$allocator@V?$vector@EV?$allocator@E@std@@@std@@@2@$0A@@std@@@std@@@std@@V12@@2@ABV?$vector@EV?$allocator@E@std@@@2@@Z 64037ce0 f i open.obj
 0001:00036dd0       ?reserve@?$vector@V?$shared_ptr@VArchive@@@tr1@std@@V?$allocator@V?$shared_ptr@VArchive@@@tr1@std@@@3@@std@@QAEXI@Z 64037dd0 f i open.obj
 0001:00036eb0       ?_Copy@?$_Tree@V?$_Tset_traits@V?$basic_string@_WU?$char_traits@_W@std@@V?$allocator@_W@2@@std@@U?$less@V?$basic_string@_WU?$char_traits@_W@std@@V?$allocator@_W@2@@std@@@2@V?$allocator@V?$basic_string@_WU?$char_traits@_W@std@@V?$allocator@_W@2@@std@@@2@$0A@@std@@@std@@IAEPAU_Node@?$_Tree_nod@V?$_Tset_traits@V?$basic_string@_WU?$char_traits@_W@std@@V?$allocator@_W@2@@std@@U?$less@V?$basic_string@_WU?$char_traits@_W@std@@V?$allocator@_W@2@@std@@@2@V?$allocator@V?$basic_string@_WU?$char_traits@_W@std@@V?$allocator@_W@2@@std@@@2@$0A@@std@@@2@PAU342@0@Z 64037eb0 f i open.obj
 0001:00036f70       ?erase@?$_Tree@V?$_Tset_traits@V?$vector@EV?$allocator@E@std@@@std@@U?$less@V?$vector@EV?$allocator@E@std@@@std@@@2@V?$allocator@V?$vector@EV?$allocator@E@std@@@std@@@2@$0A@@std@@@std@@QAE?AV?$_Tree_const_iterator@V?$_Tree_val@V?$_Tset_traits@V?$vector@EV?$allocator@E@std@@@std@@U?$less@V?$vector@EV?$allocator@E@std@@@std@@@2@V?$allocator@V?$vector@EV?$allocator@E@std@@@std@@@2@$0A@@std@@@std@@@2@V32@@Z 64037f70 f i open.obj
 0001:000371f0       ?_Insert@?$_Tree@V?$_Tset_traits@V?$vector@EV?$allocator@E@std@@@std@@U?$less@V?$vector@EV?$allocator@E@std@@@std@@@2@V?$allocator@V?$vector@EV?$allocator@E@std@@@std@@@2@$0A@@std@@@std@@IAE?AV?$_Tree_const_iterator@V?$_Tree_val@V?$_Tset_traits@V?$vector@EV?$allocator@E@std@@@std@@U?$less@V?$vector@EV?$allocator@E@std@@@std@@@2@V?$allocator@V?$vector@EV?$allocator@E@std@@@std@@@2@$0A@@std@@@std@@@2@_NPAU_Node@?$_Tree_nod@V?$_Tset_traits@V?$vector@EV?$allocator@E@std@@@std@@U?$less@V?$vector@EV?$allocator@E@std@@@std@@@2@V?$allocator@V?$vector@EV?$allocator@E@std@@@std@@@2@$0A@@std@@@2@1@Z 640381f0 f i open.obj
 0001:00037420       ??F?$_Tree_unchecked_const_iterator@V?$_Tree_val@V?$_Tset_traits@V?$vector@EV?$allocator@E@std@@@std@@U?$less@V?$vector@EV?$allocator@E@std@@@std@@@2@V?$allocator@V?$vector@EV?$allocator@E@std@@@std@@@2@$0A@@std@@@std@@U_Iterator_base0@2@@std@@QAEAAV01@XZ 64038420 f i open.obj
 0001:00037480       ?_Erase@?$_Tree@V?$_Tset_traits@V?$vector@EV?$allocator@E@std@@@std@@U?$less@V?$vector@EV?$allocator@E@std@@@std@@@2@V?$allocator@V?$vector@EV?$allocator@E@std@@@std@@@2@$0A@@std@@@std@@IAEXPAU_Node@?$_Tree_nod@V?$_Tset_traits@V?$vector@EV?$allocator@E@std@@@std@@U?$less@V?$vector@EV?$allocator@E@std@@@std@@@2@V?$allocator@V?$vector@EV?$allocator@E@std@@@std@@@2@$0A@@std@@@2@@Z 64038480 f i open.obj
 0001:000374d0       ?_Lrotate@?$_Tree@V?$_Tset_traits@V?$vector@EV?$allocator@E@std@@@std@@U?$less@V?$vector@EV?$allocator@E@std@@@std@@@2@V?$allocator@V?$vector@EV?$allocator@E@std@@@std@@@2@$0A@@std@@@std@@IAEXPAU_Node@?$_Tree_nod@V?$_Tset_traits@V?$vector@EV?$allocator@E@std@@@std@@U?$less@V?$vector@EV?$allocator@E@std@@@std@@@2@V?$allocator@V?$vector@EV?$allocator@E@std@@@std@@@2@$0A@@std@@@2@@Z 640384d0 f i open.obj
 0001:00037520       ?_Rrotate@?$_Tree@V?$_Tset_traits@V?$vector@EV?$allocator@E@std@@@std@@U?$less@V?$vector@EV?$allocator@E@std@@@std@@@2@V?$allocator@V?$vector@EV?$allocator@E@std@@@std@@@2@$0A@@std@@@std@@IAEXPAU_Node@?$_Tree_nod@V?$_Tset_traits@V?$vector@EV?$allocator@E@std@@@std@@U?$less@V?$vector@EV?$allocator@E@std@@@std@@@2@V?$allocator@V?$vector@EV?$allocator@E@std@@@std@@@2@$0A@@std@@@2@@Z 64038520 f i open.obj
 0001:00037570       ?_Max@?$_Tree_val@V?$_Tset_traits@V?$vector@EV?$allocator@E@std@@@std@@U?$less@V?$vector@EV?$allocator@E@std@@@std@@@2@V?$allocator@V?$vector@EV?$allocator@E@std@@@std@@@2@$0A@@std@@@std@@SAPAU_Node@?$_Tree_nod@V?$_Tset_traits@V?$vector@EV?$allocator@E@std@@@std@@U?$less@V?$vector@EV?$allocator@E@std@@@std@@@2@V?$allocator@V?$vector@EV?$allocator@E@std@@@std@@@2@$0A@@std@@@2@PAU342@@Z 64038570 f i open.obj
 0001:00037590       ??E?$_Tree_unchecked_const_iterator@V?$_Tree_val@V?$_Tset_traits@V?$vector@EV?$allocator@E@std@@@std@@U?$less@V?$vector@EV?$allocator@E@std@@@std@@@2@V?$allocator@V?$vector@EV?$allocator@E@std@@@std@@@2@$0A@@std@@@std@@U_Iterator_base0@2@@std@@QAEAAV01@XZ 64038590 f i open.obj
 0001:000375e0       ?_Buynode@?$_Tree_val@V?$_Tset_traits@V?$basic_string@_WU?$char_traits@_W@std@@V?$allocator@_W@2@@std@@U?$less@V?$basic_string@_WU?$char_traits@_W@std@@V?$allocator@_W@2@@std@@@2@V?$allocator@V?$basic_string@_WU?$char_traits@_W@std@@V?$allocator@_W@2@@std@@@2@$0A@@std@@@std@@QAEPAU_Node@?$_Tree_nod@V?$_Tset_traits@V?$basic_string@_WU?$char_traits@_W@std@@V?$allocator@_W@2@@std@@U?$less@V?$basic_string@_WU?$char_traits@_W@std@@V?$allocator@_W@2@@std@@@2@V?$allocator@V?$basic_string@_WU?$char_traits@_W@std@@V?$allocator@_W@2@@std@@@2@$0A@@std@@@2@ABV?$basic_string@_WU?$char_traits@_W@std@@V?$allocator@_W@2@@2@@Z 640385e0 f i plugin.obj
 0001:000375e0       ?_Buynode@?$_Tree_val@V?$_Tset_traits@V?$basic_string@_WU?$char_traits@_W@std@@V?$allocator@_W@2@@std@@UItemCompare@?1??show@MultiSelectDialog@@QAE_NXZ@V?$allocator@V?$basic_string@_WU?$char_traits@_W@std@@V?$allocator@_W@2@@std@@@2@$0A@@std@@@std@@QAEPAU_Node@?$_Tree_nod@V?$_Tset_traits@V?$basic_string@_WU?$char_traits@_W@std@@V?$allocator@_W@2@@std@@UItemCompare@?1??show@MultiSelectDialog@@QAE_NXZ@V?$allocator@V?$basic_string@_WU?$char_traits@_W@std@@V?$allocator@_W@2@@std@@@2@$0A@@std@@@2@ABV?$basic_string@_WU?$char_traits@_W@std@@V?$allocator@_W@2@@2@@Z 640385e0 f i ui.obj
 0001:000375e0       ??$_Buynode@AAV?$basic_string@_WU?$char_traits@_W@std@@V?$allocator@_W@2@@std@@@?$_Tree_val@V?$_Tset_traits@V?$basic_string@_WU?$char_traits@_W@std@@V?$allocator@_W@2@@std@@U?$less@V?$basic_string@_WU?$char_traits@_W@std@@V?$allocator@_W@2@@std@@@2@V?$allocator@V?$basic_string@_WU?$char_traits@_W@std@@V?$allocator@_W@2@@std@@@2@$0A@@std@@@std@@QAEPAU_Node@?$_Tree_nod@V?$_Tset_traits@V?$basic_string@_WU?$char_traits@_W@std@@V?$allocator@_W@2@@std@@U?$less@V?$basic_string@_WU?$char_traits@_W@std@@V?$allocator@_W@2@@std@@@2@V?$allocator@V?$basic_string@_WU?$char_traits@_W@std@@V?$allocator@_W@2@@std@@@2@$0A@@std@@@1@AAV?$basic_string@_WU?$char_traits@_W@std@@V?$allocator@_W@2@@1@@Z 640385e0 f i open.obj
 0001:000376c0       ?_Linsert@?$_Tree@V?$_Tset_traits@V?$basic_string@_WU?$char_traits@_W@std@@V?$allocator@_W@2@@std@@U?$less@V?$basic_string@_WU?$char_traits@_W@std@@V?$allocator@_W@2@@std@@@2@V?$allocator@V?$basic_string@_WU?$char_traits@_W@std@@V?$allocator@_W@2@@std@@@2@$0A@@std@@@std@@QAE?AU?$pair@V?$_Tree_const_iterator@V?$_Tree_val@V?$_Tset_traits@V?$basic_string@_WU?$char_traits@_W@std@@V?$allocator@_W@2@@std@@U?$less@V?$basic_string@_WU?$char_traits@_W@std@@V?$allocator@_W@2@@std@@@2@V?$allocator@V?$basic_string@_WU?$char_traits@_W@std@@V?$allocator@_W@2@@std@@@2@$0A@@std@@@std@@@std@@_N@2@PAU_Node@?$_Tree_nod@V?$_Tset_traits@V?$basic_string@_WU?$char_traits@_W@std@@V?$allocator@_W@2@@std@@U?$less@V?$basic_string@_WU?$char_traits@_W@std@@V?$allocator@_W@2@@std@@@2@V?$allocator@V?$basic_string@_WU?$char_traits@_W@std@@V?$allocator@_W@2@@std@@@2@$0A@@std@@@2@_N@Z 640386c0 f i open.obj
 0001:00037860       ?_Linsert@?$_Tree@V?$_Tset_traits@V?$vector@EV?$allocator@E@std@@@std@@U?$less@V?$vector@EV?$allocator@E@std@@@std@@@2@V?$allocator@V?$vector@EV?$allocator@E@std@@@std@@@2@$0A@@std@@@std@@QAE?AU?$pair@V?$_Tree_const_iterator@V?$_Tree_val@V?$_Tset_traits@V?$vector@EV?$allocator@E@std@@@std@@U?$less@V?$vector@EV?$allocator@E@std@@@std@@@2@V?$allocator@V?$vector@EV?$allocator@E@std@@@std@@@2@$0A@@std@@@std@@@std@@_N@2@PAU_Node@?$_Tree_nod@V?$_Tset_traits@V?$vector@EV?$allocator@E@std@@@std@@U?$less@V?$vector@EV?$allocator@E@std@@@std@@@2@V?$allocator@V?$vector@EV?$allocator@E@std@@@std@@@2@$0A@@std@@@2@_N@Z 64038860 f i open.obj
 0001:00037970       ??$_Buynode@AAPB_W@?$_Tree_val@V?$_Tset_traits@V?$basic_string@_WU?$char_traits@_W@std@@V?$allocator@_W@2@@std@@U?$less@V?$basic_string@_WU?$char_traits@_W@std@@V?$allocator@_W@2@@std@@@2@V?$allocator@V?$basic_string@_WU?$char_traits@_W@std@@V?$allocator@_W@2@@std@@@2@$0A@@std@@@std@@QAEPAU_Node@?$_Tree_nod@V?$_Tset_traits@V?$basic_string@_WU?$char_traits@_W@std@@V?$allocator@_W@2@@std@@U?$less@V?$basic_string@_WU?$char_traits@_W@std@@V?$allocator@_W@2@@std@@@2@V?$allocator@V?$basic_string@_WU?$char_traits@_W@std@@V?$allocator@_W@2@@std@@@2@$0A@@std@@@1@AAPB_W@Z 64038970 f i open.obj
 0001:00037a70       ??$_For_each@V?$_List_unchecked_const_iterator@V?$_List_val@V?$vector@EV?$allocator@E@std@@@std@@V?$allocator@V?$vector@EV?$allocator@E@std@@@std@@@2@@std@@U_Iterator_base0@2@@std@@V<lambda0>@?A0x0922b246@@@std@@YA?AV<lambda0>@?A0x0922b246@@V?$_List_unchecked_const_iterator@V?$_List_val@V?$vector@EV?$allocator@E@std@@@std@@V?$allocator@V?$vector@EV?$allocator@E@std@@@std@@@2@@std@@U_Iterator_base0@2@@0@0V12@@Z 64038a70 f i open.obj
 0001:00037f40       ?_Buynode@?$_Tree_val@V?$_Tset_traits@V?$vector@EV?$allocator@E@std@@@std@@U?$less@V?$vector@EV?$allocator@E@std@@@std@@@2@V?$allocator@V?$vector@EV?$allocator@E@std@@@std@@@2@$0A@@std@@@std@@QAEPAU_Node@?$_Tree_nod@V?$_Tset_traits@V?$vector@EV?$allocator@E@std@@@std@@U?$less@V?$vector@EV?$allocator@E@std@@@std@@@2@V?$allocator@V?$vector@EV?$allocator@E@std@@@std@@@2@$0A@@std@@@2@ABV?$vector@EV?$allocator@E@std@@@2@@Z 64038f40 f i open.obj
 0001:00037f40       ??$_Buynode@AAV?$vector@EV?$allocator@E@std@@@std@@@?$_Tree_val@V?$_Tset_traits@V?$vector@EV?$allocator@E@std@@@std@@U?$less@V?$vector@EV?$allocator@E@std@@@std@@@2@V?$allocator@V?$vector@EV?$allocator@E@std@@@std@@@2@$0A@@std@@@std@@QAEPAU_Node@?$_Tree_nod@V?$_Tset_traits@V?$vector@EV?$allocator@E@std@@@std@@U?$less@V?$vector@EV?$allocator@E@std@@@std@@@2@V?$allocator@V?$vector@EV?$allocator@E@std@@@std@@@2@$0A@@std@@@1@AAV?$vector@EV?$allocator@E@std@@@1@@Z 64038f40 f i open.obj
 0001:00038010       ??$_For_each@PAUStrPos@@V<lambda1>@?A0x0922b246@@@std@@YA?AV<lambda1>@?A0x0922b246@@PAUStrPos@@0V12@@Z 64039010 f i open.obj
 0001:00038120       ??$_Find@V?$_List_unchecked_const_iterator@V?$_List_val@V?$vector@EV?$allocator@E@std@@@std@@V?$allocator@V?$vector@EV?$allocator@E@std@@@std@@@2@@std@@U_Iterator_base0@2@@std@@V?$vector@EV?$allocator@E@std@@@2@@std@@YA?AV?$_List_unchecked_const_iterator@V?$_List_val@V?$vector@EV?$allocator@E@std@@@std@@V?$allocator@V?$vector@EV?$allocator@E@std@@@std@@@2@@std@@U_Iterator_base0@2@@0@V10@0ABV?$vector@EV?$allocator@E@std@@@0@@Z 64039120 f i open.obj
 0001:00038180       ??$_For_each@V?$_List_unchecked_iterator@V?$_List_val@V?$vector@EV?$allocator@E@std@@@std@@V?$allocator@V?$vector@EV?$allocator@E@std@@@std@@@2@@std@@@std@@V<lambda2>@?A0x0922b246@@@std@@YA?AV<lambda2>@?A0x0922b246@@V?$_List_unchecked_iterator@V?$_List_val@V?$vector@EV?$allocator@E@std@@@std@@V?$allocator@V?$vector@EV?$allocator@E@std@@@std@@@2@@std@@@0@0V12@@Z 64039180 f i open.obj
 0001:000382d0       ??$_For_each@V?$_List_unchecked_const_iterator@V?$_List_val@V?$vector@EV?$allocator@E@std@@@std@@V?$allocator@V?$vector@EV?$allocator@E@std@@@std@@@2@@std@@U_Iterator_base0@2@@std@@V<lambda3>@?A0x0922b246@@@std@@YA?AV<lambda3>@?A0x0922b246@@V?$_List_unchecked_const_iterator@V?$_List_val@V?$vector@EV?$allocator@E@std@@@std@@V?$allocator@V?$vector@EV?$allocator@E@std@@@std@@@2@@std@@U_Iterator_base0@2@@0@0V12@@Z 640392d0 f i open.obj
 0001:000383e0       ??$_Distance2@V?$_Tree_const_iterator@V?$_Tree_val@V?$_Tset_traits@V?$vector@EV?$allocator@E@std@@@std@@U?$less@V?$vector@EV?$allocator@E@std@@@std@@@2@V?$allocator@V?$vector@EV?$allocator@E@std@@@std@@@2@$0A@@std@@@std@@@std@@I@std@@YAXV?$_Tree_const_iterator@V?$_Tree_val@V?$_Tset_traits@V?$vector@EV?$allocator@E@std@@@std@@U?$less@V?$vector@EV?$allocator@E@std@@@std@@@2@V?$allocator@V?$vector@EV?$allocator@E@std@@@std@@@2@$0A@@std@@@std@@@0@0AAIUbidirectional_iterator_tag@0@@Z 640393e0 f i open.obj
 0001:00038450       ??$_Move@PAV?$shared_ptr@VArchive@@@tr1@std@@PAV123@@std@@YAPAV?$shared_ptr@VArchive@@@tr1@0@PAV120@00U_Nonscalar_ptr_iterator_tag@0@@Z 64039450 f i open.obj
 0001:000384d0       ??$_Uninit_move@PAV?$shared_ptr@VArchive@@@tr1@std@@PAV123@V?$allocator@V?$shared_ptr@VArchive@@@tr1@std@@@3@V123@@std@@YAPAV?$shared_ptr@VArchive@@@tr1@0@PAV120@00AAV?$allocator@V?$shared_ptr@VArchive@@@tr1@std@@@0@0U_Nonscalar_ptr_iterator_tag@0@@Z 640394d0 f i open.obj
 0001:00038510       ??$_Insert@V?$_List_iterator@V?$_List_val@UArcEntry@@V?$allocator@UArcEntry@@@std@@@std@@@std@@@?$list@UArcEntry@@V?$allocator@UArcEntry@@@std@@@std@@QAEXV?$_List_const_iterator@V?$_List_val@UArcEntry@@V?$allocator@UArcEntry@@@std@@@std@@@1@V?$_List_iterator@V?$_List_val@UArcEntry@@V?$allocator@UArcEntry@@@std@@@std@@@1@1Uforward_iterator_tag@1@@Z 64039510 f i open.obj
 0001:000385e0       ?Release@ArchiveOpener@@W3AGKXZ 640395e0 f i open.obj
 0001:000385f0       ?Release@ArchiveOpener@@W7AGKXZ 640395f0 f i open.obj
 0001:00038600       ??_EArchiveOpenStream@@W3AEPAXI@Z 64039600 f i open.obj
 0001:00038610       ??_EArchiveOpener@@WM@AEPAXI@Z 64039610 f i open.obj
 0001:00038620       ?Release@ArchiveOpener@@WM@AGKXZ 64039620 f i open.obj
 0001:00038630       ?AddRef@ArchiveOpener@@W3AGKXZ 64039630 f i open.obj
 0001:00038640       ?AddRef@ArchiveOpener@@W7AGKXZ 64039640 f i open.obj
 0001:00038650       ?QueryInterface@ArchiveOpener@@W3AGJABU_GUID@@PAPAX@Z 64039650 f i open.obj
 0001:00038660       ??_EArchiveOpener@@WBI@AEPAXI@Z 64039660 f i open.obj
 0001:00038670       ?QueryInterface@ArchiveOpener@@W7AGJABU_GUID@@PAPAX@Z 64039670 f i open.obj
 0001:00038680       ?QueryInterface@FileReadStream@@W3AGJABU_GUID@@PAPAX@Z 64039680 f i update.obj
 0001:00038680       ?QueryInterface@ArchiveOpenStream@@W3AGJABU_GUID@@PAPAX@Z 64039680 f i open.obj
 0001:00038690       ?QueryInterface@ArchiveOpener@@WM@AGJABU_GUID@@PAPAX@Z 64039690 f i open.obj
 0001:000386a0       ??_ECriticalSection@@UAEPAXI@Z 640396a0 f i  CIL library: CIL module
 0001:000386a0       ??_GCriticalSection@@UAEPAXI@Z 640396a0 f i update.obj
 0001:000386d0       ??1CriticalSectionLock@@QAE@XZ 640396d0 f i update.obj
 0001:000386f0       ??0PropVariant@@QAE@ABV0@@Z 640396f0 f i update.obj
 0001:00038770       ??0PropVariant@@QAE@ABV?$basic_string@_WU?$char_traits@_W@std@@V?$allocator@_W@2@@std@@@Z 64039770 f i update.obj
 0001:00038820       ??0PropVariant@@QAE@PB_W@Z 64039820 f i update.obj
 0001:000388e0       ??4PropVariant@@QAEAAV0@ABV?$basic_string@_WU?$char_traits@_W@std@@V?$allocator@_W@2@@std@@@Z 640398e0 f i update.obj
 0001:000389a0       ?format_time@@YA?AV?$basic_string@_WU?$char_traits@_W@std@@V?$allocator@_W@2@@std@@_K@Z 640399a0 f   update.obj
 0001:00038bc0       ?do_update_ui@ArchiveUpdateProgress@@EAEXXZ 64039bc0 f i update.obj
 0001:00039610       ??0ArchiveUpdateProgress@@QAE@_NABV?$basic_string@_WU?$char_traits@_W@std@@V?$allocator@_W@2@@std@@@Z 6403a610 f i update.obj
 0001:00039760       ?on_open_file@ArchiveUpdateProgress@@QAEXABV?$basic_string@_WU?$char_traits@_W@std@@V?$allocator@_W@2@@std@@_K@Z 6403a760 f i update.obj
 0001:00039810       ?on_write_archive@ArchiveUpdateProgress@@QAEXI@Z 6403a810 f i update.obj
 0001:000398a0       ??_GArchiveUpdateProgress@@UAEPAXI@Z 6403a8a0 f i update.obj
 0001:000398a0       ??_EArchiveUpdateProgress@@UAEPAXI@Z 6403a8a0 f i  CIL library: CIL module
 0001:000398c0       ??1ArchiveUpdateProgress@@UAE@XZ 6403a8c0 f i update.obj
 0001:00039950       ?translate_seek_method@@YAKI@Z 6403a950 f   update.obj
 0001:00039a00       ??0UpdateStream@@QAE@V?$shared_ptr@VArchiveUpdateProgress@@@tr1@std@@@Z 6403aa00 f i update.obj
 0001:00039aa0       ??1UpdateStream@@UAE@XZ    6403aaa0 f i update.obj
 0001:00039ae0       ??_EUpdateStream@@UAEPAXI@Z 6403aae0 f i  CIL library: CIL module
 0001:00039ae0       ??_GUpdateStream@@UAEPAXI@Z 6403aae0 f i update.obj
 0001:00039b40       ??0SimpleUpdateStream@@QAE@ABV?$basic_string@_WU?$char_traits@_W@std@@V?$allocator@_W@2@@std@@V?$shared_ptr@VArchiveUpdateProgress@@@tr1@2@@Z 6403ab40 f i update.obj
 0001:00039c90       ?Write@SfxUpdateStream@@UAGJPBXIPAI@Z 6403ac90 f i update.obj
 0001:00039c90       ?Write@SimpleUpdateStream@@UAGJPBXIPAI@Z 6403ac90 f i update.obj
 0001:00039e10       ?Seek@SimpleUpdateStream@@UAGJ_JIPA_K@Z 6403ae10 f i update.obj
 0001:00039f00       ?SetSize@SimpleUpdateStream@@UAGJ_K@Z 6403af00 f i update.obj
 0001:0003a030       ??_ESfxUpdateStream@@UAEPAXI@Z 6403b030 f i  CIL library: CIL module
 0001:0003a030       ??_GSimpleUpdateStream@@UAEPAXI@Z 6403b030 f i update.obj
 0001:0003a030       ??_ESimpleUpdateStream@@UAEPAXI@Z 6403b030 f i  CIL library: CIL module
 0001:0003a030       ??_GSfxUpdateStream@@UAEPAXI@Z 6403b030 f i update.obj
 0001:0003a050       ??1SimpleUpdateStream@@UAE@XZ 6403b050 f i update.obj
 0001:0003a050       ??1SfxUpdateStream@@UAE@XZ 6403b050 f i update.obj
 0001:0003a0d0       ??0SfxUpdateStream@@QAE@ABV?$basic_string@_WU?$char_traits@_W@std@@V?$allocator@_W@2@@std@@ABUSfxOptions@@V?$shared_ptr@VArchiveUpdateProgress@@@tr1@2@@Z 6403b0d0 f i update.obj
 0001:0003a250       ?QueryInterface@MultiVolumeUpdateStream@@UAGJABU_GUID@@PAPAX@Z 6403b250 f i update.obj
 0001:0003a250       ?QueryInterface@SfxUpdateStream@@UAGJABU_GUID@@PAPAX@Z 6403b250 f i update.obj
 0001:0003a250       ?QueryInterface@SimpleUpdateStream@@UAGJABU_GUID@@PAPAX@Z 6403b250 f i update.obj
 0001:0003a2f0       ?Release@SimpleUpdateStream@@UAGKXZ 6403b2f0 f i update.obj
 0001:0003a2f0       ?Release@SfxUpdateStream@@UAGKXZ 6403b2f0 f i update.obj
 0001:0003a2f0       ?Release@MultiVolumeUpdateStream@@UAGKXZ 6403b2f0 f i update.obj
 0001:0003a310       ?Seek@SfxUpdateStream@@UAGJ_JIPA_K@Z 6403b310 f i update.obj
 0001:0003a490       ?SetSize@SfxUpdateStream@@UAGJ_K@Z 6403b490 f i update.obj
 0001:0003a5c0       ?clean_files@SimpleUpdateStream@@UAEXXZ 6403b5c0 f i update.obj
 0001:0003a5c0       ?clean_files@SfxUpdateStream@@UAEXXZ 6403b5c0 f i update.obj
 0001:0003a630       ?get_volume_path@MultiVolumeUpdateStream@@AAE?AV?$basic_string@_WU?$char_traits@_W@std@@V?$allocator@_W@2@@std@@_K@Z 6403b630 f i update.obj
 0001:0003a830       ?get_last_volume_idx@MultiVolumeUpdateStream@@AAE_KXZ 6403b830 f i update.obj
 0001:0003a860       ??0MultiVolumeUpdateStream@@QAE@ABV?$basic_string@_WU?$char_traits@_W@std@@V?$allocator@_W@2@@std@@_KV?$shared_ptr@VArchiveUpdateProgress@@@tr1@2@@Z 6403b860 f i update.obj
 0001:0003aa20       ?Write@MultiVolumeUpdateStream@@UAGJPBXIPAI@Z 6403ba20 f i update.obj
 0001:0003b090       ?Seek@MultiVolumeUpdateStream@@UAGJ_JIPA_K@Z 6403c090 f i update.obj
 0001:0003b270       ?SetSize@MultiVolumeUpdateStream@@UAGJ_K@Z 6403c270 f i update.obj
 0001:0003b600       ?clean_files@MultiVolumeUpdateStream@@UAEXXZ 6403c600 f i update.obj
 0001:0003b6f0       ??_GMultiVolumeUpdateStream@@UAEPAXI@Z 6403c6f0 f i update.obj
 0001:0003b6f0       ??_EMultiVolumeUpdateStream@@UAEPAXI@Z 6403c6f0 f i  CIL library: CIL module
 0001:0003b710       ??1MultiVolumeUpdateStream@@UAE@XZ 6403c710 f i update.obj
 0001:0003b7c0       ??0FileReadStream@@QAE@ABV?$basic_string@_WU?$char_traits@_W@std@@V?$allocator@_W@2@@std@@_NV?$shared_ptr@VArchiveUpdateProgress@@@tr1@2@@Z 6403c7c0 f i update.obj
 0001:0003b8c0       ?AddRef@ArchiveFileDeleterStream@@UAGKXZ 6403c8c0 f i delete.obj
 0001:0003b8c0       ?AddRef@ArchiveOpenStream@@UAGKXZ 6403c8c0 f i open.obj
 0001:0003b8c0       ?AddRef@ArchiveFileDeleter@@UAGKXZ 6403c8c0 f i delete.obj
 0001:0003b8c0       ?AddRef@FileReadStream@@UAGKXZ 6403c8c0 f i update.obj
 0001:0003b8c0       ?AddRef@CachedFileExtractStream@@UAGKXZ 6403c8c0 f i extract.obj
 0001:0003b8d0       ?Read@FileReadStream@@UAGJPAXIPAI@Z 6403c8d0 f i update.obj
 0001:0003ba00       ?Seek@ArchiveFileDeleterStream@@UAGJ_JIPA_K@Z 6403ca00 f i delete.obj
 0001:0003ba00       ?Seek@FileReadStream@@UAGJ_JIPA_K@Z 6403ca00 f i update.obj
 0001:0003baf0       ??_EFileReadStream@@UAEPAXI@Z 6403caf0 f i  CIL library: CIL module
 0001:0003baf0       ??_GArchiveFileDeleterStream@@UAEPAXI@Z 6403caf0 f i delete.obj
 0001:0003baf0       ??_EArchiveFileDeleterStream@@UAEPAXI@Z 6403caf0 f i  CIL library: CIL module
 0001:0003baf0       ??_GFileReadStream@@UAEPAXI@Z 6403caf0 f i update.obj
 0001:0003bb10       ??1ArchiveFileDeleterStream@@UAE@XZ 6403cb10 f i delete.obj
 0001:0003bb10       ??1FileReadStream@@UAE@XZ  6403cb10 f i update.obj
 0001:0003bbd0       ?do_update_ui@PrepareUpdate@@EAEXXZ 6403cbd0 f i update.obj
 0001:0003bdb0       ?process_file@PrepareUpdate@@AAE_NABV?$basic_string@_WU?$char_traits@_W@std@@V?$allocator@_W@2@@std@@ABUFindData@@IAAI@Z 6403cdb0 f i update.obj
 0001:0003c230       ?process_file_enum@PrepareUpdate@@AAE_NAAVFileEnum@@ABV?$basic_string@_WU?$char_traits@_W@std@@V?$allocator@_W@2@@std@@I@Z 6403d230 f i update.obj
 0001:0003c540       ??0PrepareUpdate@@QAE@ABV?$basic_string@_WU?$char_traits@_W@std@@V?$allocator@_W@2@@std@@ABV?$vector@V?$basic_string@_WU?$char_traits@_W@std@@V?$allocator@_W@2@@std@@V?$allocator@V?$basic_string@_WU?$char_traits@_W@std@@V?$allocator@_W@2@@std@@@2@@2@IAAVArchive@@AAV?$map@IUFileIndexInfo@@U?$less@I@std@@V?$allocator@U?$pair@$$CBIUFileIndexInfo@@@std@@@3@@2@AAIW4OverwriteAction@@AA_NAAV?$list@UError@@V?$allocator@UError@@@std@@@2@PAVFileFilter@Far@@6@Z 6403d540 f i update.obj
 0001:0003c840       ??4FileIndexInfo@@QAEAAU0@ABU0@@Z 6403d840 f i update.obj
 0001:0003c870       ??1DirList@@QAE@XZ         6403d870 f i update.obj
 0001:0003c870       ??1FileEnum@@QAE@XZ        6403d870 f i sysutils.obj
 0001:0003c8b0       ??0ArchiveUpdater@@QAE@ABV?$basic_string@_WU?$char_traits@_W@std@@V?$allocator@_W@2@@std@@0IV?$shared_ptr@V?$map@IUFileIndexInfo@@U?$less@I@std@@V?$allocator@U?$pair@$$CBIUFileIndexInfo@@@std@@@3@@std@@@tr1@2@ABUUpdateOptions@@V?$shared_ptr@_N@42@V?$shared_ptr@V?$list@UError@@V?$allocator@UError@@@std@@@std@@@42@V?$shared_ptr@VArchiveUpdateProgress@@@42@@Z 6403d8b0 f i update.obj
 0001:0003cad0       ?QueryInterface@ArchiveUpdater@@UAGJABU_GUID@@PAPAX@Z 6403dad0 f i update.obj
 0001:0003cba0       ?AddRef@ArchiveUpdater@@UAGKXZ 6403dba0 f i update.obj
 0001:0003cba0       ?AddRef@ArchiveExtractor@@UAGKXZ 6403dba0 f i extract.obj
 0001:0003cba0       ?AddRef@ArchiveTester@@UAGKXZ 6403dba0 f i test.obj
 0001:0003cbb0       ?Release@ArchiveTester@@UAGKXZ 6403dbb0 f i test.obj
 0001:0003cbb0       ?Release@ArchiveUpdater@@UAGKXZ 6403dbb0 f i update.obj
 0001:0003cbb0       ?Release@ArchiveExtractor@@UAGKXZ 6403dbb0 f i extract.obj
 0001:0003cbd0       ?SetTotal@ArchiveUpdater@@UAGJ_K@Z 6403dbd0 f i update.obj
 0001:0003ccf0       ?SetCompleted@ArchiveUpdater@@UAGJPB_K@Z 6403dcf0 f i update.obj
 0001:0003ce00       ?GetUpdateItemInfo@ArchiveUpdater@@UAGJIPAH0PAI@Z 6403de00 f i update.obj
 0001:0003cea0       ?GetProperty@ArchiveUpdater@@UAGJIKPAUtagPROPVARIANT@@@Z 6403dea0 f i update.obj
 0001:0003d100       ?GetStream@ArchiveUpdater@@UAGJIPAPAUISequentialInStream@@@Z 6403e100 f i update.obj
 0001:0003d400       ?SetOperationResult@ArchiveUpdater@@UAGJH@Z 6403e400 f i update.obj
 0001:0003d5e0       ?CryptoGetTextPassword2@ArchiveUpdater@@UAGJPAHPAPA_W@Z 6403e5e0 f i update.obj
 0001:0003d6d0       ??_GArchiveUpdater@@UAEPAXI@Z 6403e6d0 f i update.obj
 0001:0003d6d0       ??_EArchiveUpdater@@UAEPAXI@Z 6403e6d0 f i  CIL library: CIL module
 0001:0003d6f0       ??1ArchiveUpdater@@UAE@XZ  6403e6f0 f i update.obj
 0001:0003d860       ?set_properties@Archive@@AAEXPAUIOutArchive@@ABUUpdateOptions@@@Z 6403e860 f   update.obj
 0001:0003efe0       ?do_update_ui@DeleteSrcFiles@@EAEXXZ 6403ffe0 f i update.obj
 0001:0003f1c0       ?delete_src_file@DeleteSrcFiles@@AAEXABV?$basic_string@_WU?$char_traits@_W@std@@V?$allocator@_W@2@@std@@@Z 640401c0 f i update.obj
 0001:0003f2a0       ?delete_src_dir@DeleteSrcFiles@@AAEXABV?$basic_string@_WU?$char_traits@_W@std@@V?$allocator@_W@2@@std@@@Z 640402a0 f i update.obj
 0001:0003f4a0       ??0DeleteSrcFiles@@QAE@ABV?$basic_string@_WU?$char_traits@_W@std@@V?$allocator@_W@2@@std@@ABV?$vector@V?$basic_string@_WU?$char_traits@_W@std@@V?$allocator@_W@2@@std@@V?$allocator@V?$basic_string@_WU?$char_traits@_W@std@@V?$allocator@_W@2@@std@@@2@@2@AA_NAAV?$list@UError@@V?$allocator@UError@@@std@@@2@@Z 640404a0 f i update.obj
 0001:0003f690       ?create@Archive@@QAEXABV?$basic_string@_WU?$char_traits@_W@std@@V?$allocator@_W@2@@std@@ABV?$vector@V?$basic_string@_WU?$char_traits@_W@std@@V?$allocator@_W@2@@std@@V?$allocator@V?$basic_string@_WU?$char_traits@_W@std@@V?$allocator@_W@2@@std@@@2@@3@ABUUpdateOptions@@V?$shared_ptr@V?$list@UError@@V?$allocator@UError@@@std@@@std@@@tr1@3@@Z 64040690 f   update.obj
 0001:0003ff90       ?update@Archive@@QAEXABV?$basic_string@_WU?$char_traits@_W@std@@V?$allocator@_W@2@@std@@ABV?$vector@V?$basic_string@_WU?$char_traits@_W@std@@V?$allocator@_W@2@@std@@V?$allocator@V?$basic_string@_WU?$char_traits@_W@std@@V?$allocator@_W@2@@std@@@2@@3@0ABUUpdateOptions@@V?$shared_ptr@V?$list@UError@@V?$allocator@UError@@@std@@@std@@@tr1@3@@Z 64040f90 f   update.obj
 0001:00040810       ?create_dir@Archive@@QAEXABV?$basic_string@_WU?$char_traits@_W@std@@V?$allocator@_W@2@@std@@0@Z 64041810 f   update.obj
 0001:000411f0       ??6?$basic_ostream@_WU?$char_traits@_W@std@@@std@@QAEAAV01@I@Z 640421f0 f i update.obj
 0001:000413e0       ??A?$map@IUFileIndexInfo@@U?$less@I@std@@V?$allocator@U?$pair@$$CBIUFileIndexInfo@@@std@@@3@@std@@QAEAAUFileIndexInfo@@ABI@Z 640423e0 f i update.obj
 0001:00041560       ?erase@?$_Tree@V?$_Tmap_traits@IUFileIndexInfo@@U?$less@I@std@@V?$allocator@U?$pair@$$CBIUFileIndexInfo@@@std@@@3@$0A@@std@@@std@@QAEIABI@Z 64042560 f i update.obj
 0001:000415c0       ?find@?$_Tree@V?$_Tmap_traits@IUFileIndexInfo@@U?$less@I@std@@V?$allocator@U?$pair@$$CBIUFileIndexInfo@@@std@@@3@$0A@@std@@@std@@QAE?AV?$_Tree_iterator@V?$_Tree_val@V?$_Tmap_traits@IUFileIndexInfo@@U?$less@I@std@@V?$allocator@U?$pair@$$CBIUFileIndexInfo@@@std@@@3@$0A@@std@@@std@@@2@ABI@Z 640425c0 f i update.obj
 0001:00041620       ?push_back@?$vector@VPropVariant@@V?$allocator@VPropVariant@@@std@@@std@@QAEX$$QAVPropVariant@@@Z 64042620 f i update.obj
 0001:00041620       ?push_back@?$vector@VPropVariant@@V?$allocator@VPropVariant@@@std@@@std@@QAEXABVPropVariant@@@Z 64042620 f i update.obj
 0001:000416d0       ??1?$vector@VPropVariant@@V?$allocator@VPropVariant@@@std@@@std@@QAE@XZ 640426d0 f i update.obj
 0001:00041710       ?erase@?$_Tree@V?$_Tmap_traits@IUFileIndexInfo@@U?$less@I@std@@V?$allocator@U?$pair@$$CBIUFileIndexInfo@@@std@@@3@$0A@@std@@@std@@QAE?AV?$_Tree_iterator@V?$_Tree_val@V?$_Tmap_traits@IUFileIndexInfo@@U?$less@I@std@@V?$allocator@U?$pair@$$CBIUFileIndexInfo@@@std@@@3@$0A@@std@@@std@@@2@V?$_Tree_const_iterator@V?$_Tree_val@V?$_Tmap_traits@IUFileIndexInfo@@U?$less@I@std@@V?$allocator@U?$pair@$$CBIUFileIndexInfo@@@std@@@3@$0A@@std@@@std@@@2@0@Z 64042710 f i update.obj
 0001:000417e0       ?_Reserve@?$vector@VPropVariant@@V?$allocator@VPropVariant@@@std@@@std@@IAEXI@Z 640427e0 f i update.obj
 0001:00041830       ?allocate@?$allocator@PB_W@std@@QAEPAPB_WI@Z 64042830 f i update.obj
 0001:00041830       ?allocate@?$allocator@I@std@@QAEPAII@Z 64042830 f i archive.obj
 0001:00041890       ?erase@?$_Tree@V?$_Tmap_traits@IUFileIndexInfo@@U?$less@I@std@@V?$allocator@U?$pair@$$CBIUFileIndexInfo@@@std@@@3@$0A@@std@@@std@@QAE?AV?$_Tree_iterator@V?$_Tree_val@V?$_Tmap_traits@IUFileIndexInfo@@U?$less@I@std@@V?$allocator@U?$pair@$$CBIUFileIndexInfo@@@std@@@3@$0A@@std@@@std@@@2@V?$_Tree_const_iterator@V?$_Tree_val@V?$_Tmap_traits@IUFileIndexInfo@@U?$less@I@std@@V?$allocator@U?$pair@$$CBIUFileIndexInfo@@@std@@@3@$0A@@std@@@std@@@2@@Z 64042890 f i update.obj
 0001:00041b90       ?_Eqrange@?$_Tree@V?$_Tmap_traits@IUFileIndexInfo@@U?$less@I@std@@V?$allocator@U?$pair@$$CBIUFileIndexInfo@@@std@@@3@$0A@@std@@@std@@IAE?AU?$pair@V?$_Tree_iterator@V?$_Tree_val@V?$_Tmap_traits@IUFileIndexInfo@@U?$less@I@std@@V?$allocator@U?$pair@$$CBIUFileIndexInfo@@@std@@@3@$0A@@std@@@std@@@std@@V12@@2@ABI@Z 64042b90 f i update.obj
 0001:00041c20       ?reserve@?$vector@VPropVariant@@V?$allocator@VPropVariant@@@std@@@std@@QAEXI@Z 64042c20 f i update.obj
 0001:00041d10       ?_Erase@?$_Tree@V?$_Tmap_traits@IUFileIndexInfo@@U?$less@I@std@@V?$allocator@U?$pair@$$CBIUFileIndexInfo@@@std@@@3@$0A@@std@@@std@@IAEXPAU_Node@?$_Tree_nod@V?$_Tmap_traits@IUFileIndexInfo@@U?$less@I@std@@V?$allocator@U?$pair@$$CBIUFileIndexInfo@@@std@@@3@$0A@@std@@@2@@Z 64042d10 f i update.obj
 0001:00041d80       ?_Lrotate@?$_Tree@V?$_Tmap_traits@IUFileIndexInfo@@U?$less@I@std@@V?$allocator@U?$pair@$$CBIUFileIndexInfo@@@std@@@3@$0A@@std@@@std@@IAEXPAU_Node@?$_Tree_nod@V?$_Tmap_traits@IUFileIndexInfo@@U?$less@I@std@@V?$allocator@U?$pair@$$CBIUFileIndexInfo@@@std@@@3@$0A@@std@@@2@@Z 64042d80 f i update.obj
 0001:00041dd0       ?_Rrotate@?$_Tree@V?$_Tmap_traits@IUFileIndexInfo@@U?$less@I@std@@V?$allocator@U?$pair@$$CBIUFileIndexInfo@@@std@@@3@$0A@@std@@@std@@IAEXPAU_Node@?$_Tree_nod@V?$_Tmap_traits@IUFileIndexInfo@@U?$less@I@std@@V?$allocator@U?$pair@$$CBIUFileIndexInfo@@@std@@@3@$0A@@std@@@2@@Z 64042dd0 f i update.obj
 0001:00041e30       ?_Max@?$_Tree_val@V?$_Tmap_traits@IUFileIndexInfo@@U?$less@I@std@@V?$allocator@U?$pair@$$CBIUFileIndexInfo@@@std@@@3@$0A@@std@@@std@@SAPAU_Node@?$_Tree_nod@V?$_Tmap_traits@IUFileIndexInfo@@U?$less@I@std@@V?$allocator@U?$pair@$$CBIUFileIndexInfo@@@std@@@3@$0A@@std@@@2@PAU342@@Z 64042e30 f i update.obj
 0001:00041e50       ?_Min@?$_Tree_val@V?$_Tmap_traits@IUFileIndexInfo@@U?$less@I@std@@V?$allocator@U?$pair@$$CBIUFileIndexInfo@@@std@@@3@$0A@@std@@@std@@SAPAU_Node@?$_Tree_nod@V?$_Tmap_traits@IUFileIndexInfo@@U?$less@I@std@@V?$allocator@U?$pair@$$CBIUFileIndexInfo@@@std@@@3@$0A@@std@@@2@PAU342@@Z 64042e50 f i update.obj
 0001:00041e70       ??E?$_Tree_unchecked_const_iterator@V?$_Tree_val@V?$_Tmap_traits@IUFileIndexInfo@@U?$less@I@std@@V?$allocator@U?$pair@$$CBIUFileIndexInfo@@@std@@@3@$0A@@std@@@std@@U_Iterator_base0@2@@std@@QAEAAV01@XZ 64042e70 f i update.obj
 0001:00041ed0       ??$?H_WU?$char_traits@_W@std@@V?$allocator@_W@1@@std@@YA?AV?$basic_string@_WU?$char_traits@_W@std@@V?$allocator@_W@2@@0@ABV10@0@Z 64042ed0 f i update.obj
 0001:00041f80       ?_Insert@?$_Tree@V?$_Tmap_traits@IUFileIndexInfo@@U?$less@I@std@@V?$allocator@U?$pair@$$CBIUFileIndexInfo@@@std@@@3@$0A@@std@@@std@@QAE?AV?$_Tree_iterator@V?$_Tree_val@V?$_Tmap_traits@IUFileIndexInfo@@U?$less@I@std@@V?$allocator@U?$pair@$$CBIUFileIndexInfo@@@std@@@3@$0A@@std@@@std@@@2@V?$_Tree_const_iterator@V?$_Tree_val@V?$_Tmap_traits@IUFileIndexInfo@@U?$less@I@std@@V?$allocator@U?$pair@$$CBIUFileIndexInfo@@@std@@@3@$0A@@std@@@std@@@2@PAU_Node@?$_Tree_nod@V?$_Tmap_traits@IUFileIndexInfo@@U?$less@I@std@@V?$allocator@U?$pair@$$CBIUFileIndexInfo@@@std@@@3@$0A@@std@@@2@@Z 64042f80 f i update.obj
 0001:000420c0       ?_Linsert@?$_Tree@V?$_Tmap_traits@IUFileIndexInfo@@U?$less@I@std@@V?$allocator@U?$pair@$$CBIUFileIndexInfo@@@std@@@3@$0A@@std@@@std@@QAE?AU?$pair@V?$_Tree_iterator@V?$_Tree_val@V?$_Tmap_traits@IUFileIndexInfo@@U?$less@I@std@@V?$allocator@U?$pair@$$CBIUFileIndexInfo@@@std@@@3@$0A@@std@@@std@@@std@@_N@2@PAU_Node@?$_Tree_nod@V?$_Tmap_traits@IUFileIndexInfo@@U?$less@I@std@@V?$allocator@U?$pair@$$CBIUFileIndexInfo@@@std@@@3@$0A@@std@@@2@_N@Z 640430c0 f i update.obj
 0001:000421b0       ?_Insert@?$_Tree@V?$_Tmap_traits@IUFileIndexInfo@@U?$less@I@std@@V?$allocator@U?$pair@$$CBIUFileIndexInfo@@@std@@@3@$0A@@std@@@std@@IAE?AV?$_Tree_iterator@V?$_Tree_val@V?$_Tmap_traits@IUFileIndexInfo@@U?$less@I@std@@V?$allocator@U?$pair@$$CBIUFileIndexInfo@@@std@@@3@$0A@@std@@@std@@@2@_NPAU_Node@?$_Tree_nod@V?$_Tmap_traits@IUFileIndexInfo@@U?$less@I@std@@V?$allocator@U?$pair@$$CBIUFileIndexInfo@@@std@@@3@$0A@@std@@@2@1@Z 640431b0 f i update.obj
 0001:00042430       ??F?$_Tree_unchecked_const_iterator@V?$_Tree_val@V?$_Tmap_traits@IUFileIndexInfo@@U?$less@I@std@@V?$allocator@U?$pair@$$CBIUFileIndexInfo@@@std@@@3@$0A@@std@@@std@@U_Iterator_base0@2@@std@@QAEAAV01@XZ 64043430 f i update.obj
 0001:000424b0       ??$_Equal_range@PAIHHV<lambda0>@?A0x98363e99@@@std@@YA?AU?$pair@PAIPAI@0@PAI0ABHV<lambda0>@?A0x98363e99@@PAH@Z 640434b0 f i update.obj
 0001:00042680       ??$_For_each@V?$_List_unchecked_iterator@V?$_List_val@V?$basic_string@_WU?$char_traits@_W@std@@V?$allocator@_W@2@@std@@V?$allocator@V?$basic_string@_WU?$char_traits@_W@std@@V?$allocator@_W@2@@std@@@2@@std@@@std@@V<lambda1>@?A0x98363e99@@@std@@YA?AV<lambda1>@?A0x98363e99@@V?$_List_unchecked_iterator@V?$_List_val@V?$basic_string@_WU?$char_traits@_W@std@@V?$allocator@_W@2@@std@@V?$allocator@V?$basic_string@_WU?$char_traits@_W@std@@V?$allocator@_W@2@@std@@@2@@std@@@0@0V12@@Z 64043680 f i update.obj
 0001:00042990       ??$_Resetp@V?$map@IUFileIndexInfo@@U?$less@I@std@@V?$allocator@U?$pair@$$CBIUFileIndexInfo@@@std@@@3@@std@@@?$shared_ptr@V?$map@IUFileIndexInfo@@U?$less@I@std@@V?$allocator@U?$pair@$$CBIUFileIndexInfo@@@std@@@3@@std@@@tr1@std@@AAEXPAV?$map@IUFileIndexInfo@@U?$less@I@std@@V?$allocator@U?$pair@$$CBIUFileIndexInfo@@@std@@@3@@2@@Z 64043990 f i update.obj
 0001:00042a50       ??$_Resetp@VArchiveUpdateProgress@@@?$shared_ptr@VArchiveUpdateProgress@@@tr1@std@@AAEXPAVArchiveUpdateProgress@@@Z 64043a50 f i update.obj
 0001:00042b10       ??$_Buynode@U?$pair@$$CBIUFileIndexInfo@@@std@@@?$_Tree_val@V?$_Tmap_traits@IUFileIndexInfo@@U?$less@I@std@@V?$allocator@U?$pair@$$CBIUFileIndexInfo@@@std@@@3@$0A@@std@@@std@@QAEPAU_Node@?$_Tree_nod@V?$_Tmap_traits@IUFileIndexInfo@@U?$less@I@std@@V?$allocator@U?$pair@$$CBIUFileIndexInfo@@@std@@@3@$0A@@std@@@1@$$QAU?$pair@$$CBIUFileIndexInfo@@@1@@Z 64043b10 f i update.obj
 0001:00042c10       ??$_Distance2@V?$_Tree_iterator@V?$_Tree_val@V?$_Tmap_traits@IUFileIndexInfo@@U?$less@I@std@@V?$allocator@U?$pair@$$CBIUFileIndexInfo@@@std@@@3@$0A@@std@@@std@@@std@@I@std@@YAXV?$_Tree_iterator@V?$_Tree_val@V?$_Tmap_traits@IUFileIndexInfo@@U?$less@I@std@@V?$allocator@U?$pair@$$CBIUFileIndexInfo@@@std@@@3@$0A@@std@@@std@@@0@0AAIUbidirectional_iterator_tag@0@@Z 64043c10 f i update.obj
 0001:00042c90       ??_G?$map@IUFileIndexInfo@@U?$less@I@std@@V?$allocator@U?$pair@$$CBIUFileIndexInfo@@@std@@@3@@std@@QAEPAXI@Z 64043c90 f i update.obj
 0001:00042d00       ?_Destroy@?$_Ref_count@V?$map@IUFileIndexInfo@@U?$less@I@std@@V?$allocator@U?$pair@$$CBIUFileIndexInfo@@@std@@@3@@std@@@tr1@std@@EAEXXZ 64043d00 f i update.obj
 0001:00042d70       ?_Destroy@?$_Ref_count@VArchiveUpdateProgress@@@tr1@std@@EAEXXZ 64043d70 f i update.obj
 0001:00042d70       ?_Destroy@?$_Ref_count@VExtractProgress@@@tr1@std@@EAEXXZ 64043d70 f i extract.obj
 0001:00042d70       ?_Destroy@?$_Ref_count@VArchiveFileDeleterProgress@@@tr1@std@@EAEXXZ 64043d70 f i delete.obj
 0001:00042d90       ??$_Uninit_move@PAVPropVariant@@PAV1@V?$allocator@VPropVariant@@@std@@V1@@std@@YAPAVPropVariant@@PAV1@00AAV?$allocator@VPropVariant@@@0@0U_Nonscalar_ptr_iterator_tag@0@@Z 64043d90 f i update.obj
 0001:00042e30       ??$_Lower_bound@PAIHHV<lambda0>@?A0x98363e99@@@std@@YAPAIPAI0ABHV<lambda0>@?A0x98363e99@@PAH@Z 64043e30 f i update.obj
 0001:00042f00       ??$_Upper_bound@PAIHHV<lambda0>@?A0x98363e99@@@std@@YAPAIPAI0ABHV<lambda0>@?A0x98363e99@@PAH@Z 64043f00 f i update.obj
 0001:00042fd0       ?Release@CachedFileExtractStream@@W3AGKXZ 64043fd0 f i extract.obj
 0001:00042fd0       ?Release@FileReadStream@@W3AGKXZ 64043fd0 f i update.obj
 0001:00042fd0       ?Release@ArchiveFileDeleterStream@@W3AGKXZ 64043fd0 f i delete.obj
 0001:00042fd0       ?Release@ArchiveFileDeleter@@W3AGKXZ 64043fd0 f i delete.obj
 0001:00042fd0       ?Release@ArchiveOpenStream@@W3AGKXZ 64043fd0 f i open.obj
 0001:00042fe0       ?Release@MultiVolumeUpdateStream@@WM@AGKXZ 64043fe0 f i update.obj
 0001:00042fe0       ?Release@SimpleUpdateStream@@WM@AGKXZ 64043fe0 f i update.obj
 0001:00042fe0       ?Release@SfxUpdateStream@@WM@AGKXZ 64043fe0 f i update.obj
 0001:00042ff0       ??_EArchiveFileDeleterStream@@W3AEPAXI@Z 64043ff0 f i delete.obj
 0001:00042ff0       ??_EFileReadStream@@W3AEPAXI@Z 64043ff0 f i update.obj
 0001:00043000       ??_EArchiveUpdater@@W7AEPAXI@Z 64044000 f i update.obj
 0001:00043010       ??_ESimpleUpdateStream@@WM@AEPAXI@Z 64044010 f i update.obj
 0001:00043010       ??_ESfxUpdateStream@@WM@AEPAXI@Z 64044010 f i update.obj
 0001:00043020       ?QueryInterface@MultiVolumeUpdateStream@@WM@AGJABU_GUID@@PAPAX@Z 64044020 f i update.obj
 0001:00043020       ?QueryInterface@SimpleUpdateStream@@WM@AGJABU_GUID@@PAPAX@Z 64044020 f i update.obj
 0001:00043020       ?QueryInterface@SfxUpdateStream@@WM@AGJABU_GUID@@PAPAX@Z 64044020 f i update.obj
 0001:00043030       ?QueryInterface@ArchiveUpdater@@W3AGJABU_GUID@@PAPAX@Z 64044030 f i update.obj
 0001:00043040       ?AddRef@ArchiveOpener@@WM@AGKXZ 64044040 f i open.obj
 0001:00043040       ?AddRef@SfxUpdateStream@@WM@AGKXZ 64044040 f i update.obj
 0001:00043040       ?AddRef@SimpleUpdateStream@@WM@AGKXZ 64044040 f i update.obj
 0001:00043040       ?AddRef@MultiVolumeUpdateStream@@WM@AGKXZ 64044040 f i update.obj
 0001:00043050       ?QueryInterface@ArchiveUpdater@@W7AGJABU_GUID@@PAPAX@Z 64044050 f i update.obj
 0001:00043060       ??_EMultiVolumeUpdateStream@@WM@AEPAXI@Z 64044060 f i update.obj
 0001:00043070       ?do_update_ui@ArchiveFileDeleterProgress@@EAEXXZ 64044070 f i delete.obj
 0001:000435e0       ??_EPrepareExtract@@UAEPAXI@Z 640445e0 f i  CIL library: CIL module
 0001:000435e0       ??_GDeleteSrcFiles@@UAEPAXI@Z 640445e0 f i update.obj
 0001:000435e0       ??_EProgressMonitor@@UAEPAXI@Z 640445e0 f i  CIL library: CIL module
 0001:000435e0       ??_GArchiveFileDeleterProgress@@UAEPAXI@Z 640445e0 f i delete.obj
 0001:000435e0       ??_GSetDirAttr@@UAEPAXI@Z  640445e0 f i extract.obj
 0001:000435e0       ??_EArchiveFileDeleterProgress@@UAEPAXI@Z 640445e0 f i  CIL library: CIL module
 0001:000435e0       ??_GProgressMonitor@@UAEPAXI@Z 640445e0 f i ui.obj
 0001:000435e0       ??_GPrepareExtract@@UAEPAXI@Z 640445e0 f i extract.obj
 0001:000435e0       ??_EDeleteSrcFiles@@UAEPAXI@Z 640445e0 f i  CIL library: CIL module
 0001:000435e0       ??_ESetDirAttr@@UAEPAXI@Z  640445e0 f i  CIL library: CIL module
 0001:00043600       ??0ArchiveFileDeleterStream@@QAE@ABV?$basic_string@_WU?$char_traits@_W@std@@V?$allocator@_W@2@@std@@V?$shared_ptr@VProgressMonitor@@@tr1@2@@Z 64044600 f i delete.obj
 0001:00043750       ?QueryInterface@ArchiveFileDeleterStream@@UAGJABU_GUID@@PAPAX@Z 64044750 f i delete.obj
 0001:000437f0       ?Write@ArchiveFileDeleterStream@@UAGJPBXIPAI@Z 640447f0 f i delete.obj
 0001:00043920       ?SetSize@ArchiveFileDeleterStream@@UAGJ_K@Z 64044920 f i delete.obj
 0001:00043a50       ??0ArchiveFileDeleter@@QAE@ABV?$vector@IV?$allocator@I@std@@@std@@V?$shared_ptr@VArchiveFileDeleterProgress@@@tr1@2@@Z 64044a50 f i delete.obj
 0001:00043b20       ?QueryInterface@ArchiveFileDeleter@@UAGJABU_GUID@@PAPAX@Z 64044b20 f i delete.obj
 0001:00043bc0       ?SetTotal@ArchiveFileDeleter@@UAGJ_K@Z 64044bc0 f i delete.obj
 0001:00043c90       ?SetCompleted@ArchiveFileDeleter@@UAGJPB_K@Z 64044c90 f i delete.obj
 0001:00043d70       ?GetUpdateItemInfo@ArchiveFileDeleter@@UAGJIPAH0PAI@Z 64044d70 f i delete.obj
 0001:00043dd0       ?GetProperty@ArchiveFileDeleter@@UAGJIKPAUtagPROPVARIANT@@@Z 64044dd0 f i delete.obj
 0001:00043eb0       ?GetStream@ArchiveFileDeleter@@UAGJIPAPAUISequentialInStream@@@Z 64044eb0 f i delete.obj
 0001:00043ef0       ??_EArchiveFileDeleter@@UAEPAXI@Z 64044ef0 f i  CIL library: CIL module
 0001:00043ef0       ??_GArchiveFileDeleter@@UAEPAXI@Z 64044ef0 f i delete.obj
 0001:00043f10       ??1ArchiveFileDeleter@@UAE@XZ 64044f10 f i delete.obj
 0001:00043fb0       ?enum_deleted_indices@Archive@@AAEXIAAV?$vector@IV?$allocator@I@std@@@std@@@Z 64044fb0 f   delete.obj
 0001:00044070       ?delete_files@Archive@@QAEXABV?$vector@IV?$allocator@I@std@@@std@@@Z 64045070 f   delete.obj
 0001:00044780       ??$_Set_difference@PAIPAIV?$back_insert_iterator@V?$vector@IV?$allocator@I@std@@@std@@@std@@@std@@YA?AV?$back_insert_iterator@V?$vector@IV?$allocator@I@std@@@std@@@0@PAI000V10@@Z 64045780 f i delete.obj
 0001:000448f0       ??$_Resetp@VArchiveFileDeleterProgress@@@?$shared_ptr@VArchiveFileDeleterProgress@@@tr1@std@@AAEXPAVArchiveFileDeleterProgress@@@Z 640458f0 f i delete.obj
 0001:000449b0       ??_E?$_Ref_count@VArchive@@@tr1@std@@UAEPAXI@Z 640459b0 f i  CIL library: CIL module
 0001:000449b0       ??_G_Ref_count_base@tr1@std@@UAEPAXI@Z 640459b0 f i plugin.obj
 0001:000449b0       ??_E?$_Ref_count@VFileWriteCache@@@tr1@std@@UAEPAXI@Z 640459b0 f i  CIL library: CIL module
 0001:000449b0       ??_G?$_Ref_count@VExtractProgress@@@tr1@std@@UAEPAXI@Z 640459b0 f i extract.obj
 0001:000449b0       ??_E?$_Ref_count@VExtractProgress@@@tr1@std@@UAEPAXI@Z 640459b0 f i  CIL library: CIL module
 0001:000449b0       ??_G?$_Ref_count@W4OverwriteAction@@@tr1@std@@UAEPAXI@Z 640459b0 f i extract.obj
 0001:000449b0       ??_E?$_Ref_count@V?$set@IU?$less@I@std@@V?$allocator@I@2@@std@@@tr1@std@@UAEPAXI@Z 640459b0 f i  CIL library: CIL module
 0001:000449b0       ??_G?$_Ref_count@VFileWriteCache@@@tr1@std@@UAEPAXI@Z 640459b0 f i extract.obj
 0001:000449b0       ??_E?$_Ref_count@W4OverwriteAction@@@tr1@std@@UAEPAXI@Z 640459b0 f i  CIL library: CIL module
 0001:000449b0       ??_G?$_Ref_count@V?$set@IU?$less@I@std@@V?$allocator@I@2@@std@@@tr1@std@@UAEPAXI@Z 640459b0 f i extract.obj
 0001:000449b0       ??_E?$_Ref_count@V?$list@UError@@V?$allocator@UError@@@std@@@std@@@tr1@std@@UAEPAXI@Z 640459b0 f i  CIL library: CIL module
 0001:000449b0       ??_G?$_Ref_count@VArchiveUpdateProgress@@@tr1@std@@UAEPAXI@Z 640459b0 f i update.obj
 0001:000449b0       ??_E?$_Ref_count@VFileFilter@Far@@@tr1@std@@UAEPAXI@Z 640459b0 f i  CIL library: CIL module
 0001:000449b0       ??_G?$_Ref_count@_N@tr1@std@@UAEPAXI@Z 640459b0 f i extract.obj
 0001:000449b0       ??_G?$_Ref_count@VArchive@@@tr1@std@@UAEPAXI@Z 640459b0 f i plugin.obj
 0001:000449b0       ??_G?$_Ref_count@V?$list@UError@@V?$allocator@UError@@@std@@@std@@@tr1@std@@UAEPAXI@Z 640459b0 f i plugin.obj
 0001:000449b0       ??_E?$_Ref_count@VArchiveUpdateProgress@@@tr1@std@@UAEPAXI@Z 640459b0 f i  CIL library: CIL module
 0001:000449b0       ??_G?$_Ref_count@VArchiveFileDeleterProgress@@@tr1@std@@UAEPAXI@Z 640459b0 f i delete.obj
 0001:000449b0       ??_G?$_Ref_count_del@XV<lambda11>@?A0xc5e9a1c5@@@tr1@std@@UAEPAXI@Z 640459b0 f i plugin.obj
 0001:000449b0       ??_G?$_Ref_count@VFileFilter@Far@@@tr1@std@@UAEPAXI@Z 640459b0 f i ui.obj
 0001:000449b0       ??_G?$_Ref_count@V?$map@IUFileIndexInfo@@U?$less@I@std@@V?$allocator@U?$pair@$$CBIUFileIndexInfo@@@std@@@3@@std@@@tr1@std@@UAEPAXI@Z 640459b0 f i update.obj
 0001:000449b0       ??_E?$_Ref_count_del@XV<lambda11>@?A0xc5e9a1c5@@@tr1@std@@UAEPAXI@Z 640459b0 f i  CIL library: CIL module
 0001:000449b0       ??_E_Ref_count_base@tr1@std@@UAEPAXI@Z 640459b0 f i  CIL library: CIL module
 0001:000449b0       ??_E?$_Ref_count@VArchiveFileDeleterProgress@@@tr1@std@@UAEPAXI@Z 640459b0 f i  CIL library: CIL module
 0001:000449b0       ??_E?$_Ref_count@V?$map@IUFileIndexInfo@@U?$less@I@std@@V?$allocator@U?$pair@$$CBIUFileIndexInfo@@@std@@@3@@std@@@tr1@std@@UAEPAXI@Z 640459b0 f i  CIL library: CIL module
 0001:000449b0       ??_E?$_Ref_count@_N@tr1@std@@UAEPAXI@Z 640459b0 f i  CIL library: CIL module
 0001:000449d0       ?QueryInterface@ArchiveFileDeleterStream@@W3AGJABU_GUID@@PAPAX@Z 640459d0 f i delete.obj
 0001:000449e0       ??_EArchiveFileDeleter@@W3AEPAXI@Z 640459e0 f i delete.obj
 0001:000449f0       ?AddRef@FileReadStream@@W3AGKXZ 640459f0 f i update.obj
 0001:000449f0       ?AddRef@ArchiveFileDeleter@@W3AGKXZ 640459f0 f i delete.obj
 0001:000449f0       ?AddRef@CachedFileExtractStream@@W3AGKXZ 640459f0 f i extract.obj
 0001:000449f0       ?AddRef@ArchiveOpenStream@@W3AGKXZ 640459f0 f i open.obj
 0001:000449f0       ?AddRef@ArchiveFileDeleterStream@@W3AGKXZ 640459f0 f i delete.obj
 0001:00044a00       ?QueryInterface@ArchiveFileDeleter@@W3AGJABU_GUID@@PAPAX@Z 64045a00 f i delete.obj
 0001:00044a10       ?get_str@OptionsKey@@QAE?AV?$basic_string@_WU?$char_traits@_W@std@@V?$allocator@_W@2@@std@@PB_WABV23@@Z 64045a10 f i options.obj
 0001:00044b30       ?get_binary@OptionsKey@@QAE?AV?$vector@EV?$allocator@E@std@@@std@@PB_WABV23@@Z 64045b30 f i options.obj
 0001:00044bf0       ?set_bool@OptionsKey@@QAEXPB_W_N1@Z 64045bf0 f i options.obj
 0001:00044c60       ?set_str@OptionsKey@@QAEXPB_WABV?$basic_string@_WU?$char_traits@_W@std@@V?$allocator@_W@2@@std@@1@Z 64045c60 f i options.obj
 0001:00044cf0       ??0Options@@QAE@XZ         64045cf0 f   options.obj
 0001:00044e70       ?load_sfx_options@@YAXAAVOptionsKey@@AAUSfxOptions@@@Z 64045e70 f   options.obj
 0001:00045450       ?save_sfx_options@@YAXAAVOptionsKey@@ABUSfxOptions@@@Z 64046450 f   options.obj
 0001:00045680       ?load@Options@@QAEXXZ      64046680 f   options.obj
 0001:00045ff0       ??1OptionsKey@@QAE@XZ      64046ff0 f i options.obj
 0001:00046020       ?save@Options@@QBEXXZ      64047020 f   options.obj
 0001:00046a50       ?get_profile_key_name@@YA?AV?$basic_string@_WU?$char_traits@_W@std@@V?$allocator@_W@2@@std@@ABV12@@Z 64047a50 f   options.obj
 0001:00046b30       ??0ProfileOptions@@QAE@XZ  64047b30 f   options.obj
 0001:00046bc0       ??0UpdateOptions@@QAE@XZ   64047bc0 f   options.obj
 0001:00046c10       ??0SfxOptions@@QAE@XZ      64047c10 f   options.obj
 0001:00046d20       ?load@UpdateProfiles@@QAEXXZ 64047d20 f   options.obj
 0001:000475e0       ?save@UpdateProfiles@@QBEXXZ 640485e0 f   options.obj
 0001:000477f0       ?find_by_name@UpdateProfiles@@QAEIABV?$basic_string@_WU?$char_traits@_W@std@@V?$allocator@_W@2@@std@@@Z 640487f0 f   options.obj
 0001:000479e0       ?find_by_options@UpdateProfiles@@QAEIABUUpdateOptions@@@Z 640489e0 f   options.obj
 0001:00047a60       ?update@UpdateProfiles@@QAEXABV?$basic_string@_WU?$char_traits@_W@std@@V?$allocator@_W@2@@std@@ABUUpdateOptions@@@Z 64048a60 f   options.obj
 0001:00047d00       ?push_back@?$vector@UUpdateProfile@@V?$allocator@UUpdateProfile@@@std@@@std@@QAEXABUUpdateProfile@@@Z 64048d00 f i options.obj
 0001:00047e10       ?_Reserve@?$vector@UUpdateProfile@@V?$allocator@UUpdateProfile@@@std@@@std@@IAEXI@Z 64048e10 f i options.obj
 0001:00047e80       ?reserve@?$vector@UUpdateProfile@@V?$allocator@UUpdateProfile@@@std@@@std@@QAEXI@Z 64048e80 f i options.obj
 0001:00047f80       ?allocate@?$allocator@UUpdateProfile@@@std@@QAEPAUUpdateProfile@@I@Z 64048f80 f i options.obj
 0001:00047fe0       ??$_For_each@PBUUpdateProfile@@V<lambda0>@?A0xc33845b5@@@std@@YA?AV<lambda0>@?A0xc33845b5@@PBUUpdateProfile@@0V12@@Z 64048fe0 f i options.obj
 0001:00048950       ??$_Sort@PAUUpdateProfile@@HV<lambda1>@?A0xc33845b5@@@std@@YAXPAUUpdateProfile@@0HV<lambda1>@?A0xc33845b5@@@Z 64049950 f i options.obj
 0001:00048aa0       ??$_Unguarded_partition@PAUUpdateProfile@@V<lambda1>@?A0xc33845b5@@@std@@YA?AU?$pair@PAUUpdateProfile@@PAU1@@0@PAUUpdateProfile@@0V<lambda1>@?A0xc33845b5@@@Z 64049aa0 f i options.obj
 0001:00048ca0       ??$_Uninit_move@PAUUpdateProfile@@PAU1@V?$allocator@UUpdateProfile@@@std@@U1@@std@@YAPAUUpdateProfile@@PAU1@00AAV?$allocator@UUpdateProfile@@@0@0U_Nonscalar_ptr_iterator_tag@0@@Z 64049ca0 f i options.obj
 0001:00048d70       ??$_Median@PAUUpdateProfile@@V<lambda1>@?A0xc33845b5@@@std@@YAXPAUUpdateProfile@@00V<lambda1>@?A0xc33845b5@@@Z 64049d70 f i options.obj
 0001:00048f50       ??$_Make_heap@PAUUpdateProfile@@HU1@V<lambda1>@?A0xc33845b5@@@std@@YAXPAUUpdateProfile@@0V<lambda1>@?A0xc33845b5@@PAH0@Z 64049f50 f i options.obj
 0001:000490a0       ??$_Sort_heap@PAUUpdateProfile@@V<lambda1>@?A0xc33845b5@@@std@@YAXPAUUpdateProfile@@0V<lambda1>@?A0xc33845b5@@@Z 6404a0a0 f i options.obj
 0001:00049100       ??$_Insertion_sort1@PAUUpdateProfile@@V<lambda1>@?A0xc33845b5@@U1@@std@@YAXPAUUpdateProfile@@0V<lambda1>@?A0xc33845b5@@0@Z 6404a100 f i options.obj
 0001:000492d0       ??$swap@UUpdateProfile@@@std@@YAXAAUUpdateProfile@@0@Z 6404a2d0 f i options.obj
 0001:000493d0       ??$_Adjust_heap@PAUUpdateProfile@@HU1@V<lambda1>@?A0xc33845b5@@@std@@YAXPAUUpdateProfile@@HH$$QAU1@V<lambda1>@?A0xc33845b5@@@Z 6404a3d0 f i options.obj
 0001:000494a0       ??$_Push_heap@PAUUpdateProfile@@HU1@V<lambda1>@?A0xc33845b5@@@std@@YAXPAUUpdateProfile@@HH$$QAU1@V<lambda1>@?A0xc33845b5@@@Z 6404a4a0 f i options.obj
 0001:00049540       ??$_Pop_heap_0@PAUUpdateProfile@@U1@V<lambda1>@?A0xc33845b5@@@std@@YAXPAUUpdateProfile@@0V<lambda1>@?A0xc33845b5@@0@Z 6404a540 f i options.obj
 0001:00049670       ??$_Move_backward@PAUUpdateProfile@@PAU1@@std@@YAPAUUpdateProfile@@PAU1@00U_Nonscalar_ptr_iterator_tag@0@@Z 6404a670 f i options.obj
 0001:000496c0       ?create_state_matrix@@YAPAVStateMatrix@@ABV?$vector@V?$vector@EV?$allocator@E@std@@@std@@V?$allocator@V?$vector@EV?$allocator@E@std@@@std@@@2@@std@@@Z 6404a6c0 f   msearch.obj
 0001:00049820       ?msearch@@YA?AV?$vector@UStrPos@@V?$allocator@UStrPos@@@std@@@std@@PAEIABV?$vector@V?$vector@EV?$allocator@E@std@@@std@@V?$allocator@V?$vector@EV?$allocator@E@std@@@std@@@2@@2@@Z 6404a820 f   msearch.obj
 0001:00049be0       ?reserve@?$vector@UStrPos@@V?$allocator@UStrPos@@@std@@@std@@QAEXI@Z 6404abe0 f i msearch.obj
 0001:00049cb0       ??1?$auto_ptr@VStateMatrix@@@std@@QAE@XZ 6404acb0 f i msearch.obj
 0001:00049cd0       ??1?$vector@_NV?$allocator@_N@std@@@std@@QAE@XZ 6404acd0 f i msearch.obj
 0001:00049d00       ??0?$vector@UStrPos@@V?$allocator@UStrPos@@@std@@@std@@QAE@ABV01@@Z 6404ad00 f i msearch.obj
 0001:00049dc0       ?allocate@?$allocator@V?$shared_ptr@VArchive@@@tr1@std@@@std@@QAEPAV?$shared_ptr@VArchive@@@tr1@2@I@Z 6404adc0 f i open.obj
 0001:00049dc0       ?allocate@?$allocator@UStrPos@@@std@@QAEPAUStrPos@@I@Z 6404adc0 f i msearch.obj
 0001:00049e20       ?_Trim@?$vector@_NV?$allocator@_N@std@@@std@@QAEXI@Z 6404ae20 f i msearch.obj
 0001:00049ea0       ??$_Sort@PAUStrPos@@H@std@@YAXPAUStrPos@@0H@Z 6404aea0 f i msearch.obj
 0001:00049f70       ??$_Unguarded_partition@PAUStrPos@@@std@@YA?AU?$pair@PAUStrPos@@PAU1@@0@PAUStrPos@@0@Z 6404af70 f i msearch.obj
 0001:0004a130       ??$_Uninit_move@PAUStrPos@@PAU1@V?$allocator@UStrPos@@@std@@U1@@std@@YAPAUStrPos@@PAU1@00AAV?$allocator@UStrPos@@@0@0U_Nonscalar_ptr_iterator_tag@0@@Z 6404b130 f i msearch.obj
 0001:0004a150       ??$_Uninit_copy@V?$_Vector_const_iterator@V?$_Vector_val@UStrPos@@V?$allocator@UStrPos@@@std@@@std@@@std@@PAUStrPos@@V?$allocator@UStrPos@@@2@@std@@YAPAUStrPos@@V?$_Vector_const_iterator@V?$_Vector_val@UStrPos@@V?$allocator@UStrPos@@@std@@@std@@@0@0PAU1@AAV?$allocator@UStrPos@@@0@U_Nonscalar_ptr_iterator_tag@0@@Z 6404b150 f i msearch.obj
 0001:0004a180       ??$_Median@PAUStrPos@@@std@@YAXPAUStrPos@@00@Z 6404b180 f i msearch.obj
 0001:0004a410       ??$_Make_heap@PAUStrPos@@HU1@@std@@YAXPAUStrPos@@0PAH0@Z 6404b410 f i msearch.obj
 0001:0004a4f0       ??$_Sort_heap@PAUStrPos@@@std@@YAXPAUStrPos@@0@Z 6404b4f0 f i msearch.obj
 0001:0004a550       ??$_Insertion_sort1@PAUStrPos@@U1@@std@@YAXPAUStrPos@@00@Z 6404b550 f i msearch.obj
 0001:0004a5c0       ??$_Adjust_heap@PAUStrPos@@HU1@@std@@YAXPAUStrPos@@HH$$QAU1@@Z 6404b5c0 f i msearch.obj
 0001:0004a650       ?is_int@PropVariant@@QBE_NXZ 6404b650 f i attr.obj
 0001:0004a680       ?uint_to_hex_str@@YA?AV?$basic_string@_WU?$char_traits@_W@std@@V?$allocator@_W@2@@std@@_KI@Z 6404b680 f   attr.obj
 0001:0004a720       ?format_str_prop@@YA?AV?$basic_string@_WU?$char_traits@_W@std@@V?$allocator@_W@2@@std@@ABVPropVariant@@@Z 6404b720 f   attr.obj
 0001:0004a780       ?format_int_prop@@YA?AV?$basic_string@_WU?$char_traits@_W@std@@V?$allocator@_W@2@@std@@ABVPropVariant@@@Z 6404b780 f   attr.obj
 0001:0004a9c0       ?format_uint_prop@@YA?AV?$basic_string@_WU?$char_traits@_W@std@@V?$allocator@_W@2@@std@@ABVPropVariant@@@Z 6404b9c0 f   attr.obj
 0001:0004abf0       ?format_size_prop@@YA?AV?$basic_string@_WU?$char_traits@_W@std@@V?$allocator@_W@2@@std@@ABVPropVariant@@@Z 6404bbf0 f   attr.obj
 0001:0004aeb0       ?format_filetime_prop@@YA?AV?$basic_string@_WU?$char_traits@_W@std@@V?$allocator@_W@2@@std@@ABVPropVariant@@@Z 6404beb0 f   attr.obj
 0001:0004b070       ?format_crc_prop@@YA?AV?$basic_string@_WU?$char_traits@_W@std@@V?$allocator@_W@2@@std@@ABVPropVariant@@@Z 6404c070 f   attr.obj
 0001:0004b260       ?format_attrib_prop@@YA?AV?$basic_string@_WU?$char_traits@_W@std@@V?$allocator@_W@2@@std@@ABVPropVariant@@@Z 6404c260 f   attr.obj
 0001:0004b3f0       ?format_posix_attrib_prop@@YA?AV?$basic_string@_WU?$char_traits@_W@std@@V?$allocator@_W@2@@std@@ABVPropVariant@@@Z 6404c3f0 f   attr.obj
 0001:0004b7c0       ?get_attr_list@Archive@@QAE?AV?$list@UAttr@@V?$allocator@UAttr@@@std@@@std@@I@Z 6404c7c0 f   attr.obj
 0001:0004bec0       ?load_arc_attr@Archive@@AAEXXZ 6404cec0 f   attr.obj
 0001:0004d360       ??R<lambda0>@?A0xf01732b4@@QBEXABV?$basic_string@_WU?$char_traits@_W@std@@V?$allocator@_W@2@@std@@@Z 6404e360 f i attr.obj
 0001:0004d490       ?load_update_props@Archive@@QAEXXZ 6404e490 f   attr.obj
 0001:0004d780       ??$?H_WU?$char_traits@_W@std@@V?$allocator@_W@1@@std@@YA?AV?$basic_string@_WU?$char_traits@_W@std@@V?$allocator@_W@2@@0@ABV10@PB_W@Z 6404e780 f i attr.obj
 0001:0004d870       ??$_For_each@V?$_Tree_unchecked_const_iterator@V?$_Tree_val@V?$_Tset_traits@V?$basic_string@_WU?$char_traits@_W@std@@V?$allocator@_W@2@@std@@U?$less@V?$basic_string@_WU?$char_traits@_W@std@@V?$allocator@_W@2@@std@@@2@V?$allocator@V?$basic_string@_WU?$char_traits@_W@std@@V?$allocator@_W@2@@std@@@2@$0A@@std@@@std@@U_Iterator_base0@2@@std@@V<lambda0>@?A0xf01732b4@@@std@@YA?AV<lambda0>@?A0xf01732b4@@V?$_Tree_unchecked_const_iterator@V?$_Tree_val@V?$_Tset_traits@V?$basic_string@_WU?$char_traits@_W@std@@V?$allocator@_W@2@@std@@U?$less@V?$basic_string@_WU?$char_traits@_W@std@@V?$allocator@_W@2@@std@@@2@V?$allocator@V?$basic_string@_WU?$char_traits@_W@std@@V?$allocator@_W@2@@std@@@2@$0A@@std@@@std@@U_Iterator_base0@2@@0@0V12@@Z 6404e870 f i attr.obj
 0001:0004d900       ?do_update_ui@ArchiveTester@@EAEXXZ 6404e900 f i test.obj
 0001:0004de20       ??0ArchiveTester@@QAE@IV?$shared_ptr@VArchive@@@tr1@std@@@Z 6404ee20 f i test.obj
 0001:0004dfa0       ?SetTotal@ArchiveTester@@UAGJ_K@Z 6404efa0 f i test.obj
 0001:0004e070       ?SetCompleted@ArchiveTester@@UAGJPB_K@Z 6404f070 f i test.obj
 0001:0004e150       ?GetStream@ArchiveTester@@UAGJIPAPAUISequentialOutStream@@H@Z 6404f150 f i test.obj
 0001:0004e290       ?SetOperationResult@ArchiveTester@@UAGJH@Z 6404f290 f i test.obj
 0001:0004e520       ?CryptoGetTextPassword@ArchiveTester@@UAGJPAPA_W@Z 6404f520 f i test.obj
 0001:0004e6e0       ??_EArchiveTester@@UAEPAXI@Z 6404f6e0 f i  CIL library: CIL module
 0001:0004e6e0       ??_GArchiveTester@@UAEPAXI@Z 6404f6e0 f i test.obj
 0001:0004e700       ??1ArchiveTester@@UAE@XZ   6404f700 f i test.obj
 0001:0004e7c0       ?prepare_test@Archive@@AAEXIAAV?$list@IV?$allocator@I@std@@@std@@@Z 6404f7c0 f   test.obj
 0001:0004e860       ?test@Archive@@QAEXIABV?$vector@IV?$allocator@I@std@@@std@@@Z 6404f860 f   test.obj
 0001:0004ec00       ??_EArchiveTester@@W7AEPAXI@Z 6404fc00 f i test.obj
 0001:0004ec10       ?Release@ArchiveUpdater@@W7AGKXZ 6404fc10 f i update.obj
 0001:0004ec10       ?Release@ArchiveTester@@W7AGKXZ 6404fc10 f i test.obj
 0001:0004ec10       ?Release@ArchiveExtractor@@W7AGKXZ 6404fc10 f i extract.obj
 0001:0004ec20       ??_EArchiveTester@@WBA@AEPAXI@Z 6404fc20 f i test.obj
 0001:0004ec30       ?AddRef@ArchiveUpdater@@W7AGKXZ 6404fc30 f i update.obj
 0001:0004ec30       ?AddRef@ArchiveTester@@W7AGKXZ 6404fc30 f i test.obj
 0001:0004ec30       ?AddRef@ArchiveExtractor@@W7AGKXZ 6404fc30 f i extract.obj
 0001:0004ec40       ?QueryInterface@ArchiveExtractor@@W7AGJABU_GUID@@PAPAX@Z 6404fc40 f i extract.obj
 0001:0004ec40       ?QueryInterface@ArchiveTester@@W7AGJABU_GUID@@PAPAX@Z 6404fc40 f i test.obj
 0001:0004ec50       ?calc_percent@@YAI_K0@Z    6404fc50 f   common.obj
 0001:0004ed10       ?get_module_version@@YA_KABV?$basic_string@_WU?$char_traits@_W@std@@V?$allocator@_W@2@@std@@@Z 6404fd10 f   common.obj
 0001:0004edb0       ?parse_size_string@@YA_KABV?$basic_string@_WU?$char_traits@_W@std@@V?$allocator@_W@2@@std@@@Z 6404fdb0 f   common.obj
 0001:0004ef00       ?expand_macros@@YA?AV?$basic_string@_WU?$char_traits@_W@std@@V?$allocator@_W@2@@std@@ABV12@@Z 6404ff00 f   common.obj
 0001:0004f260       ?load_file@@YA?AV?$basic_string@_WU?$char_traits@_W@std@@V?$allocator@_W@2@@std@@ABV12@PAI@Z 64050260 f   common.obj
 0001:0004f460       ?auto_rename@@YA?AV?$basic_string@_WU?$char_traits@_W@std@@V?$allocator@_W@2@@std@@ABV12@@Z 64050460 f   common.obj
 0001:0004f6c0       ?do_update_ui@AttachSfxModuleProgress@@EAEXXZ 640506c0 f i sfx.obj
 0001:0004f8d0       ??0AttachSfxModuleProgress@@QAE@ABV?$basic_string@_WU?$char_traits@_W@std@@V?$allocator@_W@2@@std@@@Z 640508d0 f i sfx.obj
 0001:0004f9b0       ??_GPrepareUpdate@@UAEPAXI@Z 640509b0 f i update.obj
 0001:0004f9b0       ??_EAttachSfxModuleProgress@@UAEPAXI@Z 640509b0 f i  CIL library: CIL module
 0001:0004f9b0       ??_EPrepareUpdate@@UAEPAXI@Z 640509b0 f i  CIL library: CIL module
 0001:0004f9b0       ??_GAttachSfxModuleProgress@@UAEPAXI@Z 640509b0 f i sfx.obj
 0001:0004fa10       ??1AttachSfxModuleProgress@@UAE@XZ 64050a10 f i sfx.obj
 0001:0004fa50       ?generate_install_config@@YA?AV?$vector@EV?$allocator@E@std@@@std@@ABUSfxInstallConfig@@@Z 64050a50 f   sfx.obj
 0001:0004ffa0       ?create_sfx_module@@YAXABV?$basic_string@_WU?$char_traits@_W@std@@V?$allocator@_W@2@@std@@ABUSfxOptions@@@Z 64050fa0 f   sfx.obj
 0001:00050450       ?attach_sfx_module@@YAXABV?$basic_string@_WU?$char_traits@_W@std@@V?$allocator@_W@2@@std@@ABUSfxOptions@@@Z 64051450 f   sfx.obj
 0001:00050b30       ?set_control_state@SfxOptionsDialog@@AAEXXZ 64051b30 f i sfx.obj
 0001:00050e70       ?read_controls@SfxOptionsDialog@@AAE?AUSfxOptions@@XZ 64051e70 f i sfx.obj
 0001:00051630       ?write_controls@SfxOptionsDialog@@AAEXABUSfxOptions@@@Z 64052630 f i sfx.obj
 0001:00051990       ?dialog_proc@SfxOptionsDialog@@EAEHHHPAX@Z 64052990 f i sfx.obj
 0001:00051d20       ??0SfxOptionsDialog@@QAE@AAUSfxOptions@@ABUUpdateProfiles@@@Z 64052d20 f i sfx.obj
 0001:00051e20       ?show@SfxOptionsDialog@@QAE_NXZ 64052e20 f i sfx.obj
 0001:00053090       ?sfx_options_dialog@@YA_NAAUSfxOptions@@ABUUpdateProfiles@@@Z 64054090 f   sfx.obj
 0001:00053100       ??1SfxOptionsDialog@@QAE@XZ 64054100 f i sfx.obj
 0001:00053170       ??1?$vector@USfxProfile@@V?$allocator@USfxProfile@@@std@@@std@@QAE@XZ 64054170 f i sfx.obj
 0001:000531b0       ?push_back@?$vector@USfxProfile@@V?$allocator@USfxProfile@@@std@@@std@@QAEXABUSfxProfile@@@Z 640541b0 f i sfx.obj
 0001:000532c0       ?_Reserve@?$vector@USfxProfile@@V?$allocator@USfxProfile@@@std@@@std@@IAEXI@Z 640542c0 f i sfx.obj
 0001:00053330       ?reserve@?$vector@USfxProfile@@V?$allocator@USfxProfile@@@std@@@std@@QAEXI@Z 64054330 f i sfx.obj
 0001:00053430       ?allocate@?$allocator@USfxProfile@@@std@@QAEPAUSfxProfile@@I@Z 64054430 f i sfx.obj
 0001:00053490       ??$_Construct@V?$_String_iterator@DU?$char_traits@D@std@@V?$allocator@D@2@@std@@@?$vector@EV?$allocator@E@std@@@std@@QAEXV?$_String_iterator@DU?$char_traits@D@std@@V?$allocator@D@2@@1@0Uinput_iterator_tag@1@@Z 64054490 f i sfx.obj
 0001:00053500       ??$_For_each@PBUUpdateProfile@@V<lambda0>@?A0x0c4375f2@@@std@@YA?AV<lambda0>@?A0x0c4375f2@@PBUUpdateProfile@@0V12@@Z 64054500 f i sfx.obj
 0001:00053740       ??$_For_each@PBUSfxModule@@V<lambda1>@?A0x0c4375f2@@@std@@YA?AV<lambda1>@?A0x0c4375f2@@PBUSfxModule@@0V12@@Z 64054740 f i sfx.obj
 0001:00053800       ??$_Destroy_range@V?$allocator@USfxProfile@@@std@@@std@@YAXPAUSfxProfile@@0AAV?$allocator@USfxProfile@@@0@U_Nonscalar_ptr_iterator_tag@0@@Z 64054800 f i sfx.obj
 0001:000538b0       ??$_Uninit_move@PAUSfxProfile@@PAU1@V?$allocator@USfxProfile@@@std@@U1@@std@@YAPAUSfxProfile@@PAU1@00AAV?$allocator@USfxProfile@@@0@0U_Nonscalar_ptr_iterator_tag@0@@Z 640548b0 f i sfx.obj
 0001:00053970       ??$_Dest_val@V?$allocator@USfxProfile@@@std@@USfxProfile@@@std@@YAXAAV?$allocator@USfxProfile@@@0@PAUSfxProfile@@@Z 64054970 f i sfx.obj
 0001:00053970       ??1SfxProfile@@QAE@XZ      64054970 f i sfx.obj
 0001:000539a0       ??$_Insert@V?$_String_iterator@DU?$char_traits@D@std@@V?$allocator@D@2@@std@@@?$vector@EV?$allocator@E@std@@@std@@QAEXV?$_Vector_const_iterator@V?$_Vector_val@EV?$allocator@E@std@@@std@@@1@V?$_String_iterator@DU?$char_traits@D@std@@V?$allocator@D@2@@1@1Uforward_iterator_tag@1@@Z 640549a0 f i sfx.obj
 0001:00053b10       ?lc@@YA?AV?$basic_string@_WU?$char_traits@_W@std@@V?$allocator@_W@2@@std@@ABV12@@Z 64054b10 f   cmdline.obj
 0001:00053c70       ?parse_command@@YA?AUCommandArgs@@ABV?$basic_string@_WU?$char_traits@_W@std@@V?$allocator@_W@2@@std@@@Z 64054c70 f   cmdline.obj
 0001:00053f40       ?parse_param@@YA?AUParam@@ABV?$basic_string@_WU?$char_traits@_W@std@@V?$allocator@_W@2@@std@@@Z 64054f40 f   cmdline.obj
 0001:00054110       ?parse_bool_value@@YA_NABV?$basic_string@_WU?$char_traits@_W@std@@V?$allocator@_W@2@@std@@@Z 64055110 f   cmdline.obj
 0001:00054200       ?parse_tri_state_value@@YA?AW4TriState@@ABV?$basic_string@_WU?$char_traits@_W@std@@V?$allocator@_W@2@@std@@@Z 64055200 f   cmdline.obj
 0001:00054320       ?parse_listfile@@YA?AV?$list@V?$basic_string@_WU?$char_traits@_W@std@@V?$allocator@_W@2@@std@@V?$allocator@V?$basic_string@_WU?$char_traits@_W@std@@V?$allocator@_W@2@@std@@@2@@std@@ABV?$basic_string@_WU?$char_traits@_W@std@@V?$allocator@_W@2@@2@@Z 64055320 f   cmdline.obj
 0001:000544e0       ?parse_open_command@@YA?AUOpenCommand@@ABUCommandArgs@@@Z 640554e0 f   cmdline.obj
 0001:00054bd0       ?parse_update_command@@YA?AUUpdateCommand@@ABUCommandArgs@@@Z 64055bd0 f   cmdline.obj
 0001:00055fa0       ??0UpdateCommand@@QAE@XZ   64056fa0 f i cmdline.obj
 0001:00056010       ?parse_extract_command@@YA?AUExtractCommand@@ABUCommandArgs@@@Z 64057010 f   cmdline.obj
 0001:000568c0       ?parse_test_command@@YA?AUTestCommand@@ABUCommandArgs@@@Z 640578c0 f   cmdline.obj
 0001:00056a80       ??0?$vector@V?$basic_string@_WU?$char_traits@_W@std@@V?$allocator@_W@2@@std@@V?$allocator@V?$basic_string@_WU?$char_traits@_W@std@@V?$allocator@_W@2@@std@@@2@@std@@QAE@ABV01@@Z 64057a80 f i cmdline.obj
 0001:00056b60       ?erase@?$vector@V?$basic_string@_WU?$char_traits@_W@std@@V?$allocator@_W@2@@std@@V?$allocator@V?$basic_string@_WU?$char_traits@_W@std@@V?$allocator@_W@2@@std@@@2@@std@@QAE?AV?$_Vector_iterator@V?$_Vector_val@V?$basic_string@_WU?$char_traits@_W@std@@V?$allocator@_W@2@@std@@V?$allocator@V?$basic_string@_WU?$char_traits@_W@std@@V?$allocator@_W@2@@std@@@2@@std@@@2@V?$_Vector_const_iterator@V?$_Vector_val@V?$basic_string@_WU?$char_traits@_W@std@@V?$allocator@_W@2@@std@@V?$allocator@V?$basic_string@_WU?$char_traits@_W@std@@V?$allocator@_W@2@@std@@@2@@std@@@2@@Z 64057b60 f i cmdline.obj
 0001:00056bd0       ??$_Find@PAPB_WV?$basic_string@_WU?$char_traits@_W@std@@V?$allocator@_W@2@@std@@@std@@YAPAPB_WPAPB_W0ABV?$basic_string@_WU?$char_traits@_W@std@@V?$allocator@_W@2@@0@@Z 64057bd0 f i cmdline.obj
 0001:00056c90       ??$_Uninit_copy@V?$_Vector_const_iterator@V?$_Vector_val@V?$basic_string@_WU?$char_traits@_W@std@@V?$allocator@_W@2@@std@@V?$allocator@V?$basic_string@_WU?$char_traits@_W@std@@V?$allocator@_W@2@@std@@@2@@std@@@std@@PAV?$basic_string@_WU?$char_traits@_W@std@@V?$allocator@_W@2@@2@V?$allocator@V?$basic_string@_WU?$char_traits@_W@std@@V?$allocator@_W@2@@std@@@2@@std@@YAPAV?$basic_string@_WU?$char_traits@_W@std@@V?$allocator@_W@2@@0@V?$_Vector_const_iterator@V?$_Vector_val@V?$basic_string@_WU?$char_traits@_W@std@@V?$allocator@_W@2@@std@@V?$allocator@V?$basic_string@_WU?$char_traits@_W@std@@V?$allocator@_W@2@@std@@@2@@std@@@0@0PAV10@AAV?$allocator@V?$basic_string@_WU?$char_traits@_W@std@@V?$allocator@_W@2@@std@@@0@U_Nonscalar_ptr_iterator_tag@0@@Z 64057c90 f i cmdline.obj
 0001:00056d50       ??0RsrcId@@QAE@PB_W@Z      64057d50 f i rsrc.obj
 0001:00056df0       ??BRsrcId@@QBEPB_WXZ       64057df0 f i rsrc.obj
 0001:00056e10       ?load_icon_file@@YA?AV?$list@UIconImage@@V?$allocator@UIconImage@@@std@@@std@@ABV?$basic_string@_WU?$char_traits@_W@std@@V?$allocator@_W@2@@2@@Z 64057e10 f   rsrc.obj
 0001:000571e0       ??1IconImage@@QAE@XZ       640581e0 f i rsrc.obj
 0001:00057210       ?load_icon_rsrc@@YA?AUIconRsrc@@PAUHINSTANCE__@@PB_WG@Z 64058210 f   rsrc.obj
 0001:00057700       ??1IconRsrc@@QAE@XZ        64058700 f i rsrc.obj
 0001:00057740       ??1IconImageRsrc@@QAE@XZ   64058740 f i rsrc.obj
 0001:00057770       ??$_Dest_val@V?$allocator@V?$basic_string@_WU?$char_traits@_W@std@@V?$allocator@_W@2@@std@@@std@@V?$basic_string@_WU?$char_traits@_W@std@@V?$allocator@_W@2@@2@@std@@YAXAAV?$allocator@V?$basic_string@_WU?$char_traits@_W@std@@V?$allocator@_W@2@@std@@@0@PAV?$basic_string@_WU?$char_traits@_W@std@@V?$allocator@_W@2@@0@@Z 64058770 f i plugin.obj
 0001:00057770       ??1IdLang@@QAE@XZ          64058770 f i rsrc.obj
 0001:00057770       ??1CacheRecord@FileWriteCache@@QAE@XZ 64058770 f i extract.obj
 0001:00057770       ??1SfxModule@@QAE@XZ       64058770 f i archive.obj
 0001:00057770       ??1?$basic_string@_WU?$char_traits@_W@std@@V?$allocator@_W@2@@std@@QAE@XZ 64058770 f i archive.obj
 0001:00057770       ??1RsrcId@@QAE@XZ          64058770 f i rsrc.obj
 0001:00057770       ??$_Dest_val@V?$allocator@USfxModule@@@std@@USfxModule@@@std@@YAXAAV?$allocator@USfxModule@@@0@PAUSfxModule@@@Z 64058770 f i archive.obj
 0001:00057770       ??1FileIndexInfo@@QAE@XZ   64058770 f i update.obj
 0001:000577a0       ?enum_names_proc@@YGHPAUHINSTANCE__@@PB_WPA_WJ@Z 640587a0 f   rsrc.obj
 0001:00057860       ?enum_rsrc_names@@YA?AV?$list@VRsrcId@@V?$allocator@VRsrcId@@@std@@@std@@PAUHINSTANCE__@@PB_W@Z 64058860 f   rsrc.obj
 0001:000578e0       ?enum_langs_proc@@YGHPAUHINSTANCE__@@PB_W1GJ@Z 640588e0 f   rsrc.obj
 0001:00057980       ?enum_rsrc_langs@@YA?AV?$list@GV?$allocator@G@std@@@std@@PAUHINSTANCE__@@PB_W1@Z 64058980 f   rsrc.obj
 0001:00057a00       ??0RsrcModule@@QAE@ABV?$basic_string@_WU?$char_traits@_W@std@@V?$allocator@_W@2@@std@@@Z 64058a00 f i rsrc.obj
 0001:00057ab0       ??1RsrcModule@@QAE@XZ      64058ab0 f i rsrc.obj
 0001:00057ad0       ??0ResourceUpdate@@QAE@ABV?$basic_string@_WU?$char_traits@_W@std@@V?$allocator@_W@2@@std@@@Z 64058ad0 f i rsrc.obj
 0001:00057b80       ??1ResourceUpdate@@QAE@XZ  64058b80 f i rsrc.obj
 0001:00057b90       ?update@ResourceUpdate@@QAEXPB_W0GPBEK@Z 64058b90 f i rsrc.obj
 0001:00057c20       ?finalize@ResourceUpdate@@QAEXXZ 64058c20 f i rsrc.obj
 0001:00057cb0       ?replace_icon@@YAXABV?$basic_string@_WU?$char_traits@_W@std@@V?$allocator@_W@2@@std@@0@Z 64058cb0 f   rsrc.obj
 0001:00058150       ?replace_ver_info@@YAXABV?$basic_string@_WU?$char_traits@_W@std@@V?$allocator@_W@2@@std@@ABUSfxVersionInfo@@@Z 64059150 f   rsrc.obj
 0001:00058fa0       ??R<lambda10>@?A0xc4c5a11d@@QBEXABU?$pair@V?$basic_string@_WU?$char_traits@_W@std@@V?$allocator@_W@2@@std@@V12@@std@@@Z 64059fa0 f i rsrc.obj
 0001:000590d0       ??1?$map@V?$basic_string@_WU?$char_traits@_W@std@@V?$allocator@_W@2@@std@@V12@U?$less@V?$basic_string@_WU?$char_traits@_W@std@@V?$allocator@_W@2@@std@@@2@V?$allocator@U?$pair@$$CBV?$basic_string@_WU?$char_traits@_W@std@@V?$allocator@_W@2@@std@@V12@@std@@@2@@std@@QAE@XZ 6405a0d0 f i rsrc.obj
 0001:00059130       ??6?$basic_ostream@_WU?$char_traits@_W@std@@@std@@QAEAAV01@G@Z 6405a130 f i rsrc.obj
 0001:00059320       ??1?$list@UIconImage@@V?$allocator@UIconImage@@@std@@@std@@QAE@XZ 6405a320 f i rsrc.obj
 0001:00059340       ??0?$list@UIconImageRsrc@@V?$allocator@UIconImageRsrc@@@std@@@std@@QAE@ABV01@@Z 6405a340 f i rsrc.obj
 0001:00059400       ?push_back@?$list@UIconImageRsrc@@V?$allocator@UIconImageRsrc@@@std@@@std@@QAEXABUIconImageRsrc@@@Z 6405a400 f i rsrc.obj
 0001:00059440       ??1?$list@V?$basic_string@_WU?$char_traits@_W@std@@V?$allocator@_W@2@@std@@V?$allocator@V?$basic_string@_WU?$char_traits@_W@std@@V?$allocator@_W@2@@std@@@2@@std@@QAE@XZ 6405a440 f i archive.obj
 0001:00059440       ??1?$list@UIdLang@@V?$allocator@UIdLang@@@std@@@std@@QAE@XZ 6405a440 f i rsrc.obj
 0001:00059440       ??1?$list@VRsrcId@@V?$allocator@VRsrcId@@@std@@@std@@QAE@XZ 6405a440 f i rsrc.obj
 0001:00059440       ??1?$list@UCacheRecord@FileWriteCache@@V?$allocator@UCacheRecord@FileWriteCache@@@std@@@std@@QAE@XZ 6405a440 f i extract.obj
 0001:00059460       ??1?$list@GV?$allocator@G@std@@@std@@QAE@XZ 6405a460 f i rsrc.obj
 0001:00059460       ??1?$list@IV?$allocator@I@std@@@std@@QAE@XZ 6405a460 f i extract.obj
 0001:000594a0       ??1?$list@UIconRsrc@@V?$allocator@UIconRsrc@@@std@@@std@@QAE@XZ 6405a4a0 f i rsrc.obj
 0001:000594b0       ??A?$map@V?$basic_string@_WU?$char_traits@_W@std@@V?$allocator@_W@2@@std@@V12@U?$less@V?$basic_string@_WU?$char_traits@_W@std@@V?$allocator@_W@2@@std@@@2@V?$allocator@U?$pair@$$CBV?$basic_string@_WU?$char_traits@_W@std@@V?$allocator@_W@2@@std@@V12@@std@@@2@@std@@QAEAAV?$basic_string@_WU?$char_traits@_W@std@@V?$allocator@_W@2@@1@ABV21@@Z 6405a4b0 f i rsrc.obj
 0001:00059620       ?_Insert_n@?$vector@EV?$allocator@E@std@@@std@@IAEXV?$_Vector_const_iterator@V?$_Vector_val@EV?$allocator@E@std@@@std@@@2@IABE@Z 6405a620 f i rsrc.obj
 0001:000597d0       ?clear@?$list@UIconImage@@V?$allocator@UIconImage@@@std@@@std@@QAEXXZ 6405a7d0 f i rsrc.obj
 0001:00059820       ?_Buynode@?$_List_val@UIconImage@@V?$allocator@UIconImage@@@std@@@std@@QAEPAU_Node@?$_List_nod@UIconImage@@V?$allocator@UIconImage@@@std@@@2@PAU342@0ABUIconImage@@@Z 6405a820 f i rsrc.obj
 0001:00059910       ?clear@?$list@UIconImageRsrc@@V?$allocator@UIconImageRsrc@@@std@@@std@@QAEXXZ 6405a910 f i rsrc.obj
 0001:00059960       ?_Buynode@?$_List_val@UIconImageRsrc@@V?$allocator@UIconImageRsrc@@@std@@@std@@QAEPAU_Node@?$_List_nod@UIconImageRsrc@@V?$allocator@UIconImageRsrc@@@std@@@2@PAU342@0ABUIconImageRsrc@@@Z 6405a960 f i rsrc.obj
 0001:00059a60       ?clear@?$list@UIdLang@@V?$allocator@UIdLang@@@std@@@std@@QAEXXZ 6405aa60 f i rsrc.obj
 0001:00059a60       ?clear@?$list@UCacheRecord@FileWriteCache@@V?$allocator@UCacheRecord@FileWriteCache@@@std@@@std@@QAEXXZ 6405aa60 f i extract.obj
 0001:00059a60       ?clear@?$list@V?$basic_string@_WU?$char_traits@_W@std@@V?$allocator@_W@2@@std@@V?$allocator@V?$basic_string@_WU?$char_traits@_W@std@@V?$allocator@_W@2@@std@@@2@@std@@QAEXXZ 6405aa60 f i archive.obj
 0001:00059a60       ?clear@?$list@VRsrcId@@V?$allocator@VRsrcId@@@std@@@std@@QAEXXZ 6405aa60 f i rsrc.obj
 0001:00059ac0       ?_Buynode@?$_List_val@VRsrcId@@V?$allocator@VRsrcId@@@std@@@std@@QAEPAU_Node@?$_List_nod@VRsrcId@@V?$allocator@VRsrcId@@@std@@@2@PAU342@0ABVRsrcId@@@Z 6405aac0 f i rsrc.obj
 0001:00059ba0       ?_Buynode@?$_List_val@GV?$allocator@G@std@@@std@@QAEPAU_Node@?$_List_nod@GV?$allocator@G@std@@@2@PAU342@0ABG@Z 6405aba0 f i rsrc.obj
 0001:00059c10       ?clear@?$list@UIconRsrc@@V?$allocator@UIconRsrc@@@std@@@std@@QAEXXZ 6405ac10 f i rsrc.obj
 0001:00059cd0       ?_Buynode@?$_List_val@UIconRsrc@@V?$allocator@UIconRsrc@@@std@@@std@@QAEPAU_Node@?$_List_nod@UIconRsrc@@V?$allocator@UIconRsrc@@@std@@@2@PAU342@0ABUIconRsrc@@@Z 6405acd0 f i rsrc.obj
 0001:00059cd0       ??$_Buynode@UIconRsrc@@@?$_List_val@UIconRsrc@@V?$allocator@UIconRsrc@@@std@@@std@@QAEPAU_Node@?$_List_nod@UIconRsrc@@V?$allocator@UIconRsrc@@@std@@@1@PAU231@0$$QAUIconRsrc@@@Z 6405acd0 f i rsrc.obj
 0001:00059dd0       ?_Buynode@?$_List_val@UIdLang@@V?$allocator@UIdLang@@@std@@@std@@QAEPAU_Node@?$_List_nod@UIdLang@@V?$allocator@UIdLang@@@std@@@2@PAU342@0ABUIdLang@@@Z 6405add0 f i rsrc.obj
 0001:00059eb0       ?erase@?$_Tree@V?$_Tmap_traits@V?$basic_string@_WU?$char_traits@_W@std@@V?$allocator@_W@2@@std@@V12@U?$less@V?$basic_string@_WU?$char_traits@_W@std@@V?$allocator@_W@2@@std@@@2@V?$allocator@U?$pair@$$CBV?$basic_string@_WU?$char_traits@_W@std@@V?$allocator@_W@2@@std@@V12@@std@@@2@$0A@@std@@@std@@QAE?AV?$_Tree_iterator@V?$_Tree_val@V?$_Tmap_traits@V?$basic_string@_WU?$char_traits@_W@std@@V?$allocator@_W@2@@std@@V12@U?$less@V?$basic_string@_WU?$char_traits@_W@std@@V?$allocator@_W@2@@std@@@2@V?$allocator@U?$pair@$$CBV?$basic_string@_WU?$char_traits@_W@std@@V?$allocator@_W@2@@std@@V12@@std@@@2@$0A@@std@@@std@@@2@V?$_Tree_const_iterator@V?$_Tree_val@V?$_Tmap_traits@V?$basic_string@_WU?$char_traits@_W@std@@V?$allocator@_W@2@@std@@V12@U?$less@V?$basic_string@_WU?$char_traits@_W@std@@V?$allocator@_W@2@@std@@@2@V?$allocator@U?$pair@$$CBV?$basic_string@_WU?$char_traits@_W@std@@V?$allocator@_W@2@@std@@V12@@std@@@2@$0A@@std@@@std@@@2@0@Z 6405aeb0 f i rsrc.obj
 0001:00059f70       ?_Lbound@?$_Tree@V?$_Tmap_traits@V?$basic_string@_WU?$char_traits@_W@std@@V?$allocator@_W@2@@std@@V12@U?$less@V?$basic_string@_WU?$char_traits@_W@std@@V?$allocator@_W@2@@std@@@2@V?$allocator@U?$pair@$$CBV?$basic_string@_WU?$char_traits@_W@std@@V?$allocator@_W@2@@std@@V12@@std@@@2@$0A@@std@@@std@@IAEPAU_Node@?$_Tree_nod@V?$_Tmap_traits@V?$basic_string@_WU?$char_traits@_W@std@@V?$allocator@_W@2@@std@@V12@U?$less@V?$basic_string@_WU?$char_traits@_W@std@@V?$allocator@_W@2@@std@@@2@V?$allocator@U?$pair@$$CBV?$basic_string@_WU?$char_traits@_W@std@@V?$allocator@_W@2@@std@@V12@@std@@@2@$0A@@std@@@2@ABV?$basic_string@_WU?$char_traits@_W@std@@V?$allocator@_W@2@@2@@Z 6405af70 f i rsrc.obj
 0001:0005a020       ?erase@?$_Tree@V?$_Tmap_traits@V?$basic_string@_WU?$char_traits@_W@std@@V?$allocator@_W@2@@std@@V12@U?$less@V?$basic_string@_WU?$char_traits@_W@std@@V?$allocator@_W@2@@std@@@2@V?$allocator@U?$pair@$$CBV?$basic_string@_WU?$char_traits@_W@std@@V?$allocator@_W@2@@std@@V12@@std@@@2@$0A@@std@@@std@@QAE?AV?$_Tree_iterator@V?$_Tree_val@V?$_Tmap_traits@V?$basic_string@_WU?$char_traits@_W@std@@V?$allocator@_W@2@@std@@V12@U?$less@V?$basic_string@_WU?$char_traits@_W@std@@V?$allocator@_W@2@@std@@@2@V?$allocator@U?$pair@$$CBV?$basic_string@_WU?$char_traits@_W@std@@V?$allocator@_W@2@@std@@V12@@std@@@2@$0A@@std@@@std@@@2@V?$_Tree_const_iterator@V?$_Tree_val@V?$_Tmap_traits@V?$basic_string@_WU?$char_traits@_W@std@@V?$allocator@_W@2@@std@@V12@U?$less@V?$basic_string@_WU?$char_traits@_W@std@@V?$allocator@_W@2@@std@@@2@V?$allocator@U?$pair@$$CBV?$basic_string@_WU?$char_traits@_W@std@@V?$allocator@_W@2@@std@@V12@@std@@@2@$0A@@std@@@std@@@2@@Z 6405b020 f i rsrc.obj
 0001:0005a2d0       ?_Erase@?$_Tree@V?$_Tmap_traits@V?$basic_string@_WU?$char_traits@_W@std@@V?$allocator@_W@2@@std@@V12@U?$less@V?$basic_string@_WU?$char_traits@_W@std@@V?$allocator@_W@2@@std@@@2@V?$allocator@U?$pair@$$CBV?$basic_string@_WU?$char_traits@_W@std@@V?$allocator@_W@2@@std@@V12@@std@@@2@$0A@@std@@@std@@IAEXPAU_Node@?$_Tree_nod@V?$_Tmap_traits@V?$basic_string@_WU?$char_traits@_W@std@@V?$allocator@_W@2@@std@@V12@U?$less@V?$basic_string@_WU?$char_traits@_W@std@@V?$allocator@_W@2@@std@@@2@V?$allocator@U?$pair@$$CBV?$basic_string@_WU?$char_traits@_W@std@@V?$allocator@_W@2@@std@@V12@@std@@@2@$0A@@std@@@2@@Z 6405b2d0 f i rsrc.obj
 0001:0005a360       ?_Lrotate@?$_Tree@V?$_Tmap_traits@V?$basic_string@_WU?$char_traits@_W@std@@V?$allocator@_W@2@@std@@V12@U?$less@V?$basic_string@_WU?$char_traits@_W@std@@V?$allocator@_W@2@@std@@@2@V?$allocator@U?$pair@$$CBV?$basic_string@_WU?$char_traits@_W@std@@V?$allocator@_W@2@@std@@V12@@std@@@2@$0A@@std@@@std@@IAEXPAU_Node@?$_Tree_nod@V?$_Tmap_traits@V?$basic_string@_WU?$char_traits@_W@std@@V?$allocator@_W@2@@std@@V12@U?$less@V?$basic_string@_WU?$char_traits@_W@std@@V?$allocator@_W@2@@std@@@2@V?$allocator@U?$pair@$$CBV?$basic_string@_WU?$char_traits@_W@std@@V?$allocator@_W@2@@std@@V12@@std@@@2@$0A@@std@@@2@@Z 6405b360 f i rsrc.obj
 0001:0005a3b0       ?_Rrotate@?$_Tree@V?$_Tmap_traits@V?$basic_string@_WU?$char_traits@_W@std@@V?$allocator@_W@2@@std@@V12@U?$less@V?$basic_string@_WU?$char_traits@_W@std@@V?$allocator@_W@2@@std@@@2@V?$allocator@U?$pair@$$CBV?$basic_string@_WU?$char_traits@_W@std@@V?$allocator@_W@2@@std@@V12@@std@@@2@$0A@@std@@@std@@IAEXPAU_Node@?$_Tree_nod@V?$_Tmap_traits@V?$basic_string@_WU?$char_traits@_W@std@@V?$allocator@_W@2@@std@@V12@U?$less@V?$basic_string@_WU?$char_traits@_W@std@@V?$allocator@_W@2@@std@@@2@V?$allocator@U?$pair@$$CBV?$basic_string@_WU?$char_traits@_W@std@@V?$allocator@_W@2@@std@@V12@@std@@@2@$0A@@std@@@2@@Z 6405b3b0 f i rsrc.obj
 0001:0005a400       ?_Max@?$_Tree_val@V?$_Tmap_traits@V?$basic_string@_WU?$char_traits@_W@std@@V?$allocator@_W@2@@std@@V12@U?$less@V?$basic_string@_WU?$char_traits@_W@std@@V?$allocator@_W@2@@std@@@2@V?$allocator@U?$pair@$$CBV?$basic_string@_WU?$char_traits@_W@std@@V?$allocator@_W@2@@std@@V12@@std@@@2@$0A@@std@@@std@@SAPAU_Node@?$_Tree_nod@V?$_Tmap_traits@V?$basic_string@_WU?$char_traits@_W@std@@V?$allocator@_W@2@@std@@V12@U?$less@V?$basic_string@_WU?$char_traits@_W@std@@V?$allocator@_W@2@@std@@@2@V?$allocator@U?$pair@$$CBV?$basic_string@_WU?$char_traits@_W@std@@V?$allocator@_W@2@@std@@V12@@std@@@2@$0A@@std@@@2@PAU342@@Z 6405b400 f i rsrc.obj
 0001:0005a420       ??E?$_Tree_unchecked_const_iterator@V?$_Tree_val@V?$_Tmap_traits@V?$basic_string@_WU?$char_traits@_W@std@@V?$allocator@_W@2@@std@@V12@U?$less@V?$basic_string@_WU?$char_traits@_W@std@@V?$allocator@_W@2@@std@@@2@V?$allocator@U?$pair@$$CBV?$basic_string@_WU?$char_traits@_W@std@@V?$allocator@_W@2@@std@@V12@@std@@@2@$0A@@std@@@std@@U_Iterator_base0@2@@std@@QAEAAV01@XZ 6405b420 f i rsrc.obj
 0001:0005a470       ??1Param@@QAE@XZ           6405b470 f i cmdline.obj
 0001:0005a470       ??1Attr@@QAE@XZ            6405b470 f i plugin.obj
 0001:0005a470       ??1?$pair@V?$basic_string@_WU?$char_traits@_W@std@@V?$allocator@_W@2@@std@@V12@@std@@QAE@XZ 6405b470 f i rsrc.obj
 0001:0005a470       ??$_Dest_val@V?$allocator@U?$pair@$$CBV?$basic_string@_WU?$char_traits@_W@std@@V?$allocator@_W@2@@std@@V12@@std@@@std@@U?$pair@$$CBV?$basic_string@_WU?$char_traits@_W@std@@V?$allocator@_W@2@@std@@V12@@2@@std@@YAXAAV?$allocator@U?$pair@$$CBV?$basic_string@_WU?$char_traits@_W@std@@V?$allocator@_W@2@@std@@V12@@std@@@0@PAU?$pair@$$CBV?$basic_string@_WU?$char_traits@_W@std@@V?$allocator@_W@2@@std@@V12@@0@@Z 6405b470 f i rsrc.obj
 0001:0005a470       ??1?$pair@$$CBV?$basic_string@_WU?$char_traits@_W@std@@V?$allocator@_W@2@@std@@V12@@std@@QAE@XZ 6405b470 f i rsrc.obj
 0001:0005a4c0       ?_Insert@?$_Tree@V?$_Tmap_traits@V?$basic_string@_WU?$char_traits@_W@std@@V?$allocator@_W@2@@std@@V12@U?$less@V?$basic_string@_WU?$char_traits@_W@std@@V?$allocator@_W@2@@std@@@2@V?$allocator@U?$pair@$$CBV?$basic_string@_WU?$char_traits@_W@std@@V?$allocator@_W@2@@std@@V12@@std@@@2@$0A@@std@@@std@@QAE?AV?$_Tree_iterator@V?$_Tree_val@V?$_Tmap_traits@V?$basic_string@_WU?$char_traits@_W@std@@V?$allocator@_W@2@@std@@V12@U?$less@V?$basic_string@_WU?$char_traits@_W@std@@V?$allocator@_W@2@@std@@@2@V?$allocator@U?$pair@$$CBV?$basic_string@_WU?$char_traits@_W@std@@V?$allocator@_W@2@@std@@V12@@std@@@2@$0A@@std@@@std@@@2@V?$_Tree_const_iterator@V?$_Tree_val@V?$_Tmap_traits@V?$basic_string@_WU?$char_traits@_W@std@@V?$allocator@_W@2@@std@@V12@U?$less@V?$basic_string@_WU?$char_traits@_W@std@@V?$allocator@_W@2@@std@@@2@V?$allocator@U?$pair@$$CBV?$basic_string@_WU?$char_traits@_W@std@@V?$allocator@_W@2@@std@@V12@@std@@@2@$0A@@std@@@std@@@2@PAU_Node@?$_Tree_nod@V?$_Tmap_traits@V?$basic_string@_WU?$char_traits@_W@std@@V?$allocator@_W@2@@std@@V12@U?$less@V?$basic_string@_WU?$char_traits@_W@std@@V?$allocator@_W@2@@std@@@2@V?$allocator@U?$pair@$$CBV?$basic_string@_WU?$char_traits@_W@std@@V?$allocator@_W@2@@std@@V12@@std@@@2@$0A@@std@@@2@@Z 6405b4c0 f i rsrc.obj
 0001:0005a6b0       ?_Linsert@?$_Tree@V?$_Tmap_traits@V?$basic_string@_WU?$char_traits@_W@std@@V?$allocator@_W@2@@std@@V12@U?$less@V?$basic_string@_WU?$char_traits@_W@std@@V?$allocator@_W@2@@std@@@2@V?$allocator@U?$pair@$$CBV?$basic_string@_WU?$char_traits@_W@std@@V?$allocator@_W@2@@std@@V12@@std@@@2@$0A@@std@@@std@@QAE?AU?$pair@V?$_Tree_iterator@V?$_Tree_val@V?$_Tmap_traits@V?$basic_string@_WU?$char_traits@_W@std@@V?$allocator@_W@2@@std@@V12@U?$less@V?$basic_string@_WU?$char_traits@_W@std@@V?$allocator@_W@2@@std@@@2@V?$allocator@U?$pair@$$CBV?$basic_string@_WU?$char_traits@_W@std@@V?$allocator@_W@2@@std@@V12@@std@@@2@$0A@@std@@@std@@@std@@_N@2@PAU_Node@?$_Tree_nod@V?$_Tmap_traits@V?$basic_string@_WU?$char_traits@_W@std@@V?$allocator@_W@2@@std@@V12@U?$less@V?$basic_string@_WU?$char_traits@_W@std@@V?$allocator@_W@2@@std@@@2@V?$allocator@U?$pair@$$CBV?$basic_string@_WU?$char_traits@_W@std@@V?$allocator@_W@2@@std@@V12@@std@@@2@$0A@@std@@@2@_N@Z 6405b6b0 f i rsrc.obj
 0001:0005a840       ?_Insert@?$_Tree@V?$_Tmap_traits@V?$basic_string@_WU?$char_traits@_W@std@@V?$allocator@_W@2@@std@@V12@U?$less@V?$basic_string@_WU?$char_traits@_W@std@@V?$allocator@_W@2@@std@@@2@V?$allocator@U?$pair@$$CBV?$basic_string@_WU?$char_traits@_W@std@@V?$allocator@_W@2@@std@@V12@@std@@@2@$0A@@std@@@std@@IAE?AV?$_Tree_iterator@V?$_Tree_val@V?$_Tmap_traits@V?$basic_string@_WU?$char_traits@_W@std@@V?$allocator@_W@2@@std@@V12@U?$less@V?$basic_string@_WU?$char_traits@_W@std@@V?$allocator@_W@2@@std@@@2@V?$allocator@U?$pair@$$CBV?$basic_string@_WU?$char_traits@_W@std@@V?$allocator@_W@2@@std@@V12@@std@@@2@$0A@@std@@@std@@@2@_NPAU_Node@?$_Tree_nod@V?$_Tmap_traits@V?$basic_string@_WU?$char_traits@_W@std@@V?$allocator@_W@2@@std@@V12@U?$less@V?$basic_string@_WU?$char_traits@_W@std@@V?$allocator@_W@2@@std@@@2@V?$allocator@U?$pair@$$CBV?$basic_string@_WU?$char_traits@_W@std@@V?$allocator@_W@2@@std@@V12@@std@@@2@$0A@@std@@@2@1@Z 6405b840 f i rsrc.obj
 0001:0005aa90       ??F?$_Tree_unchecked_const_iterator@V?$_Tree_val@V?$_Tmap_traits@V?$basic_string@_WU?$char_traits@_W@std@@V?$allocator@_W@2@@std@@V12@U?$less@V?$basic_string@_WU?$char_traits@_W@std@@V?$allocator@_W@2@@std@@@2@V?$allocator@U?$pair@$$CBV?$basic_string@_WU?$char_traits@_W@std@@V?$allocator@_W@2@@std@@V12@@std@@@2@$0A@@std@@@std@@U_Iterator_base0@2@@std@@QAEAAV01@XZ 6405ba90 f i rsrc.obj
 0001:0005aaf0       ??$_For_each@V?$_List_unchecked_const_iterator@V?$_List_val@VRsrcId@@V?$allocator@VRsrcId@@@std@@@std@@U_Iterator_base0@2@@std@@V<lambda0>@?A0xc4c5a11d@@@std@@YA?AV<lambda0>@?A0xc4c5a11d@@V?$_List_unchecked_const_iterator@V?$_List_val@VRsrcId@@V?$allocator@VRsrcId@@@std@@@std@@U_Iterator_base0@2@@0@0V12@@Z 6405baf0 f i rsrc.obj
 0001:0005ac00       ??$_For_each@V?$_List_unchecked_const_iterator@V?$_List_val@UIconRsrc@@V?$allocator@UIconRsrc@@@std@@@std@@U_Iterator_base0@2@@std@@V<lambda1>@?A0xc4c5a11d@@@std@@YA?AV<lambda1>@?A0xc4c5a11d@@V?$_List_unchecked_const_iterator@V?$_List_val@UIconRsrc@@V?$allocator@UIconRsrc@@@std@@@std@@U_Iterator_base0@2@@0@0V12@@Z 6405bc00 f i rsrc.obj
 0001:0005adb0       ??$_For_each@V?$_List_unchecked_const_iterator@V?$_List_val@UIconImage@@V?$allocator@UIconImage@@@std@@@std@@U_Iterator_base0@2@@std@@V<lambda2>@?A0xc4c5a11d@@@std@@YA?AV<lambda2>@?A0xc4c5a11d@@V?$_List_unchecked_const_iterator@V?$_List_val@UIconImage@@V?$allocator@UIconImage@@@std@@@std@@U_Iterator_base0@2@@0@0V12@@Z 6405bdb0 f i rsrc.obj
 0001:0005aed0       ??$_For_each@V?$_List_unchecked_iterator@V?$_List_val@UIconRsrc@@V?$allocator@UIconRsrc@@@std@@@std@@@std@@V<lambda3>@?A0xc4c5a11d@@@std@@YA?AV<lambda3>@?A0xc4c5a11d@@V?$_List_unchecked_iterator@V?$_List_val@UIconRsrc@@V?$allocator@UIconRsrc@@@std@@@std@@@0@0V12@@Z 6405bed0 f i rsrc.obj
 0001:0005af90       ??$_For_each@V?$_List_unchecked_const_iterator@V?$_List_val@UIconRsrc@@V?$allocator@UIconRsrc@@@std@@@std@@U_Iterator_base0@2@@std@@V<lambda4>@?A0xc4c5a11d@@@std@@YA?AV<lambda4>@?A0xc4c5a11d@@V?$_List_unchecked_const_iterator@V?$_List_val@UIconRsrc@@V?$allocator@UIconRsrc@@@std@@@std@@U_Iterator_base0@2@@0@0V12@@Z 6405bf90 f i rsrc.obj
 0001:0005b0e0       ??$_For_each@V?$_List_unchecked_const_iterator@V?$_List_val@GV?$allocator@G@std@@@std@@U_Iterator_base0@2@@std@@V<lambda5>@?A0xc4c5a11d@@@std@@YA?AV<lambda5>@?A0xc4c5a11d@@V?$_List_unchecked_const_iterator@V?$_List_val@GV?$allocator@G@std@@@std@@U_Iterator_base0@2@@0@0V12@@Z 6405c0e0 f i rsrc.obj
 0001:0005b260       ??$_For_each@V?$_List_unchecked_const_iterator@V?$_List_val@UIconImageRsrc@@V?$allocator@UIconImageRsrc@@@std@@@std@@U_Iterator_base0@2@@std@@V<lambda8>@?A0xc4c5a11d@@@std@@YA?AV<lambda8>@?A0xc4c5a11d@@V?$_List_unchecked_const_iterator@V?$_List_val@UIconImageRsrc@@V?$allocator@UIconImageRsrc@@@std@@@std@@U_Iterator_base0@2@@0@0V12@@Z 6405c260 f i rsrc.obj
 0001:0005b330       ??$_For_each@V?$_List_unchecked_iterator@V?$_List_val@VRsrcId@@V?$allocator@VRsrcId@@@std@@@std@@@std@@V<lambda9>@?A0xc4c5a11d@@@std@@YA?AV<lambda9>@?A0xc4c5a11d@@V?$_List_unchecked_iterator@V?$_List_val@VRsrcId@@V?$allocator@VRsrcId@@@std@@@std@@@0@0V12@@Z 6405c330 f i rsrc.obj
 0001:0005b430       ??$_For_each@V?$_Tree_unchecked_const_iterator@V?$_Tree_val@V?$_Tmap_traits@V?$basic_string@_WU?$char_traits@_W@std@@V?$allocator@_W@2@@std@@V12@U?$less@V?$basic_string@_WU?$char_traits@_W@std@@V?$allocator@_W@2@@std@@@2@V?$allocator@U?$pair@$$CBV?$basic_string@_WU?$char_traits@_W@std@@V?$allocator@_W@2@@std@@V12@@std@@@2@$0A@@std@@@std@@U_Iterator_base0@2@@std@@V<lambda10>@?A0xc4c5a11d@@@std@@YA?AV<lambda10>@?A0xc4c5a11d@@V?$_Tree_unchecked_const_iterator@V?$_Tree_val@V?$_Tmap_traits@V?$basic_string@_WU?$char_traits@_W@std@@V?$allocator@_W@2@@std@@V12@U?$less@V?$basic_string@_WU?$char_traits@_W@std@@V?$allocator@_W@2@@std@@@2@V?$allocator@U?$pair@$$CBV?$basic_string@_WU?$char_traits@_W@std@@V?$allocator@_W@2@@std@@V12@@std@@@2@$0A@@std@@@std@@U_Iterator_base0@2@@0@0V12@@Z 6405c430 f i rsrc.obj
 0001:0005b5a0       ??$_For_each@V?$_List_unchecked_const_iterator@V?$_List_val@UIdLang@@V?$allocator@UIdLang@@@std@@@std@@U_Iterator_base0@2@@std@@V<lambda11>@?A0xc4c5a11d@@@std@@YA?AV<lambda11>@?A0xc4c5a11d@@V?$_List_unchecked_const_iterator@V?$_List_val@UIdLang@@V?$allocator@UIdLang@@@std@@@std@@U_Iterator_base0@2@@0@0V12@@Z 6405c5a0 f i rsrc.obj
 0001:0005b6a0       ??$_For_each@V?$_List_unchecked_iterator@V?$_List_val@GV?$allocator@G@std@@@std@@@std@@V<lambda12>@?A0xc4c5a11d@@@std@@YA?AV<lambda12>@?A0xc4c5a11d@@V?$_List_unchecked_iterator@V?$_List_val@GV?$allocator@G@std@@@std@@@0@0V12@@Z 6405c6a0 f i rsrc.obj
 0001:0005b7d0       ??$_Insert@V?$_List_const_iterator@V?$_List_val@UIconImageRsrc@@V?$allocator@UIconImageRsrc@@@std@@@std@@@std@@@?$list@UIconImageRsrc@@V?$allocator@UIconImageRsrc@@@std@@@std@@QAEXV?$_List_const_iterator@V?$_List_val@UIconImageRsrc@@V?$allocator@UIconImageRsrc@@@std@@@std@@@1@00Uforward_iterator_tag@1@@Z 6405c7d0 f i rsrc.obj
 0001:0005b8a0       ??$_Buynode@U?$pair@$$CBV?$basic_string@_WU?$char_traits@_W@std@@V?$allocator@_W@2@@std@@V12@@std@@@?$_Tree_val@V?$_Tmap_traits@V?$basic_string@_WU?$char_traits@_W@std@@V?$allocator@_W@2@@std@@V12@U?$less@V?$basic_string@_WU?$char_traits@_W@std@@V?$allocator@_W@2@@std@@@2@V?$allocator@U?$pair@$$CBV?$basic_string@_WU?$char_traits@_W@std@@V?$allocator@_W@2@@std@@V12@@std@@@2@$0A@@std@@@std@@QAEPAU_Node@?$_Tree_nod@V?$_Tmap_traits@V?$basic_string@_WU?$char_traits@_W@std@@V?$allocator@_W@2@@std@@V12@U?$less@V?$basic_string@_WU?$char_traits@_W@std@@V?$allocator@_W@2@@std@@@2@V?$allocator@U?$pair@$$CBV?$basic_string@_WU?$char_traits@_W@std@@V?$allocator@_W@2@@std@@V12@@std@@@2@$0A@@std@@@1@$$QAU?$pair@$$CBV?$basic_string@_WU?$char_traits@_W@std@@V?$allocator@_W@2@@std@@V12@@1@@Z 6405c8a0 f i rsrc.obj
 0001:0005b9a0       ?erase@?$list@UIconImageRsrc@@V?$allocator@UIconImageRsrc@@@std@@@std@@QAE?AV?$_List_iterator@V?$_List_val@UIconImageRsrc@@V?$allocator@UIconImageRsrc@@@std@@@std@@@2@V?$_List_const_iterator@V?$_List_val@UIconImageRsrc@@V?$allocator@UIconImageRsrc@@@std@@@std@@@2@@Z 6405c9a0 f i rsrc.obj
 0001:0005ba10       ?dialog_proc@Dialog@Far@@MAEHHHPAX@Z 6405ca10 f i farutils.obj
 0001:0005ba30       ?get_plugin_module_path@Far@@YA?AV?$basic_string@_WU?$char_traits@_W@std@@V?$allocator@_W@2@@std@@XZ 6405ca30 f   farutils.obj
 0001:0005baf0       ?get_msg@Far@@YA?AV?$basic_string@_WU?$char_traits@_W@std@@V?$allocator@_W@2@@std@@H@Z 6405caf0 f   farutils.obj
 0001:0005bb40       ?get_optimal_msg_width@Far@@YAIXZ 6405cb40 f   farutils.obj
 0001:0005bb80       ?message@Far@@YAHABU_GUID@@ABV?$basic_string@_WU?$char_traits@_W@std@@V?$allocator@_W@2@@std@@H_K@Z 6405cb80 f   farutils.obj
 0001:0005bbc0       ?menu@Far@@YAHABU_GUID@@ABV?$basic_string@_WU?$char_traits@_W@std@@V?$allocator@_W@2@@std@@ABVMenuItems@1@PB_W@Z 6405cbc0 f   farutils.obj
 0001:0005be00       ?get_progress_bar_str@Far@@YA?AV?$basic_string@_WU?$char_traits@_W@std@@V?$allocator@_W@2@@std@@I_K0@Z 6405ce00 f   farutils.obj
 0001:0005bf20       ?post_macro@Far@@YA_NABV?$basic_string@_WU?$char_traits@_W@std@@V?$allocator@_W@2@@std@@@Z 6405cf20 f   farutils.obj
 0001:0005bfa0       ?is_real_file_panel@Far@@YA_NABUPanelInfo@@@Z 6405cfa0 f   farutils.obj
 0001:0005bfc0       ?get_panel_dir@Far@@YA?AV?$basic_string@_WU?$char_traits@_W@std@@V?$allocator@_W@2@@std@@PAX@Z 6405cfc0 f   farutils.obj
 0001:0005c1a0       ?get_panel_item@Far@@YAXPAXW4FILE_CONTROL_COMMANDS@@IAAV?$Buffer@E@@@Z 6405d1a0 f   farutils.obj
 0001:0005c320       ?get_panel_item@Far@@YA?AUPanelItem@1@PAXW4FILE_CONTROL_COMMANDS@@I@Z 6405d320 f   farutils.obj
 0001:0005c460       ?get_current_panel_item@Far@@YA?AUPanelItem@1@PAX@Z 6405d460 f   farutils.obj
 0001:0005c480       ?get_selected_panel_item@Far@@YA?AUPanelItem@1@PAXI@Z 6405d480 f   farutils.obj
 0001:0005c4a0       ?error_dlg@Far@@YAXABV?$basic_string@_WU?$char_traits@_W@std@@V?$allocator@_W@2@@std@@ABUError@@@Z 6405d4a0 f   farutils.obj
 0001:0005c960       ?info_dlg@Far@@YAXABU_GUID@@ABV?$basic_string@_WU?$char_traits@_W@std@@V?$allocator@_W@2@@std@@1@Z 6405d960 f   farutils.obj
 0001:0005ca50       ?input_dlg@Far@@YA_NABU_GUID@@ABV?$basic_string@_WU?$char_traits@_W@std@@V?$allocator@_W@2@@std@@1AAV34@_K@Z 6405da50 f   farutils.obj
 0001:0005cb60       ?get_label_len@Dialog@Far@@IAEIABV?$basic_string@_WU?$char_traits@_W@std@@V?$allocator@_W@2@@std@@_K@Z 6405db60 f   farutils.obj
 0001:0005cbb0       ?frame@Dialog@Far@@AAEXABV?$basic_string@_WU?$char_traits@_W@std@@V?$allocator@_W@2@@std@@@Z 6405dbb0 f   farutils.obj
 0001:0005cca0       ?internal_dialog_proc@Dialog@Far@@CGHPAXHH0@Z 6405dca0 f   farutils.obj
 0001:0005cdb0       ?separator@Dialog@Far@@QAEIABV?$basic_string@_WU?$char_traits@_W@std@@V?$allocator@_W@2@@std@@@Z 6405ddb0 f   farutils.obj
 0001:0005ce90       ?label@Dialog@Far@@QAEIABV?$basic_string@_WU?$char_traits@_W@std@@V?$allocator@_W@2@@std@@I_K@Z 6405de90 f   farutils.obj
 0001:0005cfb0       ?edit_box@Dialog@Far@@QAEIABV?$basic_string@_WU?$char_traits@_W@std@@V?$allocator@_W@2@@std@@I_K@Z 6405dfb0 f   farutils.obj
 0001:0005d0d0       ?pwd_edit_box@Dialog@Far@@QAEIABV?$basic_string@_WU?$char_traits@_W@std@@V?$allocator@_W@2@@std@@I_K@Z 6405e0d0 f   farutils.obj
 0001:0005d1d0       ?button@Dialog@Far@@QAEIABV?$basic_string@_WU?$char_traits@_W@std@@V?$allocator@_W@2@@std@@_K@Z 6405e1d0 f   farutils.obj
 0001:0005d2d0       ?check_box@Dialog@Far@@QAEIABV?$basic_string@_WU?$char_traits@_W@std@@V?$allocator@_W@2@@std@@H_K@Z 6405e2d0 f   farutils.obj
 0001:0005d3d0       ?radio_button@Dialog@Far@@QAEIABV?$basic_string@_WU?$char_traits@_W@std@@V?$allocator@_W@2@@std@@_N_K@Z 6405e3d0 f   farutils.obj
 0001:0005d4e0       ?combo_box@Dialog@Far@@QAEIABV?$vector@V?$basic_string@_WU?$char_traits@_W@std@@V?$allocator@_W@2@@std@@V?$allocator@V?$basic_string@_WU?$char_traits@_W@std@@V?$allocator@_W@2@@std@@@2@@std@@II_K@Z 6405e4e0 f   farutils.obj
 0001:0005d730       ?show@Dialog@Far@@QAEHXZ   6405e730 f   farutils.obj
 0001:0005da90       ?get_text@Dialog@Far@@QBE?AV?$basic_string@_WU?$char_traits@_W@std@@V?$allocator@_W@2@@std@@I@Z 6405ea90 f   farutils.obj
 0001:0005db60       ?set_text@Dialog@Far@@QAEXIABV?$basic_string@_WU?$char_traits@_W@std@@V?$allocator@_W@2@@std@@@Z 6405eb60 f   farutils.obj
 0001:0005db80       ?get_check@Dialog@Far@@QBE_NI@Z 6405eb80 f   farutils.obj
 0001:0005dba0       ?set_list_pos@Dialog@Far@@QAEXII@Z 6405eba0 f   farutils.obj
 0001:0005dbd0       ?enable@Dialog@Far@@QAEXI_N@Z 6405ebd0 f   farutils.obj
 0001:0005dbf0       ?create@FileFilter@Far@@QAE_NPAXH@Z 6405ebf0 f   farutils.obj
 0001:0005dc20       ?get_absolute_path@Far@@YA?AV?$basic_string@_WU?$char_traits@_W@std@@V?$allocator@_W@2@@std@@ABV23@@Z 6405ec20 f   farutils.obj
 0001:0005dd50       ?match_masks@Far@@YA_NABV?$basic_string@_WU?$char_traits@_W@std@@V?$allocator@_W@2@@std@@0@Z 6405ed50 f   farutils.obj
 0001:0005dd80       ?panel_go_to_dir@Far@@YA_NPAXABV?$basic_string@_WU?$char_traits@_W@std@@V?$allocator@_W@2@@std@@@Z 6405ed80 f   farutils.obj
 0001:0005ddf0       ?panel_go_to_file@Far@@YA_NPAXABV?$basic_string@_WU?$char_traits@_W@std@@V?$allocator@_W@2@@std@@@Z 6405edf0 f   farutils.obj
 0001:0005e1e0       ?get_lang_id@Far@@YAKXZ    6405f1e0 f   farutils.obj
 0001:0005e280       ?create@Settings@Far@@QAE_NXZ 6405f280 f   farutils.obj
 0001:0005e340       ?set_dir@Settings@Far@@QAE_NABV?$basic_string@_WU?$char_traits@_W@std@@V?$allocator@_W@2@@std@@@Z 6405f340 f   farutils.obj
 0001:0005e430       ?list_dir@Settings@Far@@QAE_NAAV?$vector@V?$basic_string@_WU?$char_traits@_W@std@@V?$allocator@_W@2@@std@@V?$allocator@V?$basic_string@_WU?$char_traits@_W@std@@V?$allocator@_W@2@@std@@@2@@std@@@Z 6405f430 f   farutils.obj
 0001:0005e590       ?get@Settings@Far@@QAE_NPB_WAAV?$vector@EV?$allocator@E@std@@@std@@@Z 6405f590 f   farutils.obj
 0001:0005e620       ?shrink_to_fit@?$vector@V?$basic_string@_WU?$char_traits@_W@std@@V?$allocator@_W@2@@std@@V?$allocator@V?$basic_string@_WU?$char_traits@_W@std@@V?$allocator@_W@2@@std@@@2@@std@@QAEXXZ 6405f620 f i farutils.obj
 0001:0005e6e0       ?reserve@?$vector@UFarMenuItem@@V?$allocator@UFarMenuItem@@@std@@@std@@QAEXI@Z 6405f6e0 f i farutils.obj
 0001:0005e7a0       ??1?$Buffer@UFarListItem@@@@QAE@XZ 6405f7a0 f i farutils.obj
 0001:0005e7a0       ??1?$unique_ptr@$$BY0A@EU?$default_delete@$$BY0A@E@std@@@std@@QAE@XZ 6405f7a0 f i farutils.obj
 0001:0005e7a0       ??1?$Buffer@UFarList@@@@QAE@XZ 6405f7a0 f i farutils.obj
 0001:0005e7a0       ??1?$Buffer@_W@@QAE@XZ     6405f7a0 f i farutils.obj
 0001:0005e7a0       ??1?$Buffer@E@@QAE@XZ      6405f7a0 f i plugin.obj
 0001:0005e7a0       ??1?$Buffer@D@@QAE@XZ      6405f7a0 f i archive.obj
 0001:0005e7a0       ??1?$Buffer@UFarDialogItem@@@@QAE@XZ 6405f7a0 f i farutils.obj
 0001:0005e7b0       ?_Reserve@?$vector@UDialogItem@Far@@V?$allocator@UDialogItem@Far@@@std@@@std@@IAEXI@Z 6405f7b0 f i farutils.obj
 0001:0005e800       ?allocate@?$allocator@UFarMenuItem@@@std@@QAEPAUFarMenuItem@@I@Z 6405f800 f i farutils.obj
 0001:0005e860       ?reserve@?$vector@UDialogItem@Far@@V?$allocator@UDialogItem@Far@@@std@@@std@@QAEXI@Z 6405f860 f i farutils.obj
 0001:0005e920       ?allocate@?$allocator@UDialogItem@Far@@@std@@QAEPAUDialogItem@Far@@I@Z 6405f920 f i farutils.obj
 0001:0005e980       ??$_Uninit_move@PAUFarMenuItem@@PAU1@V?$allocator@UFarMenuItem@@@std@@U1@@std@@YAPAUFarMenuItem@@PAU1@00AAV?$allocator@UFarMenuItem@@@0@0U_Nonscalar_ptr_iterator_tag@0@@Z 6405f980 f i farutils.obj
 0001:0005e9b0       ??$_Uninit_move@PAUDialogItem@Far@@PAU12@V?$allocator@UDialogItem@Far@@@std@@U12@@std@@YAPAUDialogItem@Far@@PAU12@00AAV?$allocator@UDialogItem@Far@@@0@0U_Nonscalar_ptr_iterator_tag@0@@Z 6405f9b0 f i farutils.obj
 0001:0005e9e0       ?long_path@@YA?AV?$basic_string@_WU?$char_traits@_W@std@@V?$allocator@_W@2@@std@@ABV12@@Z 6405f9e0 f   pathutils.obj
 0001:0005eb70       ?add_trailing_slash@@YA?AV?$basic_string@_WU?$char_traits@_W@std@@V?$allocator@_W@2@@std@@ABV12@@Z 6405fb70 f   pathutils.obj
 0001:0005ebd0       ?locate_path_root@@YAXABV?$basic_string@_WU?$char_traits@_W@std@@V?$allocator@_W@2@@std@@AAIAA_N@Z 6405fbd0 f   pathutils.obj
 0001:0005ecc0       ?extract_file_name@@YA?AV?$basic_string@_WU?$char_traits@_W@std@@V?$allocator@_W@2@@std@@ABV12@@Z 6405fcc0 f   pathutils.obj
 0001:0005ed50       ?extract_file_path@@YA?AV?$basic_string@_WU?$char_traits@_W@std@@V?$allocator@_W@2@@std@@ABV12@@Z 6405fd50 f   pathutils.obj
 0001:0005ee50       ?extract_file_ext@@YA?AV?$basic_string@_WU?$char_traits@_W@std@@V?$allocator@_W@2@@std@@ABV12@@Z 6405fe50 f   pathutils.obj
 0001:0005ef20       ?is_root_path@@YA_NABV?$basic_string@_WU?$char_traits@_W@std@@V?$allocator@_W@2@@std@@@Z 6405ff20 f   pathutils.obj
 0001:0005ef70       ?is_absolute_path@@YA_NABV?$basic_string@_WU?$char_traits@_W@std@@V?$allocator@_W@2@@std@@@Z 6405ff70 f   pathutils.obj
 0001:0005f040       ?remove_path_root@@YA?AV?$basic_string@_WU?$char_traits@_W@std@@V?$allocator@_W@2@@std@@ABV12@@Z 64060040 f   pathutils.obj
 0001:0005f090       ?replace@?$basic_string@_WU?$char_traits@_W@std@@V?$allocator@_W@2@@std@@QAEAAV12@IIPB_WI@Z 64060090 f i pathutils.obj
 0001:0005f260       ?substr_match@@YA_NABV?$basic_string@_WU?$char_traits@_W@std@@V?$allocator@_W@2@@std@@IPB_W@Z 64060260 f   strutils.obj
 0001:0005f2e0       ?word_wrap@@YA?AV?$basic_string@_WU?$char_traits@_W@std@@V?$allocator@_W@2@@std@@ABV12@I@Z 640602e0 f   strutils.obj
 0001:0005f490       ?fit_str@@YA?AV?$basic_string@_WU?$char_traits@_W@std@@V?$allocator@_W@2@@std@@ABV12@I@Z 64060490 f   strutils.obj
 0001:0005f580       ?strip@@YA?AV?$basic_string@_WU?$char_traits@_W@std@@V?$allocator@_W@2@@std@@ABV12@@Z 64060580 f   strutils.obj
 0001:0005f5a0       ?int_to_str@@YA?AV?$basic_string@_WU?$char_traits@_W@std@@V?$allocator@_W@2@@std@@H@Z 640605a0 f   strutils.obj
 0001:0005f630       ?uint_to_str@@YA?AV?$basic_string@_WU?$char_traits@_W@std@@V?$allocator@_W@2@@std@@_K@Z 64060630 f   strutils.obj
 0001:0005f6f0       ?widen@@YA?AV?$basic_string@_WU?$char_traits@_W@std@@V?$allocator@_W@2@@std@@ABV?$basic_string@DU?$char_traits@D@std@@V?$allocator@D@2@@2@@Z 640606f0 f   strutils.obj
 0001:0005f740       ?split@@YA?AV?$list@V?$basic_string@_WU?$char_traits@_W@std@@V?$allocator@_W@2@@std@@V?$allocator@V?$basic_string@_WU?$char_traits@_W@std@@V?$allocator@_W@2@@std@@@2@@std@@ABV?$basic_string@_WU?$char_traits@_W@std@@V?$allocator@_W@2@@2@_W@Z 64060740 f   strutils.obj
 0001:0005f8a0       ?format_data_size@@YA?AV?$basic_string@_WU?$char_traits@_W@std@@V?$allocator@_W@2@@std@@_KQAPB_W@Z 640608a0 f   strutils.obj
 0001:0005fb60       ?unquote@@YA?AV?$basic_string@_WU?$char_traits@_W@std@@V?$allocator@_W@2@@std@@ABV12@@Z 64060b60 f   strutils.obj
 0001:0005fbe0       ?search_and_replace@@YA?AV?$basic_string@_WU?$char_traits@_W@std@@V?$allocator@_W@2@@std@@ABV12@00@Z 64060be0 f   strutils.obj
 0001:0005fd50       ?shrink_to_fit@?$basic_string@_WU?$char_traits@_W@std@@V?$allocator@_W@2@@std@@QAEXXZ 64060d50 f i strutils.obj
 0001:0005fe40       ??$strip@_W@@YA?AV?$basic_string@_WU?$char_traits@_W@std@@V?$allocator@_W@2@@std@@ABV01@@Z 64060e40 f i strutils.obj
 0001:0005fed0       ?get_system_message@@YA?AV?$basic_string@_WU?$char_traits@_W@std@@V?$allocator@_W@2@@std@@JK@Z 64060ed0 f   sysutils.obj
 0001:00060270       ?get_console_title@@YA?AV?$basic_string@_WU?$char_traits@_W@std@@V?$allocator@_W@2@@std@@XZ 64061270 f   sysutils.obj
 0001:00060320       ?ansi_to_unicode@@YA?AV?$basic_string@_WU?$char_traits@_W@std@@V?$allocator@_W@2@@std@@ABV?$basic_string@DU?$char_traits@D@std@@V?$allocator@D@2@@2@I@Z 64061320 f   sysutils.obj
 0001:000604a0       ?unicode_to_ansi@@YA?AV?$basic_string@DU?$char_traits@D@std@@V?$allocator@D@2@@std@@ABV?$basic_string@_WU?$char_traits@_W@std@@V?$allocator@_W@2@@2@I@Z 640614a0 f   sysutils.obj
 0001:00060620       ?expand_env_vars@@YA?AV?$basic_string@_WU?$char_traits@_W@std@@V?$allocator@_W@2@@std@@ABV12@@Z 64061620 f   sysutils.obj
 0001:000607b0       ??1File@@QAE@XZ            640617b0 f   sysutils.obj
 0001:000607f0       ?open@File@@QAEXABV?$basic_string@_WU?$char_traits@_W@std@@V?$allocator@_W@2@@std@@KKKK@Z 640617f0 f   sysutils.obj
 0001:000608f0       ?open_nt@File@@QAE_NABV?$basic_string@_WU?$char_traits@_W@std@@V?$allocator@_W@2@@std@@KKKK@Z 640618f0 f   sysutils.obj
 0001:000609a0       ?size@File@@QAE_KXZ        640619a0 f   sysutils.obj
 0001:00060aa0       ?read@File@@QAEIPAXI@Z     64061aa0 f   sysutils.obj
 0001:00060ba0       ?write@File@@QAEIPBXI@Z    64061ba0 f   sysutils.obj
 0001:00060ca0       ?set_time@File@@QAEXABU_FILETIME@@00@Z 64061ca0 f   sysutils.obj
 0001:00060da0       ?set_pos@File@@QAE_K_JK@Z  64061da0 f   sysutils.obj
 0001:00060ec0       ?set_end@File@@QAEXXZ      64061ec0 f   sysutils.obj
 0001:00060fb0       ?exists@File@@SA_NABV?$basic_string@_WU?$char_traits@_W@std@@V?$allocator@_W@2@@std@@@Z 64061fb0 f   sysutils.obj
 0001:00061010       ?set_attr@File@@SAXABV?$basic_string@_WU?$char_traits@_W@std@@V?$allocator@_W@2@@std@@K@Z 64062010 f   sysutils.obj
 0001:00061150       ?set_attr_nt@File@@SA_NABV?$basic_string@_WU?$char_traits@_W@std@@V?$allocator@_W@2@@std@@K@Z 64062150 f   sysutils.obj
 0001:000611b0       ?delete_file@File@@SAXABV?$basic_string@_WU?$char_traits@_W@std@@V?$allocator@_W@2@@std@@@Z 640621b0 f   sysutils.obj
 0001:000612e0       ?delete_file_nt@File@@SA_NABV?$basic_string@_WU?$char_traits@_W@std@@V?$allocator@_W@2@@std@@@Z 640622e0 f   sysutils.obj
 0001:00061340       ?create_dir@File@@SAXABV?$basic_string@_WU?$char_traits@_W@std@@V?$allocator@_W@2@@std@@@Z 64062340 f   sysutils.obj
 0001:00061480       ?remove_dir@File@@SAXABV?$basic_string@_WU?$char_traits@_W@std@@V?$allocator@_W@2@@std@@@Z 64062480 f   sysutils.obj
 0001:000615b0       ?move_file@File@@SAXABV?$basic_string@_WU?$char_traits@_W@std@@V?$allocator@_W@2@@std@@0K@Z 640625b0 f   sysutils.obj
 0001:000616a0       ?move_file_nt@File@@SA_NABV?$basic_string@_WU?$char_traits@_W@std@@V?$allocator@_W@2@@std@@0K@Z 640626a0 f   sysutils.obj
 0001:00061740       ?get_find_data@File@@SA?AUFindData@@ABV?$basic_string@_WU?$char_traits@_W@std@@V?$allocator@_W@2@@std@@@Z 64062740 f   sysutils.obj
 0001:00061840       ?get_find_data_nt@File@@SA_NABV?$basic_string@_WU?$char_traits@_W@std@@V?$allocator@_W@2@@std@@AAUFindData@@@Z 64062840 f   sysutils.obj
 0001:000618d0       ??1Key@@QAE@XZ             640628d0 f   sysutils.obj
 0001:000618f0       ?query_str_nt@Key@@QAE_NAAV?$basic_string@_WU?$char_traits@_W@std@@V?$allocator@_W@2@@std@@PB_W@Z 640628f0 f   sysutils.obj
 0001:000619b0       ?next@FileEnum@@QAE_NXZ    640629b0 f   sysutils.obj
 0001:00061ab0       ?next_nt@FileEnum@@QAE_NAA_N@Z 64062ab0 f   sysutils.obj
 0001:00061b90       ??0DirList@@QAE@ABV?$basic_string@_WU?$char_traits@_W@std@@V?$allocator@_W@2@@std@@@Z 64062b90 f   sysutils.obj
 0001:00061c40       ?get_temp_path@@YA?AV?$basic_string@_WU?$char_traits@_W@std@@V?$allocator@_W@2@@std@@XZ 64062c40 f   sysutils.obj
 0001:00061e40       ??0TempFile@@QAE@XZ        64062e40 f   sysutils.obj
 0001:00061fe0       ??1TempFile@@QAE@XZ        64062fe0 f   sysutils.obj
 0001:00062020       ?format_file_time@@YA?AV?$basic_string@_WU?$char_traits@_W@std@@V?$allocator@_W@2@@std@@ABU_FILETIME@@@Z 64063020 f   sysutils.obj
 0001:00062360       ?upcase@@YA?AV?$basic_string@_WU?$char_traits@_W@std@@V?$allocator@_W@2@@std@@ABV12@@Z 64063360 f   sysutils.obj
 0001:00062430       ?search_path@@YA?AV?$basic_string@_WU?$char_traits@_W@std@@V?$allocator@_W@2@@std@@ABV12@@Z 64063430 f   sysutils.obj
 0001:000626b0       ??6?$basic_ostream@_WU?$char_traits@_W@std@@@std@@QAEAAV01@J@Z 640636b0 f i sysutils.obj
 0001:000628b0       _EncodePointerWrapper@4    640638b0 f   vc10wrapper.obj
 0001:000628c0       _DecodePointerWrapper@4    640638c0 f   vc10wrapper.obj
 0001:000629b0       ??1out_of_range@std@@UAE@XZ 640639b0 f i libcpmt:xthrow.obj
 0001:000629b0       ??1length_error@std@@UAE@XZ 640639b0 f i libcpmt:xthrow.obj
 0001:000629b5       ??0logic_error@std@@QAE@ABV01@@Z 640639b5 f i libcpmt:xthrow.obj
 0001:000629d2       ?_Xlength_error@std@@YAXPBD@Z 640639d2 f   libcpmt:xthrow.obj
 0001:00062a02       ??0length_error@std@@QAE@ABV01@@Z 64063a02 f i libcpmt:xthrow.obj
 0001:00062a1f       ?_Xout_of_range@std@@YAXPBD@Z 64063a1f f   libcpmt:xthrow.obj
 0001:00062a4f       ??0out_of_range@std@@QAE@ABV01@@Z 64063a4f f i libcpmt:xthrow.obj
 0001:00062a6c       ??_Gout_of_range@std@@UAEPAXI@Z 64063a6c f i libcpmt:xthrow.obj
 0001:00062a6c       ??_Glength_error@std@@UAEPAXI@Z 64063a6c f i libcpmt:xthrow.obj
 0001:00062a6c       ??_Elogic_error@std@@UAEPAXI@Z 64063a6c f i libcpmt:xthrow.obj
 0001:00062a6c       ??_Elength_error@std@@UAEPAXI@Z 64063a6c f i libcpmt:xthrow.obj
 0001:00062a6c       ??_Glogic_error@std@@UAEPAXI@Z 64063a6c f i libcpmt:xthrow.obj
 0001:00062a6c       ??_Eout_of_range@std@@UAEPAXI@Z 64063a6c f i libcpmt:xthrow.obj
 0001:00062a8d       ??_U@YAPAXI@Z              64063a8d f   libcpmt:newaop.obj
 0001:00062a98       ?_Callfns@ios_base@std@@AAEXW4event@12@@Z 64063a98 f i libcpmt:ios.obj
 0001:00062abf       ?_Tidy@ios_base@std@@AAEXXZ 64063abf f i libcpmt:ios.obj
 0001:00062b03       ?_Ios_base_dtor@ios_base@std@@CAXPAV12@@Z 64063b03 f   libcpmt:ios.obj
 0001:00062b41       ??8error_condition@std@@QBE_NABV01@@Z 64063b41 f i libcpmt:syserror.obj
 0001:00062b62       ?default_error_condition@error_category@std@@UBE?AVerror_condition@2@H@Z 64063b62 f i libcpmt:syserror.obj
 0001:00062b62       ?default_error_condition@_System_error_category@std@@UBE?AVerror_condition@2@H@Z 64063b62 f i libcpmt:syserror.obj
 0001:00062b76       ?equivalent@error_category@std@@UBE_NHABVerror_condition@2@@Z 64063b76 f i libcpmt:syserror.obj
 0001:00062b97       ?equivalent@error_category@std@@UBE_NABVerror_code@2@H@Z 64063b97 f i libcpmt:syserror.obj
 0001:00062bb6       ?name@_Generic_error_category@std@@UBEPBDXZ 64063bb6 f i libcpmt:syserror.obj
 0001:00062bb6       ?name@_Iostream_error_category@std@@UBEPBDXZ 64063bb6 f i libcpmt:syserror.obj
 0001:00062bba       ?length@DNameStatusNode@@UBEHXZ 64063bba f i LIBCMT:undname.obj
 0001:00062bba       ?name@_System_error_category@std@@UBEPBDXZ 64063bba f i libcpmt:syserror.obj
 0001:00062bba       ?length@pcharNode@@UBEHXZ  64063bba f i LIBCMT:undname.obj
 0001:00062bbe       ?iostream_category@std@@YAABVerror_category@1@XZ 64063bbe f   libcpmt:syserror.obj
 0001:00062bc4       ??_Gerror_category@std@@UAEPAXI@Z 64063bc4 f i libcpmt:syserror.obj
 0001:00062bc4       ??_G_System_error_category@std@@UAEPAXI@Z 64063bc4 f i libcpmt:syserror.obj
 0001:00062bc4       ??_E_Generic_error_category@std@@UAEPAXI@Z 64063bc4 f i libcpmt:syserror.obj
 0001:00062bc4       ??_E_Iostream_error_category@std@@UAEPAXI@Z 64063bc4 f i libcpmt:syserror.obj
 0001:00062bc4       ??_G_Iostream_error_category@std@@UAEPAXI@Z 64063bc4 f i libcpmt:syserror.obj
 0001:00062bc4       ??_Eerror_category@std@@UAEPAXI@Z 64063bc4 f i libcpmt:syserror.obj
 0001:00062bc4       ??_G_Generic_error_category@std@@UAEPAXI@Z 64063bc4 f i libcpmt:syserror.obj
 0001:00062bc4       ??_E_System_error_category@std@@UAEPAXI@Z 64063bc4 f i libcpmt:syserror.obj
 0001:00062be6       ?message@_Generic_error_category@std@@UBE?AV?$basic_string@DU?$char_traits@D@std@@V?$allocator@D@2@@2@H@Z 64063be6 f i libcpmt:syserror.obj
 0001:00062c09       ?message@_Iostream_error_category@std@@UBE?AV?$basic_string@DU?$char_traits@D@std@@V?$allocator@D@2@@2@H@Z 64063c09 f i libcpmt:syserror.obj
 0001:00062c39       ??0_Mutex@std@@QAE@XZ      64063c39 f   libcpmt:xmutex.obj
 0001:00062c53       ??1_Mutex@std@@QAE@XZ      64063c53 f   libcpmt:xmutex.obj
 0001:00062c6a       ?_Lock@_Mutex@std@@QAEXXZ  64063c6a f   libcpmt:xmutex.obj
 0001:00062c73       ?_Unlock@_Mutex@std@@QAEXXZ 64063c73 f   libcpmt:xmutex.obj
 0001:00062c7c       ?uncaught_exception@std@@YA_NXZ 64063c7c f   libcpmt:uncaught.obj
 0001:00062c81       ??0_Init_locks@std@@QAE@XZ 64063c81 f   libcpmt:xlock.obj
 0001:00062cb2       ??1_Init_locks@std@@QAE@XZ 64063cb2 f   libcpmt:xlock.obj
 0001:00062cdb       ??0_Lockit@std@@QAE@H@Z    64063cdb f   libcpmt:xlock.obj
 0001:00062d03       ??1_Lockit@std@@QAE@XZ     64063d03 f   libcpmt:xlock.obj
 0001:00062d1a       ??1_Fac_node@std@@QAE@XZ   64063d1a f i libcpmt:locale0.obj
 0001:00062d2f       ?_Facet_Register@facet@locale@std@@CAXPAV123@@Z 64063d2f f   libcpmt:locale0.obj
 0001:00062d59       __Deletegloballocale       64063d59 f   libcpmt:locale0.obj
 0001:00062da6       ?_Getgloballocale@locale@std@@CAPAV_Locimp@12@XZ 64063da6 f   libcpmt:locale0.obj
 0001:00062dac       ?_Setgloballocale@locale@std@@CAXPAX@Z 64063dac f   libcpmt:locale0.obj
 0001:00062dd6       ?_Locimp_dtor@_Locimp@locale@std@@CAXPAV123@@Z 64063dd6 f   libcpmt:locale0.obj
 0001:00062e36       ??1_Fac_tidy_reg_t@std@@QAE@XZ 64063e36 f i libcpmt:locale0.obj
 0001:00062e84       ?_Locinfo_dtor@_Locinfo@std@@SAXPAV12@@Z 64063e84 f   libcpmt:locale0.obj
 0001:00062e9f       ??4?$_Yarn@D@std@@QAEAAV01@PBD@Z 64063e9f f i libcpmt:locale0.obj
 0001:00062ef7       ?_Locinfo_ctor@_Locinfo@std@@SAXPAV12@PBD@Z 64063ef7 f   libcpmt:locale0.obj
 0001:00062f44       ??0_Locimp@locale@std@@AAE@_N@Z 64063f44 f i libcpmt:locale0.obj
 0001:00062f83       ??1_Locimp@locale@std@@MAE@XZ 64063f83 f i libcpmt:locale0.obj
 0001:00062fc6       ??_E_Locimp@locale@std@@MAEPAXI@Z 64063fc6 f i libcpmt:locale0.obj
 0001:00062fc6       ??_G_Locimp@locale@std@@MAEPAXI@Z 64063fc6 f i libcpmt:locale0.obj
 0001:00062fe7       ?_Init@locale@std@@CAPAV_Locimp@12@XZ 64063fe7 f   libcpmt:locale0.obj
 0001:000630b8       __GetLocaleForCP           640640b8 f   libcpmt:xmbtowc.obj
 0001:000631a6       __Mbrtowc                  640641a6 f   libcpmt:xmbtowc.obj
 0001:00063319       __Wcrtomb                  64064319 f   libcpmt:xwctomb.obj
 0001:000633a0       __Getcvt                   640643a0 f   libcpmt:xwctomb.obj
 0001:000633b6       __Getctype                 640643b6 f   libcpmt:_tolower.obj
 0001:00063416       __Towupper                 64064416 f   libcpmt:xtowupper.obj
 0001:0006347e       __Towlower                 6406447e f   libcpmt:xtowlower.obj
 0001:000634e4       __Getwctype                640644e4 f   libcpmt:xgetwctype.obj
 0001:00063508       __Getwctypes               64064508 f   libcpmt:xgetwctype.obj
 0001:0006353f       ?setw@std@@YA?AU?$_Smanip@_J@1@_J@Z 6406453f f   libcpmt:iomanip.obj
 0001:0006355b       __Mtxinit                  6406455b f   libcpmt:xmtx.obj
 0001:0006356b       __Mtxdst                   6406456b f   libcpmt:xmtx.obj
 0001:0006357b       __Mtxlock                  6406457b f   libcpmt:xmtx.obj
 0001:0006358b       __Mtxunlock                6406458b f   libcpmt:xmtx.obj
 0001:0006359b       ?_Atexit@@YAXP6AXXZ@Z      6406459b f   libcpmt:iosptrs.obj
 0001:000635cd       ??1_Init_atexit@@QAE@XZ    640645cd f i libcpmt:iosptrs.obj
 0001:000635f8       @__security_check_cookie@4 640645f8 f   LIBCMT:secchk.obj
 0001:00063607       ??0exception@std@@QAE@XZ   64064607 f   LIBCMT:stdexcpt.obj
 0001:00063618       ??0exception@std@@QAE@ABQBDH@Z 64064618 f   LIBCMT:stdexcpt.obj
 0001:00063635       ?what@exception@std@@UBEPBDXZ 64064635 f   LIBCMT:stdexcpt.obj
 0001:00063642       ?_Copy_str@exception@std@@AAEXPBD@Z 64064642 f   LIBCMT:stdexcpt.obj
 0001:00063682       ?_Tidy@exception@std@@AAEXXZ 64064682 f   LIBCMT:stdexcpt.obj
 0001:000636a0       ??0exception@std@@QAE@ABQBD@Z 640646a0 f   LIBCMT:stdexcpt.obj
 0001:000636c7       ??4exception@std@@QAEAAV01@ABV01@@Z 640646c7 f   LIBCMT:stdexcpt.obj
 0001:000636fc       ??0bad_cast@std@@QAE@PBD@Z 640646fc f   LIBCMT:stdexcpt.obj
 0001:0006371a       ??0bad_typeid@std@@QAE@PBD@Z 6406471a f   LIBCMT:stdexcpt.obj
 0001:00063738       ??0__non_rtti_object@std@@QAE@PBD@Z 64064738 f   LIBCMT:stdexcpt.obj
 0001:00063755       ??1bad_typeid@std@@UAE@XZ  64064755 f   LIBCMT:stdexcpt.obj
 0001:00063755       ??1exception@std@@UAE@XZ   64064755 f   LIBCMT:stdexcpt.obj
 0001:00063755       ??1bad_cast@std@@UAE@XZ    64064755 f   LIBCMT:stdexcpt.obj
 0001:00063755       ??1__non_rtti_object@std@@UAE@XZ 64064755 f   LIBCMT:stdexcpt.obj
 0001:00063760       ??0exception@std@@QAE@ABV01@@Z 64064760 f   LIBCMT:stdexcpt.obj
 0001:00063785       ??0bad_cast@std@@QAE@ABV01@@Z 64064785 f   LIBCMT:stdexcpt.obj
 0001:000637a2       ??_Eexception@std@@UAEPAXI@Z 640647a2 f i LIBCMT:stdexcpt.obj
 0001:000637a2       ??_Ebad_typeid@std@@UAEPAXI@Z 640647a2 f i LIBCMT:stdexcpt.obj
 0001:000637a2       ??_E__non_rtti_object@std@@UAEPAXI@Z 640647a2 f i LIBCMT:stdexcpt.obj
 0001:000637a2       ??_Gbad_typeid@std@@UAEPAXI@Z 640647a2 f i LIBCMT:stdexcpt.obj
 0001:000637a2       ??_Ebad_cast@std@@UAEPAXI@Z 640647a2 f i LIBCMT:stdexcpt.obj
 0001:000637a2       ??_G__non_rtti_object@std@@UAEPAXI@Z 640647a2 f i LIBCMT:stdexcpt.obj
 0001:000637a2       ??_Gbad_cast@std@@UAEPAXI@Z 640647a2 f i LIBCMT:stdexcpt.obj
 0001:000637a2       ??_Gexception@std@@UAEPAXI@Z 640647a2 f i LIBCMT:stdexcpt.obj
 0001:000637c9       ??0bad_typeid@std@@QAE@ABV01@@Z 640647c9 f   LIBCMT:stdexcpt.obj
 0001:000637e6       ??0__non_rtti_object@std@@QAE@ABV01@@Z 640647e6 f   LIBCMT:stdexcpt.obj
 0001:00063803       ??3@YAXPAX@Z               64064803 f   LIBCMT:delete.obj
 0001:0006380e       ?name@type_info@@QBEPBDPAU__type_info_node@@@Z 6406480e f   LIBCMT:typinfo.obj
 0001:00063822       ??1type_info@@UAE@XZ       64064822 f   LIBCMT:typinfo.obj
 0001:00063832       ??_Etype_info@@UAEPAXI@Z   64064832 f i LIBCMT:typinfo.obj
 0001:00063832       ??_Gtype_info@@UAEPAXI@Z   64064832 f i LIBCMT:typinfo.obj
 0001:00063853       ??8type_info@@QBE_NABV0@@Z 64064853 f   LIBCMT:typinfo.obj
 0001:00063873       ??2@YAPAXI@Z               64064873 f   LIBCMT:new.obj
 0001:00063900       _memmove                   64064900 f   LIBCMT:memmove.obj
 0001:00063d17       ___onexitinit              64064d17 f   LIBCMT:onexit.obj
 0001:00063d48       __onexit                   64064d48 f   LIBCMT:onexit.obj
 0001:00063d84       _atexit                    64064d84 f   LIBCMT:onexit.obj
 0001:00063d9b       ??_V@YAXPAX@Z              64064d9b f   LIBCMT:delete2.obj
 0001:00063da6       ___RTtypeid                64064da6 f   LIBCMT:rtti.obj
 0001:00063e23       __purecall                 64064e23 f   LIBCMT:purevirt.obj
 0001:00063e4d       ??0_LocaleUpdate@@QAE@PAUlocaleinfo_struct@@@Z 64064e4d f i LIBCMT:wcsicmp.obj
 0001:00063ed4       __wcsicmp_l                64064ed4 f   LIBCMT:wcsicmp.obj
 0001:00063fd7       __wcsicmp                  64064fd7 f   LIBCMT:wcsicmp.obj
 0001:00064062       _sprintf_s                 64065062 f   LIBCMT:sprintf.obj
 0001:00064080       _localeconv                64065080 f   LIBCMT:lconv.obj
 0001:000640b0       _memchr                    640650b0 f   LIBCMT:memchr.obj
 0001:00064160       _strcspn                   64065160 f   LIBCMT:strcspn.obj
 0001:000641a6       _memmove_s                 640651a6 f   LIBCMT:memmove_s.obj
 0001:000641f9       _free                      640651f9 f   LIBCMT:free.obj
 0001:00064312       __itow_s                   64065312 f   LIBCMT:xtows.obj
 0001:0006443b       __i64tow_s                 6406543b f   LIBCMT:xtows.obj
 0001:00064470       __ui64tow_s                64065470 f   LIBCMT:xtows.obj
 0001:0006448f       __tolower_l                6406548f f   LIBCMT:tolower.obj
 0001:000645a4       _tolower                   640655a4 f   LIBCMT:tolower.obj
 0001:000645d0       _atol                      640655d0 f   LIBCMT:atox.obj
 0001:000645e6       __wtol                     640655e6 f   LIBCMT:wtox.obj
 0001:000645fc       __wtoi                     640655fc f   LIBCMT:wtox.obj
 0001:00064607       __heap_init                64065607 f   LIBCMT:heapinit.obj
 0001:00064625       __heap_term                64065625 f   LIBCMT:heapinit.obj
 0001:00064639       __get_heap_handle          64065639 f   LIBCMT:heapinit.obj
 0001:0006463f       __CRT_INIT@12              6406563f f   LIBCMT:dllcrt0.obj
 0001:00064899       __DllMainCRTStartup@12     64065899 f   LIBCMT:dllcrt0.obj
 0001:000648bc       __CxxThrowException@8      640658bc f   LIBCMT:throw.obj
 0001:00064910       _strlen                    64065910 f   LIBCMT:strlen.obj
 0001:000649a0       _memcpy                    640659a0 f   LIBCMT:memcpy.obj
 0001:00064d01       ?_JumpToContinuation@@YGXPAXPAUEHRegistrationNode@@@Z 64065d01 f   LIBCMT:_trnsctrl_.obj
 0001:00064d33       ?_CallMemberFunction2@@YGXPAX00H@Z 64065d33 f   LIBCMT:_trnsctrl_.obj
 0001:00064d33       ?_CallMemberFunction0@@YGXPAX0@Z 64065d33 f   LIBCMT:_trnsctrl_.obj
 0001:00064d33       ?_CallMemberFunction1@@YGXPAX00@Z 64065d33 f   LIBCMT:_trnsctrl_.obj
 0001:00064d3a       ?_UnwindNestedFrames@@YGXPAUEHRegistrationNode@@PAUEHExceptionRecord@@@Z 64065d3a f   LIBCMT:_trnsctrl_.obj
 0001:00064d8e       ___CxxFrameHandler3        64065d8e f   LIBCMT:_trnsctrl_.obj
 0001:00064df7       ?_CallSETranslator@@YAHPAUEHExceptionRecord@@PAUEHRegistrationNode@@PAX2PBU_s_FuncInfo@@H1@Z 64065df7 f   LIBCMT:_trnsctrl_.obj
 0001:00064f6d       ?_GetRangeOfTrysToCheck@@YAPBU_s_TryBlockMapEntry@@PBU_s_FuncInfo@@HHPAI1@Z 64065f6d f   LIBCMT:_trnsctrl_.obj
 0001:00064fe0       __CreateFrameInfo          64065fe0 f   LIBCMT:_trnsctrl_.obj
 0001:0006500c       __IsExceptionObjectToBeDestroyed 6406600c f   LIBCMT:_trnsctrl_.obj
 0001:00065033       __FindAndUnlinkFrame       64066033 f   LIBCMT:_trnsctrl_.obj
 0001:00065085       ?_CallCatchBlock2@@YAPAXPAUEHRegistrationNode@@PBU_s_FuncInfo@@PAXHK@Z 64066085 f   LIBCMT:_trnsctrl_.obj
 0001:000650e5       __EH_prolog3               640660e5 f   LIBCMT:ehprolg3.obj
 0001:00065118       __EH_prolog3_catch         64066118 f   LIBCMT:ehprolg3.obj
 0001:0006514e       __EH_epilog3               6406614e f   LIBCMT:ehprolg3.obj
 0001:00065162       __get_sys_err_msg          64066162 f i LIBCMT:strerror.obj
 0001:0006518a       _strerror                  6406618a f   LIBCMT:strerror.obj
 0001:000651f4       ??1bad_exception@std@@UAE@XZ 640661f4 f i LIBCMT:frame.obj
 0001:000651ff       ??_Ebad_exception@std@@UAEPAXI@Z 640661ff f i LIBCMT:frame.obj
 0001:000651ff       ??_Gbad_exception@std@@UAEPAXI@Z 640661ff f i LIBCMT:frame.obj
 0001:00065226       ___TypeMatch               64066226 f   LIBCMT:frame.obj
 0001:00065285       ___FrameUnwindFilter       64066285 f   LIBCMT:frame.obj
 0001:000652d4       ___FrameUnwindToState      640662d4 f   LIBCMT:frame.obj
 0001:000653f5       ___DestructExceptionObject 640663f5 f   LIBCMT:frame.obj
 0001:0006544a       ___AdjustPointer           6406644a f   LIBCMT:frame.obj
 0001:00065473       ?__uncaught_exception@@YA_NXZ 64066473 f   LIBCMT:frame.obj
 0001:000656e4       ___BuildCatchObjectHelper  640666e4 f   LIBCMT:frame.obj
 0001:00065863       ___BuildCatchObject        64066863 f   LIBCMT:frame.obj
 0001:00065ddf       ??0bad_exception@std@@QAE@ABV01@@Z 64066ddf f i LIBCMT:frame.obj
 0001:00065dfc       ___InternalCxxFrameHandler 64066dfc f   LIBCMT:frame.obj
 0001:00065f08       __free_locale              64066f08 f   LIBCMT:setlocal.obj
 0001:00065fca       __strcats                  64066fca f   LIBCMT:setlocal.obj
 0001:0006600b       ___lc_strtolc              6406700b f   LIBCMT:setlocal.obj
 0001:0006612a       ___lc_lctostr              6406712a f   LIBCMT:setlocal.obj
 0001:000662fa       __expandlocale             640672fa f   LIBCMT:setlocal.obj
 0001:00066a71       __create_locale            64067a71 f   LIBCMT:setlocal.obj
 0001:00066b66       _setlocale                 64067b66 f   LIBCMT:setlocal.obj
 0001:00066cda       _malloc                    64067cda f   LIBCMT:malloc.obj
 0001:00066e28       __itoa_s                   64067e28 f   LIBCMT:xtoas.obj
 0001:00066f3e       __ui64toa_s                64067f3e f   LIBCMT:xtoas.obj
 0001:00066f5d       __malloc_crt               64067f5d f   LIBCMT:crtheap.obj
 0001:00066fa2       __calloc_crt               64067fa2 f   LIBCMT:crtheap.obj
 0001:00066fee       __realloc_crt              64067fee f   LIBCMT:crtheap.obj
 0001:0006703c       ___pctype_func             6406803c f   LIBCMT:ctype.obj
 0001:00067065       __get_errno_from_oserr     64068065 f   LIBCMT:dosmap.obj
 0001:000670a7       __errno                    640680a7 f   LIBCMT:dosmap.obj
 0001:000670ba       ___doserrno                640680ba f   LIBCMT:dosmap.obj
 0001:000670cd       __dosmaperr                640680cd f   LIBCMT:dosmap.obj
 0001:000670f0       ___init_ctype              640680f0 f   LIBCMT:initctyp.obj
 0001:00067497       ____mb_cur_max_func        64068497 f   LIBCMT:initctyp.obj
 0001:000674c0       ____mb_cur_max_l_func      640684c0 f   LIBCMT:initctyp.obj
 0001:000674dc       ____lc_codepage_func       640684dc f   LIBCMT:initctyp.obj
 0001:00067502       ____lc_handle_func         64068502 f   LIBCMT:initctyp.obj
 0001:00067528       __freea                    64068528 f i LIBCMT:a_map.obj
 0001:0006772f       ___crtLCMapStringA         6406872f f   LIBCMT:a_map.obj
 0001:00067775       __isdigit_l                64068775 f i LIBCMT:_ctype.obj
 0001:000677c6       _isdigit                   640687c6 f i LIBCMT:_ctype.obj
 0001:000677f4       ___crtLCMapStringW         640687f4 f   LIBCMT:w_map.obj
 0001:00067823       _abort                     64068823 f   LIBCMT:abort.obj
 0001:00067856       __set_abort_behavior       64068856 f   LIBCMT:abort.obj
 0001:00067877       ___report_gsfailure        64068877 f   LIBCMT:gs_report.obj
 0001:0006797d       _strcpy_s                  6406897d f   LIBCMT:strcpy_s.obj
 0001:000679dc       ?_Type_info_dtor@type_info@@CAXPAV1@@Z 640689dc f   LIBCMT:typname.obj
 0001:00067a4c       ?_Name_base@type_info@@CAPBDPBV1@PAU__type_info_node@@@Z 64068a4c f   LIBCMT:typname.obj
 0001:00067b40       _strcmp                    64068b40 f   LIBCMT:strcmp.obj
 0001:00067bc8       __initp_heap_handler       64068bc8 f   LIBCMT:handler.obj
 0001:00067bd7       __callnewh                 64068bd7 f   LIBCMT:handler.obj
 0001:00067bff       __VEC_memcpy               64068bff f   LIBCMT:p4_memcpy.obj
 0001:00067d02       ___sse2_available_init     64068d02 f   LIBCMT:cpu_disp.obj
 0001:00067d12       __msize                    64068d12 f   LIBCMT:msize.obj
 0001:00067d45       ___crtCorExitProcess       64068d45 f   LIBCMT:crt0dat.obj
 0001:00067d70       ___crtExitProcess          64068d70 f   LIBCMT:crt0dat.obj
 0001:00067d88       __lockexit                 64068d88 f   LIBCMT:crt0dat.obj
 0001:00067d91       __unlockexit               64068d91 f   LIBCMT:crt0dat.obj
 0001:00067d9a       __init_pointers            64068d9a f   LIBCMT:crt0dat.obj
 0001:00067dcd       __initterm_e               64068dcd f   LIBCMT:crt0dat.obj
 0001:00067df1       __cinit                    64068df1 f   LIBCMT:crt0dat.obj
 0001:00067fc8       __exit                     64068fc8 f   LIBCMT:crt0dat.obj
 0001:00067fde       __cexit                    64068fde f   LIBCMT:crt0dat.obj
 0001:00067fed       __amsg_exit                64068fed f   LIBCMT:crt0dat.obj
 0001:00068010       __SEH_prolog4              64069010 f   LIBCMT:sehprolg4.obj
 0001:00068055       __SEH_epilog4              64069055 f   LIBCMT:sehprolg4.obj
 0001:00068070       __except_handler4          64069070 f   LIBCMT:chandler4.obj
 0001:000681ff       __GET_RTERRMSG             640691ff f   LIBCMT:crt0msg.obj
 0001:00068225       __NMSG_WRITE               64069225 f   LIBCMT:crt0msg.obj
 0001:000683d4       __FF_MSGBANNER             640693d4 f   LIBCMT:crt0msg.obj
 0001:0006840d       ___getlocaleinfo           6406940d f   LIBCMT:inithelp.obj
 0001:000685b9       __initp_misc_purevirt      640695b9 f   LIBCMT:inithelp.obj
 0001:000687eb       ___updatetmbcinfo          640697eb f   LIBCMT:mbctype.obj
 0001:0006890b       __setmbcp_nolock           6406990b f   LIBCMT:mbctype.obj
 0001:00068af4       __setmbcp                  64069af4 f   LIBCMT:mbctype.obj
 0001:00068c8e       ___initmbctable            64069c8e f   LIBCMT:mbctype.obj
 0001:00068cac       ___addlocaleref            64069cac f   LIBCMT:localref.obj
 0001:00068d3b       ___removelocaleref         64069d3b f   LIBCMT:localref.obj
 0001:00068dd4       ___freetlocinfo            64069dd4 f   LIBCMT:localref.obj
 0001:00068f1f       __updatetlocinfoEx_nolock  64069f1f f   LIBCMT:localref.obj
 0001:00068f6c       ___updatetlocinfo          64069f6c f   LIBCMT:localref.obj
 0001:00068fe5       __encoded_null             64069fe5 f   LIBCMT:tidtable.obj
 0001:00068fee       ___crtTlsAlloc@4           64069fee f   LIBCMT:tidtable.obj
 0001:00068ff7       ___set_flsgetvalue         64069ff7 f   LIBCMT:tidtable.obj
 0001:0006902b       __mtterm                   6406a02b f   LIBCMT:tidtable.obj
 0001:00069068       __initptd                  6406a068 f   LIBCMT:tidtable.obj
 0001:0006911c       __getptd_noexit            6406a11c f   LIBCMT:tidtable.obj
 0001:00069195       __getptd                   6406a195 f   LIBCMT:tidtable.obj
 0001:000691af       __freefls@4                6406a1af f   LIBCMT:tidtable.obj
 0001:000692de       __freeptd                  6406a2de f   LIBCMT:tidtable.obj
 0001:0006934c       __mtinit                   6406a34c f   LIBCMT:tidtable.obj
 0001:000694c7       __towlower_l               6406a4c7 f   LIBCMT:towlower.obj
 0001:00069567       __initp_misc_invarg        6406a567 f   LIBCMT:invarg.obj
 0001:00069576       __call_reportfault         6406a576 f   LIBCMT:invarg.obj
 0001:0006969f       __invoke_watson            6406a69f f   LIBCMT:invarg.obj
 0001:000696c4       __invalid_parameter        6406a6c4 f   LIBCMT:invarg.obj
 0001:000696f1       __invalid_parameter_noinfo 6406a6f1 f   LIBCMT:invarg.obj
 0001:00069701       __flsbuf                   6406a701 f   LIBCMT:_flsbuf.obj
 0001:00069865       __vsnprintf_helper         6406a865 f   LIBCMT:vsnprnc.obj
 0001:0006992f       __vsprintf_s_l             6406a92f f   LIBCMT:vsnprnc.obj
 0001:000699b0       __aulldvrm                 6406a9b0 f   LIBCMT:ulldvrm.obj
 0001:00069a45       __isleadbyte_l             6406aa45 f i LIBCMT:_wctype.obj
 0001:00069a7d       _isleadbyte                6406aa7d f i LIBCMT:_wctype.obj
 0001:00069a90       __isctype_l                6406aa90 f   LIBCMT:isctype.obj
 0001:00069d73       _strtol                    6406ad73 f   LIBCMT:strtol.obj
 0001:00069f60       _wcstol                    6406af60 f   LIBCMT:wcstol.obj
 0001:00069f7a       __ioinit                   6406af7a f   LIBCMT:ioinit.obj
 0001:0006a1bf       __ioterm                   6406b1bf f   LIBCMT:ioinit.obj
 0001:0006a212       __setenvp                  6406b212 f   LIBCMT:stdenvp.obj
 0001:0006a488       __setargv                  6406b488 f   LIBCMT:stdargv.obj
 0001:0006a543       ___crtGetEnvironmentStringsA 6406b543 f   LIBCMT:a_env.obj
 0001:0006a5da       __RTC_Initialize           6406b5da f   LIBCMT:_initsect_.obj
 0001:0006a600       __RTC_Terminate            6406b600 f   LIBCMT:_initsect_.obj
 0001:0006a626       __XcptFilter               6406b626 f   LIBCMT:winxfltr.obj
 0001:0006a770       ___CppXcptFilter           6406b770 f   LIBCMT:winxfltr.obj
 0001:0006a790       _DllMain@12                6406b790 f   LIBCMT:dllmain.obj
 0001:0006a796       ___security_init_cookie    6406b796 f   LIBCMT:gs_support.obj
 0001:0006a831       ?terminate@@YAXXZ          6406b831 f   LIBCMT:hooks.obj
 0001:0006a86a       ?unexpected@@YAXXZ         6406b86a f   LIBCMT:hooks.obj
 0001:0006a87d       ?_inconsistency@@YAXXZ     6406b87d f   LIBCMT:hooks.obj
 0001:0006a8b5       __initp_eh_hooks           6406b8b5 f   LIBCMT:hooks.obj
 0001:0006a8d0       __CallSettingFrame@12      6406b8d0 f   LIBCMT:lowhelpr.obj
 0001:0006a8f7       __NLG_Return               6406b8f7     LIBCMT:lowhelpr.obj
 0001:0006a91c       ___sys_nerr                6406b91c f   LIBCMT:syserr.obj
 0001:0006a922       ___sys_errlist             6406b922 f   LIBCMT:syserr.obj
 0001:0006a928       _strncpy_s                 6406b928 f   LIBCMT:strncpy_s.obj
 0001:0006a9dd       ?_ValidateExecute@@YAHP6GHXZ@Z 6406b9dd f   LIBCMT:validate.obj
 0001:0006a9dd       ?_ValidateWrite@@YAHPAXI@Z 6406b9dd f   LIBCMT:validate.obj
 0001:0006a9dd       ?_ValidateRead@@YAHPBXI@Z  6406b9dd f   LIBCMT:validate.obj
 0001:0006b1ee       ___free_lc_time            6406c1ee f   LIBCMT:inittime.obj
 0001:0006b565       ___init_time               6406c565 f   LIBCMT:inittime.obj
 0001:0006b5e2       ___free_lconv_num          6406c5e2 f   LIBCMT:initnum.obj
 0001:0006b64b       ___init_numeric            6406c64b f   LIBCMT:initnum.obj
 0001:0006b83b       ___free_lconv_mon          6406c83b f   LIBCMT:initmon.obj
 0001:0006b939       ___init_monetary           6406c939 f   LIBCMT:initmon.obj
 0001:0006bc99       ___init_collate            6406cc99 f   LIBCMT:initcoll.obj
 0001:0006bc99       ___init_dummy              6406cc99 f   LIBCMT:setlocal.obj
 0001:0006bc9c       __mtinitlocks              6406cc9c f   LIBCMT:mlock.obj
 0001:0006bce6       __mtdeletelocks            6406cce6 f   LIBCMT:mlock.obj
 0001:0006bd3d       __unlock                   6406cd3d f   LIBCMT:mlock.obj
 0001:0006bd54       __mtinitlocknum            6406cd54 f   LIBCMT:mlock.obj
 0001:0006be16       __lock                     6406ce16 f   LIBCMT:mlock.obj
 0001:0006be49       _strcat_s                  6406ce49 f   LIBCMT:strcat_s.obj
 0001:0006bec0       _memset                    6406cec0 f   LIBCMT:memset.obj
 0001:0006c4c7       ___get_qualified_locale    6406d4c7 f   LIBCMT:getqloc.obj
 0001:0006c6b8       _memcmp                    6406d6b8 f   LIBCMT:memcmp.obj
 0001:0006dcf3       ___crtGetStringTypeA       6406ecf3 f   LIBCMT:a_str.obj
 0001:0006dd33       _strncmp                   6406ed33 f   LIBCMT:strncmp.obj
 0001:0006de00       _strpbrk                   6406ee00 f   LIBCMT:strpbrk.obj
 0001:0006de40       __calloc_impl              6406ee40 f   LIBCMT:calloc_impl.obj
 0001:0006dec2       _realloc                   6406eec2 f   LIBCMT:realloc.obj
 0001:0006df70       __alloca_probe_16          6406ef70 f   LIBCMT:alloca16.obj
 0001:0006df86       __alloca_probe_8           6406ef86     LIBCMT:alloca16.obj
 0001:0006df9c       _wcsnlen                   6406ef9c f   LIBCMT:wcslen_s.obj
 0001:0006dfbc       __initp_misc_winsig        6406efbc f   LIBCMT:winsig.obj
 0001:0006e011       ___get_sigabrt             6406f011 f   LIBCMT:winsig.obj
 0001:0006e01e       _raise                     6406f01e f   LIBCMT:winsig.obj
 0001:0006e1c1       __crt_debugger_hook        6406f1c1 f   LIBCMT:dbghook.obj
 0001:0006e1c9       ?Destructor@_HeapManager@@QAEXXZ 6406f1c9 f i LIBCMT:undname.obj
 0001:0006e1f1       ?getNumberOfDimensions@UnDecorator@@CAHXZ 6406f1f1 f   LIBCMT:undname.obj
 0001:0006e253       ?getTypeEncoding@UnDecorator@@CAHXZ 6406f253 f i LIBCMT:undname.obj
 0001:0006e737       ?UScore@UnDecorator@@SAPBDW4Tokens@@@Z 6406f737 f   LIBCMT:undname.obj
 0001:0006e756       ?getMemory@_HeapManager@@QAEPAXIH@Z 6406f756 f   LIBCMT:undname.obj
 0001:0006e7de       ??_5DName@@QAEAAV0@ABV0@@Z 6406f7de f   LIBCMT:undname.obj
 0001:0006e7fd       ?length@charNode@@UBEHXZ   6406f7fd f i LIBCMT:undname.obj
 0001:0006e801       ?getLastChar@charNode@@UBEDXZ 6406f801 f i LIBCMT:undname.obj
 0001:0006e805       ?getString@charNode@@UBEPADPAD0@Z 6406f805 f i LIBCMT:undname.obj
 0001:0006e81c       ??0pDNameNode@@QAE@PAVDName@@@Z 6406f81c f   LIBCMT:undname.obj
 0001:0006e846       ?length@pDNameNode@@UBEHXZ 6406f846 f i LIBCMT:undname.obj
 0001:0006e85c       ?getLastChar@pDNameNode@@UBEDXZ 6406f85c f i LIBCMT:undname.obj
 0001:0006e873       ?getString@pDNameNode@@UBEPADPAD0@Z 6406f873 f i LIBCMT:undname.obj
 0001:0006e894       ?getLastChar@DNameStatusNode@@UBEDXZ 6406f894 f i LIBCMT:undname.obj
 0001:0006e8a0       ?make@DNameStatusNode@@SAPAV1@W4DNameStatus@@@Z 6406f8a0 f i LIBCMT:undname.obj
 0001:0006e926       ?length@pairNode@@UBEHXZ   6406f926 f i LIBCMT:undname.obj
 0001:0006e951       ?getLastChar@pairNode@@UBEDXZ 6406f951 f i LIBCMT:undname.obj
 0001:0006e96d       ?getString@pairNode@@UBEPADPAD0@Z 6406f96d f i LIBCMT:undname.obj
 0001:0006e999       ??0UnDecorator@@QAE@PADPBDHP6APADJ@ZK@Z 6406f999 f i LIBCMT:undname.obj
 0001:0006ea08       ?getDataIndirectType@UnDecorator@@CA?AVDName@@XZ 6406fa08 f i LIBCMT:undname.obj
 0001:0006ea41       ?getThisType@UnDecorator@@CA?AVDName@@XZ 6406fa41 f i LIBCMT:undname.obj
 0001:0006ea7b       ?getStringHelper@@YAPADPAD00H@Z 6406fa7b f i LIBCMT:undname.obj
 0001:0006eab2       ??0DName@@QAE@PAV0@@Z      6406fab2 f   LIBCMT:undname.obj
 0001:0006eb05       ??0DName@@QAE@W4DNameStatus@@@Z 6406fb05 f   LIBCMT:undname.obj
 0001:0006eb4a       ?getString@DName@@QBEPADPADH@Z 6406fb4a f i LIBCMT:undname.obj
 0001:0006eba9       ?append@DName@@AAEXPAVDNameNode@@@Z 6406fba9 f   LIBCMT:undname.obj
 0001:0006ebf1       ??4DName@@QAEAAV0@W4DNameStatus@@@Z 6406fbf1 f   LIBCMT:undname.obj
 0001:0006ec28       ??YReplicator@@QAEAAV0@ABVDName@@@Z 6406fc28 f   LIBCMT:undname.obj
 0001:0006ec72       ??AReplicator@@QBE?AVDName@@H@Z 6406fc72 f   LIBCMT:undname.obj
 0001:0006ecc1       ??0pcharNode@@QAE@PBDH@Z   6406fcc1 f   LIBCMT:undname.obj
 0001:0006ed18       ?getLastChar@pcharNode@@UBEDXZ 6406fd18 f i LIBCMT:undname.obj
 0001:0006ed2a       ?getString@pcharNode@@UBEPADPAD0@Z 6406fd2a f i LIBCMT:undname.obj
 0001:0006ed47       ?getString@DNameStatusNode@@UBEPADPAD0@Z 6406fd47 f i LIBCMT:undname.obj
 0001:0006ed70       ?getReturnType@UnDecorator@@CA?AVDName@@PAV2@@Z 6406fd70 f   LIBCMT:undname.obj
 0001:0006eda1       ??YDName@@QAEAAV0@W4DNameStatus@@@Z 6406fda1 f   LIBCMT:undname.obj
 0001:0006ede3       ?doPchar@DName@@AAEXPBDH@Z 6406fde3 f   LIBCMT:undname.obj
 0001:0006ee66       ??0DName@@QAE@D@Z          6406fe66 f   LIBCMT:undname.obj
 0001:0006ee66       ??4DName@@QAEAAV0@D@Z      6406fe66 f   LIBCMT:undname.obj
 0001:0006ee93       ??0DName@@QAE@PBD@Z        6406fe93 f   LIBCMT:undname.obj
 0001:0006eed0       ??0DName@@QAE@AAPBDD@Z     6406fed0 f   LIBCMT:undname.obj
 0001:0006ef8f       ??0DName@@QAE@_K@Z         6406ff8f f   LIBCMT:undname.obj
 0001:0006effd       ??0DName@@QAE@_J@Z         6406fffd f   LIBCMT:undname.obj
 0001:0006f098       ??HDName@@QBE?AV0@W4DNameStatus@@@Z 64070098 f   LIBCMT:undname.obj
 0001:0006f0bc       ??YDName@@QAEAAV0@ABV0@@Z  640700bc f   LIBCMT:undname.obj
 0001:0006f0ff       ??4DName@@QAEAAV0@PBD@Z    640700ff f   LIBCMT:undname.obj
 0001:0006f134       ?getCallingConvention@UnDecorator@@CA?AVDName@@XZ 64070134 f   LIBCMT:undname.obj
 0001:0006f1fc       ?getVCallThunkType@UnDecorator@@CA?AVDName@@XZ 640701fc f i LIBCMT:undname.obj
 0001:0006f247       ??HDName@@QBE?AV0@ABV0@@Z  64070247 f   LIBCMT:undname.obj
 0001:0006f26b       ??YDName@@QAEAAV0@D@Z      6407026b f   LIBCMT:undname.obj
 0001:0006f2bd       ??YDName@@QAEAAV0@PBD@Z    640702bd f   LIBCMT:undname.obj
 0001:0006f321       ?getArgumentList@UnDecorator@@CA?AVDName@@XZ 64070321 f   LIBCMT:undname.obj
 0001:0006f427       ?getVdispMapType@UnDecorator@@CA?AVDName@@ABV2@@Z 64070427 f i LIBCMT:undname.obj
 0001:0006f47b       ??H@YA?AVDName@@DABV0@@Z   6407047b f i LIBCMT:undname.obj
 0001:0006f49f       ??H@YA?AVDName@@W4DNameStatus@@ABV0@@Z 6407049f f i LIBCMT:undname.obj
 0001:0006f4c3       ??H@YA?AVDName@@PBDABV0@@Z 640704c3 f i LIBCMT:undname.obj
 0001:0006f4e7       ??HDName@@QBE?AV0@D@Z      640704e7 f   LIBCMT:undname.obj
 0001:0006f50b       ??HDName@@QBE?AV0@PBD@Z    6407050b f   LIBCMT:undname.obj
 0001:0006f52f       ?getDimension@UnDecorator@@CA?AVDName@@_N@Z 6407052f f   LIBCMT:undname.obj
 0001:0006f675       ?getEnumType@UnDecorator@@CA?AVDName@@XZ 64070675 f i LIBCMT:undname.obj
 0001:0006f761       ?getArgumentTypes@UnDecorator@@CA?AVDName@@XZ 64070761 f   LIBCMT:undname.obj
 0001:0006f841       ?getThrowTypes@UnDecorator@@CA?AVDName@@XZ 64070841 f   LIBCMT:undname.obj
 0001:0006f8cb       ?getExtendedDataIndirectType@UnDecorator@@CA?AVDName@@AAPBDAA_NH@Z 640708cb f   LIBCMT:undname.obj
 0001:0006fa93       ?getArrayType@UnDecorator@@CA?AVDName@@ABV2@@Z 64070a93 f i LIBCMT:undname.obj
 0001:0006fc89       ?getLexicalFrame@UnDecorator@@CA?AVDName@@XZ 64070c89 f i LIBCMT:undname.obj
 0001:0006fcc6       ?getVfTableType@UnDecorator@@CA?AVDName@@ABV2@@Z 64070cc6 f i LIBCMT:undname.obj
 0001:0006fe25       ?getStringEncoding@UnDecorator@@CA?AVDName@@PADH@Z 64070e25 f   LIBCMT:undname.obj
 0001:0006fed8       ?getSignedDimension@UnDecorator@@CA?AVDName@@XZ 64070ed8 f   LIBCMT:undname.obj
 0001:0006ff2a       ?getTemplateConstant@UnDecorator@@CA?AVDName@@XZ 64070f2a f   LIBCMT:undname.obj
 0001:0007021a       ?getPtrRefDataType@UnDecorator@@CA?AVDName@@ABV2@H@Z 6407121a f i LIBCMT:undname.obj
 0001:00070301       ?getTemplateArgumentList@UnDecorator@@CA?AVDName@@XZ 64071301 f   LIBCMT:undname.obj
 0001:00070510       ?getOperatorName@UnDecorator@@CA?AVDName@@_NPA_N@Z 64071510 f i LIBCMT:undname.obj
 0001:00070ae6       ?getTemplateName@UnDecorator@@CA?AVDName@@_N@Z 64071ae6 f   LIBCMT:undname.obj
 0001:00070c3d       ?getZName@UnDecorator@@CA?AVDName@@_N0@Z 64071c3d f   LIBCMT:undname.obj
 0001:00070e53       ?getScopedName@UnDecorator@@CA?AVDName@@XZ 64071e53 f   LIBCMT:undname.obj
 0001:00070f34       ?getECSUDataType@UnDecorator@@CA?AVDName@@XZ 64071f34 f   LIBCMT:undname.obj
 0001:00071044       ?getSymbolName@UnDecorator@@CA?AVDName@@XZ 64072044 f i LIBCMT:undname.obj
 0001:0007108e       ?getBasedType@UnDecorator@@CA?AVDName@@XZ 6407208e f   LIBCMT:undname.obj
 0001:0007112a       ?composeDeclaration@UnDecorator@@CA?AVDName@@ABV2@@Z 6407212a f i LIBCMT:undname.obj
 0001:00071de7       ?getDecoratedName@UnDecorator@@CA?AVDName@@XZ 64072de7 f   LIBCMT:undname.obj
 0001:00072055       ?getScope@UnDecorator@@CA?AVDName@@XZ 64073055 f   LIBCMT:undname.obj
 0001:0007230c       ?getFunctionIndirectType@UnDecorator@@CA?AVDName@@ABV2@@Z 6407330c f   LIBCMT:undname.obj
 0001:000726eb       ?getDataIndirectType@UnDecorator@@CA?AVDName@@ABV2@PBD0H@Z 640736eb f   LIBCMT:undname.obj
 0001:00072c8a       ??BUnDecorator@@QAEPADXZ   64073c8a f i LIBCMT:undname.obj
 0001:00072dc9       ?getPtrRefType@UnDecorator@@CA?AVDName@@ABV2@0PBD@Z 64073dc9 f   LIBCMT:undname.obj
 0001:00072ec2       ___unDName                 64073ec2 f   LIBCMT:undname.obj
 0001:00072f5c       ?getBasicDataType@UnDecorator@@CA?AVDName@@ABV2@@Z 64073f5c f   LIBCMT:undname.obj
 0001:0007331f       ?getPrimaryDataType@UnDecorator@@CA?AVDName@@ABV2@@Z 6407431f f   LIBCMT:undname.obj
 0001:000734d0       ?getDataType@UnDecorator@@CA?AVDName@@PAV2@@Z 640744d0 f   LIBCMT:undname.obj
 0001:0007359f       ?getExternalDataType@UnDecorator@@CA?AVDName@@ABV2@@Z 6407459f f i LIBCMT:undname.obj
 0001:00073620       __local_unwind4            64074620 f   LIBCMT:exsup4.obj
 0001:000736f6       __seh_longjmp_unwind4@4    640746f6 f   LIBCMT:exsup4.obj
 0001:00073712       @_EH4_CallFilterFunc@8     64074712 f   LIBCMT:exsup4.obj
 0001:00073729       @_EH4_TransferToHandler@8  64074729 f   LIBCMT:exsup4.obj
 0001:00073742       @_EH4_GlobalUnwind2@8      64074742 f   LIBCMT:exsup4.obj
 0001:0007375b       @_EH4_LocalUnwind@16       6407475b f   LIBCMT:exsup4.obj
 0001:00073772       __initp_misc_rand_s        64074772 f   LIBCMT:rand_s.obj
 0001:00073781       __initp_misc_cfltcvt_tab   64074781 f   LIBCMT:cmiscdat.obj
 0001:000737b0       __ValidateImageBase        640747b0 f   LIBCMT:pesect.obj
 0001:000737f0       __FindPESection            640747f0 f   LIBCMT:pesect.obj
 0001:00073840       __IsNonwritableInCurrentImage 64074840 f   LIBCMT:pesect.obj
 0001:000738fc       ___crtMessageBoxW          640748fc f   LIBCMT:crtmboxw.obj
 0001:00073a68       _wcscat_s                  64074a68 f   LIBCMT:wcscat_s.obj
 0001:00073add       _wcsncpy_s                 64074add f   LIBCMT:wcsncpy_s.obj
 0001:00073baa       _wcslen                    64074baa f   LIBCMT:wcslen.obj
 0001:00073bc5       _wcscpy_s                  64074bc5 f   LIBCMT:wcscpy_s.obj
 0001:00073c28       __set_error_mode           64074c28 f   LIBCMT:errmode.obj
 0001:00073d41       ___crtGetLocaleInfoA       64074d41 f   LIBCMT:a_loc.obj
 0001:00073d7b       _iswctype                  64074d7b f   LIBCMT:iswctype.obj
 0001:00073dd0       __lseeki64_nolock          64074dd0 f   LIBCMT:lseeki64.obj
 0001:00073e55       __lseeki64                 64074e55 f   LIBCMT:lseeki64.obj
 0001:00073f3f       __write_nolock             64074f3f f   LIBCMT:write.obj
 0001:0007463c       __write                    6407563c f   LIBCMT:write.obj
 0001:00074710       __getbuf                   64075710 f   LIBCMT:_getbuf.obj
 0001:00074759       __isatty                   64075759 f   LIBCMT:isatty.obj
 0001:000747af       ___iob_func                640757af f   LIBCMT:_file.obj
 0001:000747b5       ___initstdio               640757b5 f   LIBCMT:_file.obj
 0001:00074866       ___endstdio                64075866 f   LIBCMT:_file.obj
 0001:00074886       __lock_file                64075886 f   LIBCMT:_file.obj
 0001:000748c7       __lock_file2               640758c7 f   LIBCMT:_file.obj
 0001:000748f9       __unlock_file              640758f9 f   LIBCMT:_file.obj
 0001:00074935       __unlock_file2             64075935 f   LIBCMT:_file.obj
 0001:00074964       __fileno                   64075964 f   LIBCMT:fileno.obj
 0001:0007498a       __get_printf_count_output  6407598a f   LIBCMT:printf.obj
 0001:000749a0       __wctomb_s_l               640759a0 f   LIBCMT:wctomb.obj
 0001:00074af5       _wctomb_s                  64075af5 f   LIBCMT:wctomb.obj
 0001:00074bb9       __output_s_l               64075bb9 f   LIBCMT:outputs.obj
 0001:00075790       __allmul                   64076790 f   LIBCMT:llmul.obj
 0001:000757c4       __wchartodigit             640767c4 f   LIBCMT:wchtodig.obj
 0001:000759b7       __ismbblead                640769b7 f   LIBCMT:ismbbyte.obj
 0001:000759d0       __global_unwind2           640769d0 f   LIBCMT:exsup.obj
 0001:00075a35       __local_unwind2            64076a35 f   LIBCMT:exsup.obj
 0001:00075ab9       __abnormal_termination     64076ab9 f   LIBCMT:exsup.obj
 0001:00075adc       __NLG_Notify1              64076adc f   LIBCMT:exsup.obj
 0001:00075ae5       __NLG_Notify               64076ae5 f   LIBCMT:exsup.obj
 0001:00075afc       __NLG_Dispatch2            64076afc     LIBCMT:exsup.obj
 0001:00075afc       __NLG_Dispatch             64076afc     LIBCMT:exsup.obj
 0001:00075b04       __NLG_Call                 64076b04 f   LIBCMT:exsup.obj
 0001:00075b06       __NLG_Return2              64076b06     LIBCMT:exsup.obj
 0001:00075b07       __VEC_memzero              64076b07 f   LIBCMT:p4_memset.obj
 0001:00075bc1       ___ascii_stricmp           64076bc1 f   LIBCMT:stricmp.obj
 0001:00075bfa       __stricmp_l                64076bfa f   LIBCMT:stricmp.obj
 0001:00075cba       __stricmp                  64076cba f   LIBCMT:stricmp.obj
 0001:00075d01       __strnicmp_l               64076d01 f   LIBCMT:strnicmp.obj
 0001:00075de3       __strnicmp                 64076de3 f   LIBCMT:strnicmp.obj
 0001:00075e40       __chkstk                   64076e40 f   LIBCMT:chkstk.obj
 0001:00075e40       __alloca_probe             64076e40     LIBCMT:chkstk.obj
 0001:00075e6b       __fptrap                   64076e6b f   LIBCMT:crt0fp.obj
 0001:00075e74       __free_osfhnd              64076e74 f   LIBCMT:osfinfo.obj
 0001:00075efa       __get_osfhandle            64076efa f   LIBCMT:osfinfo.obj
 0001:00075f63       ___lock_fhandle            64076f63 f   LIBCMT:osfinfo.obj
 0001:00076002       __unlock_fhandle           64077002 f   LIBCMT:osfinfo.obj
 0001:00076029       __putwch_nolock            64077029 f   LIBCMT:putwch.obj
 0001:0007606b       __mbtowc_l                 6407706b f   LIBCMT:mbtowc.obj
 0001:00076181       _mbtowc                    64077181 f   LIBCMT:mbtowc.obj
 0001:0007619b       __fcloseall                6407719b f   LIBCMT:closeall.obj
 0001:00076237       __flush                    64077237 f   LIBCMT:fflush.obj
 0001:0007629f       __fflush_nolock            6407729f f   LIBCMT:fflush.obj
 0001:000763c1       __flushall                 640773c1 f   LIBCMT:fflush.obj
 0001:000763d0       ___ascii_strnicmp          640773d0 f   LIBCMT:_strnicm.obj
 0001:00076431       ___initconout              64077431 f   LIBCMT:initcon.obj
 0001:00076450       ___termconout              64077450 f   LIBCMT:initcon.obj
 0001:00076467       __fclose_nolock            64077467 f   LIBCMT:fclose.obj
 0001:000764d4       _fclose                    640774d4 f   LIBCMT:fclose.obj
 0001:00076548       __commit                   64077548 f   LIBCMT:commit.obj
 0001:00076621       __close_nolock             64077621 f   LIBCMT:close.obj
 0001:000766bd       __close                    640776bd f   LIBCMT:close.obj
 0001:00076781       __freebuf                  64077781 f   LIBCMT:_freebuf.obj
 0001:000767b2       _RtlUnwind@16              640777b2 f   kernel32:KERNEL32.dll
 0001:000767b8       __cfltcvt_init             640777b8 f   LIBCMT:_fpinit_.obj
 0001:00076818       __fpmath                   64077818 f   LIBCMT:_fpinit_.obj
 0001:00076840       __ftol2_sse                64077840 f   LIBCMT:ftol2.obj
 0001:00076849       __ftol2_pentium4           64077849 f   LIBCMT:ftol2.obj
 0001:0007685c       __ftol2_sse_excpt          6407785c f   LIBCMT:ftol2.obj
 0001:00076876       __ftol2                    64077876 f   LIBCMT:ftol2.obj
 0001:000768f0       __aulldiv                  640778f0 f   LIBCMT:ulldiv.obj
 0001:00076960       __aullrem                  64077960 f   LIBCMT:ullrem.obj
 0001:000769e0       __aullshr                  640779e0 f   LIBCMT:ullshr.obj
 0001:000769ff       __forcdecpt_l              640779ff f   LIBCMT:cvt.obj
 0001:00076a73       __cropzeros_l              64077a73 f   LIBCMT:cvt.obj
 0001:00076af5       __positive                 64077af5 f   LIBCMT:cvt.obj
 0001:00076b11       __fassign_l                64077b11 f   LIBCMT:cvt.obj
 0001:00076b53       __fassign                  64077b53 f   LIBCMT:cvt.obj
 0001:00076b8c       __forcdecpt                64077b8c f   LIBCMT:cvt.obj
 0001:00076b9f       __cropzeros                64077b9f f   LIBCMT:cvt.obj
 0001:00076d13       __cftoe_l                  64077d13 f   LIBCMT:cvt.obj
 0001:00076dda       __cftoe                    64077dda f   LIBCMT:cvt.obj
 0001:00076dfa       __cftoa_l                  64077dfa f   LIBCMT:cvt.obj
 0001:00077273       __cftof_l                  64078273 f   LIBCMT:cvt.obj
 0001:00077334       __cftog_l                  64078334 f   LIBCMT:cvt.obj
 0001:00077421       __cfltcvt_l                64078421 f   LIBCMT:cvt.obj
 0001:000774a9       __cfltcvt                  640784a9 f   LIBCMT:cvt.obj
 0001:000774cc       __setdefaultprecision      640784cc f   LIBCMT:fp8.obj
 0001:00077500       _strrchr                   64078500 f   LIBCMT:strrchr.obj
 0001:0007752d       __atodbl_l                 6407852d f   LIBCMT:atodbl.obj
 0001:000775d5       __atoflt_l                 640785d5 f   LIBCMT:atodbl.obj
 0001:0007767d       __fptostr                  6407867d f   LIBCMT:_fptostr.obj
 0001:00077730       ___dtold                   64078730 f   LIBCMT:_cfout_.obj
 0001:000777e3       __fltout2                  640787e3 f   LIBCMT:_cfout_.obj
 0001:00077880       __alldvrm                  64078880 f   LIBCMT:lldvrm.obj
 0001:0007795f       __controlfp_s              6407895f f   LIBCMT:_contrlfp_.obj
 0001:000779be       __ld12tod                  640789be f   LIBCMT:_intrncvt_.obj
 0001:00077f0f       __ld12tof                  64078f0f f   LIBCMT:_intrncvt_.obj
 0001:00078460       ___strgtold12_l            64079460 f   LIBCMT:_strgtold_.obj
 0001:00078b3c       _$I10_OUTPUT               64079b3c f   LIBCMT:_x10fout_.obj
 0001:00079562       __control87                6407a562 f i LIBCMT:_ieee87_.obj
 0001:00079874       ___mtold12                 6407a874 f   LIBCMT:_mantold_.obj
 0001:00079a58       ___set_fpsr_sse2           6407aa58 f   LIBCMT:_fpctrl_.obj
 0002:00000000       __imp__RegQueryValueExW@24 64085000     advapi32:ADVAPI32.dll
 0002:00000004       __imp__RegCloseKey@4       64085004     advapi32:ADVAPI32.dll
 0002:00000008       __imp__RegOpenKeyExW@20    64085008     advapi32:ADVAPI32.dll
 0002:0000000c       \177ADVAPI32_NULL_THUNK_DATA 6408500c     advapi32:ADVAPI32.dll
 0002:00000010       __imp__GetFileSizeEx@8     64085010     kernel32:KERNEL32.dll
 0002:00000014       __imp__FlushFileBuffers@4  64085014     kernel32:KERNEL32.dll
 0002:00000018       __imp__WriteConsoleW@20    64085018     kernel32:KERNEL32.dll
 0002:0000001c       __imp__SetStdHandle@8      6408501c     kernel32:KERNEL32.dll
 0002:00000020       __imp__GetConsoleMode@8    64085020     kernel32:KERNEL32.dll
 0002:00000024       __imp__GetConsoleCP@0      64085024     kernel32:KERNEL32.dll
 0002:00000028       __imp__SetFilePointer@16   64085028     kernel32:KERNEL32.dll
 0002:0000002c       __imp__HeapReAlloc@16      6408502c     kernel32:KERNEL32.dll
 0002:00000030       __imp__IsValidLocale@8     64085030     kernel32:KERNEL32.dll
 0002:00000034       __imp__EnumSystemLocalesA@8 64085034     kernel32:KERNEL32.dll
 0002:00000038       __imp__GetLocaleInfoA@16   64085038     kernel32:KERNEL32.dll
 0002:0000003c       __imp__GetUserDefaultLCID@0 6408503c     kernel32:KERNEL32.dll
 0002:00000040       __imp__GetSystemTimeAsFileTime@4 64085040     kernel32:KERNEL32.dll
 0002:00000044       __imp__GetCurrentProcessId@0 64085044     kernel32:KERNEL32.dll
 0002:00000048       __imp__FreeLibrary@4       64085048     kernel32:KERNEL32.dll
 0002:0000004c       __imp__LoadLibraryW@4      6408504c     kernel32:KERNEL32.dll
 0002:00000050       __imp__GetProcAddress@8    64085050     kernel32:KERNEL32.dll
 0002:00000054       __imp__lstrcmpiW@8         64085054     kernel32:KERNEL32.dll
 0002:00000058       __imp__QueryPerformanceCounter@4 64085058     kernel32:KERNEL32.dll
 0002:0000005c       __imp__QueryPerformanceFrequency@4 6408505c     kernel32:KERNEL32.dll
 0002:00000060       __imp__GetPriorityClass@4  64085060     kernel32:KERNEL32.dll
 0002:00000064       __imp__GetCurrentProcess@0 64085064     kernel32:KERNEL32.dll
 0002:00000068       __imp__SetConsoleTitleW@4  64085068     kernel32:KERNEL32.dll
 0002:0000006c       __imp__GetStdHandle@4      6408506c     kernel32:KERNEL32.dll
 0002:00000070       __imp__PeekConsoleInputW@16 64085070     kernel32:KERNEL32.dll
 0002:00000074       __imp__ReadConsoleInputW@16 64085074     kernel32:KERNEL32.dll
 0002:00000078       __imp__SetPriorityClass@8  64085078     kernel32:KERNEL32.dll
 0002:0000007c       __imp__CompareFileTime@8   6408507c     kernel32:KERNEL32.dll
 0002:00000080       __imp__SetThreadExecutionState@4 64085080     kernel32:KERNEL32.dll
 0002:00000084       __imp__GlobalMemoryStatus@4 64085084     kernel32:KERNEL32.dll
 0002:00000088       __imp__VirtualAlloc@16     64085088     kernel32:KERNEL32.dll
 0002:0000008c       __imp__GetLastError@0      6408508c     kernel32:KERNEL32.dll
 0002:00000090       __imp__VirtualFree@12      64085090     kernel32:KERNEL32.dll
 0002:00000094       __imp__GetDiskFreeSpaceW@20 64085094     kernel32:KERNEL32.dll
 0002:00000098       __imp__DeviceIoControl@32  64085098     kernel32:KERNEL32.dll
 0002:0000009c       __imp__InitializeCriticalSection@4 6408509c     kernel32:KERNEL32.dll
 0002:000000a0       __imp__DeleteCriticalSection@4 640850a0     kernel32:KERNEL32.dll
 0002:000000a4       __imp__EnterCriticalSection@4 640850a4     kernel32:KERNEL32.dll
 0002:000000a8       __imp__LeaveCriticalSection@4 640850a8     kernel32:KERNEL32.dll
 0002:000000ac       __imp__GetSystemTime@4     640850ac     kernel32:KERNEL32.dll
 0002:000000b0       __imp__SystemTimeToFileTime@8 640850b0     kernel32:KERNEL32.dll
 0002:000000b4       __imp__FileTimeToLocalFileTime@8 640850b4     kernel32:KERNEL32.dll
 0002:000000b8       __imp__FileTimeToSystemTime@8 640850b8     kernel32:KERNEL32.dll
 0002:000000bc       __imp__GetDateFormatW@24   640850bc     kernel32:KERNEL32.dll
 0002:000000c0       __imp__GetTimeFormatW@24   640850c0     kernel32:KERNEL32.dll
 0002:000000c4       __imp__FindResourceExW@16  640850c4     kernel32:KERNEL32.dll
 0002:000000c8       __imp__LoadResource@8      640850c8     kernel32:KERNEL32.dll
 0002:000000cc       __imp__LockResource@4      640850cc     kernel32:KERNEL32.dll
 0002:000000d0       __imp__EnumResourceNamesW@16 640850d0     kernel32:KERNEL32.dll
 0002:000000d4       __imp__EnumResourceLanguagesW@20 640850d4     kernel32:KERNEL32.dll
 0002:000000d8       __imp__LoadLibraryExW@12   640850d8     kernel32:KERNEL32.dll
 0002:000000dc       __imp__BeginUpdateResourceW@8 640850dc     kernel32:KERNEL32.dll
 0002:000000e0       __imp__EndUpdateResourceW@8 640850e0     kernel32:KERNEL32.dll
 0002:000000e4       __imp__UpdateResourceW@24  640850e4     kernel32:KERNEL32.dll
 0002:000000e8       __imp__FormatMessageW@28   640850e8     kernel32:KERNEL32.dll
 0002:000000ec       __imp__GetModuleHandleW@4  640850ec     kernel32:KERNEL32.dll
 0002:000000f0       __imp__LocalFree@4         640850f0     kernel32:KERNEL32.dll
 0002:000000f4       __imp__GetConsoleTitleW@8  640850f4     kernel32:KERNEL32.dll
 0002:000000f8       __imp__MultiByteToWideChar@24 640850f8     kernel32:KERNEL32.dll
 0002:000000fc       __imp__WideCharToMultiByte@32 640850fc     kernel32:KERNEL32.dll
 0002:00000100       __imp__ExpandEnvironmentStringsW@12 64085100     kernel32:KERNEL32.dll
 0002:00000104       __imp__CreateFileW@28      64085104     kernel32:KERNEL32.dll
 0002:00000108       __imp__CloseHandle@4       64085108     kernel32:KERNEL32.dll
 0002:0000010c       __imp__ReadFile@20         6408510c     kernel32:KERNEL32.dll
 0002:00000110       __imp__WriteFile@20        64085110     kernel32:KERNEL32.dll
 0002:00000114       __imp__SetFileTime@16      64085114     kernel32:KERNEL32.dll
 0002:00000118       __imp__SetFilePointerEx@20 64085118     kernel32:KERNEL32.dll
 0002:0000011c       __imp__SetEndOfFile@4      6408511c     kernel32:KERNEL32.dll
 0002:00000120       __imp__GetFileInformationByHandle@8 64085120     kernel32:KERNEL32.dll
 0002:00000124       __imp__GetFileAttributesW@4 64085124     kernel32:KERNEL32.dll
 0002:00000128       __imp__SetFileAttributesW@8 64085128     kernel32:KERNEL32.dll
 0002:0000012c       __imp__DeleteFileW@4       6408512c     kernel32:KERNEL32.dll
 0002:00000130       __imp__CreateDirectoryW@8  64085130     kernel32:KERNEL32.dll
 0002:00000134       __imp__RemoveDirectoryW@4  64085134     kernel32:KERNEL32.dll
 0002:00000138       __imp__MoveFileExW@12      64085138     kernel32:KERNEL32.dll
 0002:0000013c       __imp__FindFirstFileW@8    6408513c     kernel32:KERNEL32.dll
 0002:00000140       __imp__FindClose@4         64085140     kernel32:KERNEL32.dll
 0002:00000144       __imp__SetLastError@4      64085144     kernel32:KERNEL32.dll
 0002:00000148       __imp__FindNextFileW@8     64085148     kernel32:KERNEL32.dll
 0002:0000014c       __imp__GetTempPathW@8      6408514c     kernel32:KERNEL32.dll
 0002:00000150       __imp__GetTempFileNameW@16 64085150     kernel32:KERNEL32.dll
 0002:00000154       __imp__HeapSetInformation@16 64085154     kernel32:KERNEL32.dll
 0002:00000158       __imp__SearchPathW@24      64085158     kernel32:KERNEL32.dll
 0002:0000015c       __imp__InterlockedIncrement@4 6408515c     kernel32:KERNEL32.dll
 0002:00000160       __imp__InterlockedDecrement@4 64085160     kernel32:KERNEL32.dll
 0002:00000164       __imp__InterlockedCompareExchange@12 64085164     kernel32:KERNEL32.dll
 0002:00000168       __imp__InterlockedExchange@8 64085168     kernel32:KERNEL32.dll
 0002:0000016c       __imp__GetStringTypeW@16   6408516c     kernel32:KERNEL32.dll
 0002:00000170       __imp__Sleep@4             64085170     kernel32:KERNEL32.dll
 0002:00000174       __imp__HeapFree@12         64085174     kernel32:KERNEL32.dll
 0002:00000178       __imp__HeapCreate@12       64085178     kernel32:KERNEL32.dll
 0002:0000017c       __imp__HeapDestroy@4       6408517c     kernel32:KERNEL32.dll
 0002:00000180       __imp__GetCurrentThreadId@0 64085180     kernel32:KERNEL32.dll
 0002:00000184       __imp__GetCommandLineA@0   64085184     kernel32:KERNEL32.dll
 0002:00000188       __imp__RaiseException@16   64085188     kernel32:KERNEL32.dll
 0002:0000018c       __imp__RtlUnwind@16        6408518c     kernel32:KERNEL32.dll
 0002:00000190       __imp__HeapAlloc@12        64085190     kernel32:KERNEL32.dll
 0002:00000194       __imp__GetCPInfo@8         64085194     kernel32:KERNEL32.dll
 0002:00000198       __imp__LCMapStringW@24     64085198     kernel32:KERNEL32.dll
 0002:0000019c       __imp__TerminateProcess@8  6408519c     kernel32:KERNEL32.dll
 0002:000001a0       __imp__UnhandledExceptionFilter@4 640851a0     kernel32:KERNEL32.dll
 0002:000001a4       __imp__SetUnhandledExceptionFilter@4 640851a4     kernel32:KERNEL32.dll
 0002:000001a8       __imp__IsDebuggerPresent@0 640851a8     kernel32:KERNEL32.dll
 0002:000001ac       __imp__IsProcessorFeaturePresent@4 640851ac     kernel32:KERNEL32.dll
 0002:000001b0       __imp__HeapSize@12         640851b0     kernel32:KERNEL32.dll
 0002:000001b4       __imp__ExitProcess@4       640851b4     kernel32:KERNEL32.dll
 0002:000001b8       __imp__GetModuleFileNameW@12 640851b8     kernel32:KERNEL32.dll
 0002:000001bc       __imp__GetLocaleInfoW@16   640851bc     kernel32:KERNEL32.dll
 0002:000001c0       __imp__GetACP@0            640851c0     kernel32:KERNEL32.dll
 0002:000001c4       __imp__GetOEMCP@0          640851c4     kernel32:KERNEL32.dll
 0002:000001c8       __imp__IsValidCodePage@4   640851c8     kernel32:KERNEL32.dll
 0002:000001cc       __imp__TlsAlloc@0          640851cc     kernel32:KERNEL32.dll
 0002:000001d0       __imp__TlsGetValue@4       640851d0     kernel32:KERNEL32.dll
 0002:000001d4       __imp__TlsSetValue@8       640851d4     kernel32:KERNEL32.dll
 0002:000001d8       __imp__TlsFree@4           640851d8     kernel32:KERNEL32.dll
 0002:000001dc       __imp__SetHandleCount@4    640851dc     kernel32:KERNEL32.dll
 0002:000001e0       __imp__InitializeCriticalSectionAndSpinCount@8 640851e0     kernel32:KERNEL32.dll
 0002:000001e4       __imp__GetFileType@4       640851e4     kernel32:KERNEL32.dll
 0002:000001e8       __imp__GetStartupInfoW@4   640851e8     kernel32:KERNEL32.dll
 0002:000001ec       __imp__GetModuleFileNameA@12 640851ec     kernel32:KERNEL32.dll
 0002:000001f0       __imp__FreeEnvironmentStringsW@4 640851f0     kernel32:KERNEL32.dll
 0002:000001f4       __imp__GetEnvironmentStringsW@0 640851f4     kernel32:KERNEL32.dll
 0002:000001f8       __imp__GetTickCount@0      640851f8     kernel32:KERNEL32.dll
 0002:000001fc       \177KERNEL32_NULL_THUNK_DATA 640851fc     kernel32:KERNEL32.dll
 0002:00000200       __imp__SysAllocStringLen@8 64085200     oleaut32:OLEAUT32.dll
 0002:00000204       __imp__SysFreeString@4     64085204     oleaut32:OLEAUT32.dll
 0002:00000208       __imp__SysStringByteLen@4  64085208     oleaut32:OLEAUT32.dll
 0002:0000020c       __imp__SysStringLen@4      6408520c     oleaut32:OLEAUT32.dll
 0002:00000210       \177OLEAUT32_NULL_THUNK_DATA 64085210     oleaut32:OLEAUT32.dll
 0002:00000214       __imp__CharUpperBuffW@8    64085214     user32:USER32.dll
 0002:00000218       \177USER32_NULL_THUNK_DATA 64085218     user32:USER32.dll
 0002:0000021c       __imp__GetFileVersionInfoSizeW@8 6408521c     version:VERSION.dll
 0002:00000220       __imp__GetFileVersionInfoW@16 64085220     version:VERSION.dll
 0002:00000224       __imp__VerQueryValueW@16   64085224     version:VERSION.dll
 0002:00000228       \177VERSION_NULL_THUNK_DATA 64085228     version:VERSION.dll
 0002:0000022c       __imp__CoCreateGuid@4      6408522c     ole32:ole32.dll
 0002:00000230       __imp__PropVariantClear@4  64085230     ole32:ole32.dll
 0002:00000234       __imp__StringFromGUID2@12  64085234     ole32:ole32.dll
 0002:00000238       __imp__PropVariantCopy@8   64085238     ole32:ole32.dll
 0002:0000023c       \177ole32_NULL_THUNK_DATA  6408523c     ole32:ole32.dll
 0002:00000240       ___xc_a                    64085240     LIBCMT:crt0init.obj
 0002:000002a0       ___xc_z                    640852a0     LIBCMT:crt0init.obj
 0002:000002a4       ___xi_a                    640852a4     LIBCMT:crt0init.obj
 0002:000002bc       ___xi_z                    640852bc     LIBCMT:crt0init.obj
 0002:000002c0       ___xp_a                    640852c0     LIBCMT:crt0init.obj
 0002:000002cc       ___xp_z                    640852cc     LIBCMT:crt0init.obj
 0002:000002d0       ___xt_a                    640852d0     LIBCMT:crt0init.obj
 0002:000002d4       ___xt_z                    640852d4     LIBCMT:crt0init.obj
 0002:000002e0       __imp__EncodePointer@4     640852e0     vc10.obj
 0002:000002e4       __imp__DecodePointer@4     640852e4     vc10.obj
 0002:000002e8       _IID_IUnknown              640852e8     uuid:unknwn_i.obj
 0002:000002fc       ??_7logic_error@std@@6B@   640852fc     libcpmt:xthrow.obj
 0002:00000308       ??_7length_error@std@@6B@  64085308     libcpmt:xthrow.obj
 0002:00000314       ??_7out_of_range@std@@6B@  64085314     libcpmt:xthrow.obj
 0002:00000320       ??_7runtime_error@std@@6B@ 64085320     libcpmt:xthrow.obj
 0002:00000328       ?_BADOFF@std@@3_JB         64085328     libcpmt:ios.obj
 0002:00000334       ??_7error_category@std@@6B@ 64085334     libcpmt:syserror.obj
 0002:0000034c       ??_C@_07DCLBNMLN@generic?$AA@ 6408534c     libcpmt:syserror.obj
 0002:00000358       ??_7_Generic_error_category@std@@6B@ 64085358     libcpmt:syserror.obj
 0002:00000374       ??_7bad_alloc@std@@6B@     64085374     libcpmt:syserror.obj
 0002:0000037c       ??_C@_08LLGCOLLL@iostream?$AA@ 6408537c     libcpmt:syserror.obj
 0002:0000038c       ??_7_Iostream_error_category@std@@6B@ 6408538c     libcpmt:syserror.obj
 0002:000003a4       ??_C@_06FHFOAHML@system?$AA@ 640853a4     libcpmt:syserror.obj
 0002:000003b0       ??_7_System_error_category@std@@6B@ 640853b0     libcpmt:syserror.obj
 0002:000003c8       ??_C@_0BG@PADBLCHM@iostream?5stream?5error?$AA@ 640853c8     libcpmt:syserror.obj
 0002:000003e4       ??_7facet@locale@std@@6B@  640853e4     libcpmt:locale0.obj
 0002:000003e8       ??_C@_01NBENCBCI@?$CK?$AA@ 640853e8     libcpmt:locale0.obj
 0002:000003f0       ??_7_Locimp@locale@std@@6B@ 640853f0     libcpmt:locale0.obj
 0002:000003f4       ??_C@_01GFHCPBMG@C?$AA@    640853f4     libcpmt:locale0.obj
 0002:000003fc       ??_7exception@std@@6B@     640853fc     LIBCMT:stdexcpt.obj
 0002:00000404       ??_C@_0BC@EOODALEL@Unknown?5exception?$AA@ 64085404     LIBCMT:stdexcpt.obj
 0002:0000041c       ??_7bad_cast@std@@6B@      6408541c     LIBCMT:stdexcpt.obj
 0002:00000428       ??_7bad_typeid@std@@6B@    64085428     LIBCMT:stdexcpt.obj
 0002:00000434       ??_7__non_rtti_object@std@@6B@ 64085434     LIBCMT:stdexcpt.obj
 0002:00000440       ??_7type_info@@6B@         64085440     LIBCMT:typinfo.obj
 0002:00000444       ??_C@_0P@GHFPNOJB@bad?5allocation?$AA@ 64085444     LIBCMT:new.obj
 0002:00000454       ??_C@_0CB@CGKGGDFI@Access?5violation?5?9?5no?5RTTI?5data?$CB@ 64085454     LIBCMT:rtti.obj
 0002:00000478       ??_C@_0CB@EEENAAHH@Bad?5read?5pointer?5?9?5no?5RTTI?5data?$CB@ 64085478     LIBCMT:rtti.obj
 0002:0000049c       ??_C@_0CE@FFJAJLDK@Attempted?5a?5typeid?5of?5NULL?5point@ 6408549c     LIBCMT:rtti.obj
 0002:000004c0       __pRawDllMain              640854c0     LIBCMT:dllcrt0.obj
 0002:000004c0       __pDefaultRawDllMain       640854c0     LIBCMT:dllcrt0.obj
 0002:000004e8       ??_C@_0EA@FCLIIPNN@Visual?5C?$CL?$CL?5CRT?3?5Not?5enough?5memor@ 640854e8     LIBCMT:strerror.obj
 0002:00000528       __pDestructExceptionObject 64085528     LIBCMT:frame.obj
 0002:00000530       ??_7bad_exception@std@@6B@ 64085530     LIBCMT:frame.obj
 0002:00000538       ??_C@_0O@DPKOEFFH@bad?5exception?$AA@ 64085538     LIBCMT:frame.obj
 0002:00000548       ??_C@_07LCBHPJJN@LC_TIME?$AA@ 64085548     LIBCMT:setlocal.obj
 0002:00000550       ??_C@_0L@DLHIECNL@LC_NUMERIC?$AA@ 64085550     LIBCMT:setlocal.obj
 0002:0000055c       ??_C@_0M@MIENIKLA@LC_MONETARY?$AA@ 6408555c     LIBCMT:setlocal.obj
 0002:00000568       ??_C@_08EADHIDAD@LC_CTYPE?$AA@ 64085568     LIBCMT:setlocal.obj
 0002:00000574       ??_C@_0L@KFJHEKIK@LC_COLLATE?$AA@ 64085574     LIBCMT:setlocal.obj
 0002:00000580       ??_C@_06NEFDFEKB@LC_ALL?$AA@ 64085580     LIBCMT:setlocal.obj
 0002:00000588       ___lc_category             64085588     LIBCMT:setlocal.obj
 0002:00000650       ??_C@_03EGDHDPFD@_?4?0?$AA@ 64085650     LIBCMT:setlocal.obj
 0002:00000654       ??_C@_01LFCBOECM@?4?$AA@   64085654     LIBCMT:setlocal.obj
 0002:00000658       ??_C@_01IDAFKMJL@_?$AA@    64085658     LIBCMT:setlocal.obj
 0002:0000065c       ??_C@_01ICJEACDI@?$DL?$AA@ 6408565c     LIBCMT:setlocal.obj
 0002:00000660       ??_C@_01NEMOKFLO@?$DN?$AA@ 64085660     LIBCMT:setlocal.obj
 0002:00000664       ??_C@_02BALPLPBG@?$DN?$DL?$AA@ 64085664     LIBCMT:setlocal.obj
 0002:00000668       ___newctype                64085668     LIBCMT:ctype.obj
 0002:00000968       __wctype                   64085968     LIBCMT:ctype.obj
 0002:00000b70       ___newclmap                64085b70     LIBCMT:ctype.obj
 0002:00000cf0       ___newcumap                64085cf0     LIBCMT:ctype.obj
 0002:00000e78       ??_C@_0P@MIGLKIOC@CorExitProcess?$AA@ 64085e78     LIBCMT:crt0dat.obj
 0002:00000e88       ??_C@_1BI@BGOHAHKC@?$AAm?$AAs?$AAc?$AAo?$AAr?$AAe?$AAe?$AA?4?$AAd?$AAl?$AAl?$AA?$AA@ 64085e88     LIBCMT:crt0dat.obj
 0002:00000ea0       ??_C@_1BO@BKOMIGKJ@?$AAr?$AAu?$AAn?$AAt?$AAi?$AAm?$AAe?$AA?5?$AAe?$AAr?$AAr?$AAo?$AAr?$AA?5?$AA?$AA@ 64085ea0     LIBCMT:crt0msg.obj
 0002:00000ec0       ??_C@_15JNBOKNOG@?$AA?$AN?$AA?6?$AA?$AA@ 64085ec0     LIBCMT:crt0msg.obj
 0002:00000ec8       ??_C@_1BM@JBBEPPHI@?$AAT?$AAL?$AAO?$AAS?$AAS?$AA?5?$AAe?$AAr?$AAr?$AAo?$AAr?$AA?$AN?$AA?6?$AA?$AA@ 64085ec8     LIBCMT:crt0msg.obj
 0002:00000ee4       ??_C@_1BK@KMOMNAAI@?$AAS?$AAI?$AAN?$AAG?$AA?5?$AAe?$AAr?$AAr?$AAo?$AAr?$AA?$AN?$AA?6?$AA?$AA@ 64085ee4     LIBCMT:crt0msg.obj
 0002:00000f00       ??_C@_1BO@BFCDCGC@?$AAD?$AAO?$AAM?$AAA?$AAI?$AAN?$AA?5?$AAe?$AAr?$AAr?$AAo?$AAr?$AA?$AN?$AA?6?$AA?$AA@ 64085f00     LIBCMT:crt0msg.obj
 0002:00000f20       ??_C@_1BOO@KGEDBGAJ@?$AAR?$AA6?$AA0?$AA3?$AA3?$AA?$AN?$AA?6?$AA?9?$AA?5?$AAA?$AAt?$AAt?$AAe?$AAm?$AAp?$AAt?$AA?5?$AAt?$AAo?$AA?5?$AAu?$AAs?$AAe?$AA?5?$AAM?$AAS?$AAI?$AAL?$AA?5?$AAc?$AAo?$AAd@ 64085f20     LIBCMT:crt0msg.obj
 0002:00001110       ??_C@_1GG@GOPILAJP@?$AAR?$AA6?$AA0?$AA3?$AA2?$AA?$AN?$AA?6?$AA?9?$AA?5?$AAn?$AAo?$AAt?$AA?5?$AAe?$AAn?$AAo?$AAu?$AAg?$AAh?$AA?5?$AAs?$AAp?$AAa?$AAc?$AAe?$AA?5?$AAf?$AAo?$AAr?$AA?5?$AAl?$AAo@ 64086110     LIBCMT:crt0msg.obj
 0002:00001178       ??_C@_1MG@ENCOOIDF@?$AAR?$AA6?$AA0?$AA3?$AA1?$AA?$AN?$AA?6?$AA?9?$AA?5?$AAA?$AAt?$AAt?$AAe?$AAm?$AAp?$AAt?$AA?5?$AAt?$AAo?$AA?5?$AAi?$AAn?$AAi?$AAt?$AAi?$AAa?$AAl?$AAi?$AAz?$AAe?$AA?5?$AAt@ 64086178     LIBCMT:crt0msg.obj
 0002:00001240       ??_C@_1DO@BMFCDCD@?$AAR?$AA6?$AA0?$AA3?$AA0?$AA?$AN?$AA?6?$AA?9?$AA?5?$AAC?$AAR?$AAT?$AA?5?$AAn?$AAo?$AAt?$AA?5?$AAi?$AAn?$AAi?$AAt?$AAi?$AAa?$AAl?$AAi?$AAz?$AAe?$AAd?$AA?$AN?$AA?6?$AA?$AA@ 64086240     LIBCMT:crt0msg.obj
 0002:00001280       ??_C@_1EK@HHFLMAOL@?$AAR?$AA6?$AA0?$AA2?$AA8?$AA?$AN?$AA?6?$AA?9?$AA?5?$AAu?$AAn?$AAa?$AAb?$AAl?$AAe?$AA?5?$AAt?$AAo?$AA?5?$AAi?$AAn?$AAi?$AAt?$AAi?$AAa?$AAl?$AAi?$AAz?$AAe?$AA?5?$AAh?$AAe@ 64086280     LIBCMT:crt0msg.obj
 0002:000012d0       ??_C@_1GK@MFGOKLAG@?$AAR?$AA6?$AA0?$AA2?$AA7?$AA?$AN?$AA?6?$AA?9?$AA?5?$AAn?$AAo?$AAt?$AA?5?$AAe?$AAn?$AAo?$AAu?$AAg?$AAh?$AA?5?$AAs?$AAp?$AAa?$AAc?$AAe?$AA?5?$AAf?$AAo?$AAr?$AA?5?$AAl?$AAo@ 640862d0     LIBCMT:crt0msg.obj
 0002:00001340       ??_C@_1GK@MCAAGJMO@?$AAR?$AA6?$AA0?$AA2?$AA6?$AA?$AN?$AA?6?$AA?9?$AA?5?$AAn?$AAo?$AAt?$AA?5?$AAe?$AAn?$AAo?$AAu?$AAg?$AAh?$AA?5?$AAs?$AAp?$AAa?$AAc?$AAe?$AA?5?$AAf?$AAo?$AAr?$AA?5?$AAs?$AAt@ 64086340     LIBCMT:crt0msg.obj
 0002:000013b0       ??_C@_1EM@MAADIHMB@?$AAR?$AA6?$AA0?$AA2?$AA5?$AA?$AN?$AA?6?$AA?9?$AA?5?$AAp?$AAu?$AAr?$AAe?$AA?5?$AAv?$AAi?$AAr?$AAt?$AAu?$AAa?$AAl?$AA?5?$AAf?$AAu?$AAn?$AAc?$AAt?$AAi?$AAo?$AAn?$AA?5?$AAc@ 640863b0     LIBCMT:crt0msg.obj
 0002:00001400       ??_C@_1GK@FHCKBEFA@?$AAR?$AA6?$AA0?$AA2?$AA4?$AA?$AN?$AA?6?$AA?9?$AA?5?$AAn?$AAo?$AAt?$AA?5?$AAe?$AAn?$AAo?$AAu?$AAg?$AAh?$AA?5?$AAs?$AAp?$AAa?$AAc?$AAe?$AA?5?$AAf?$AAo?$AAr?$AA?5?$AA_?$AAo@ 64086400     LIBCMT:crt0msg.obj
 0002:00001470       ??_C@_1FC@ECHBIFBC@?$AAR?$AA6?$AA0?$AA1?$AA9?$AA?$AN?$AA?6?$AA?9?$AA?5?$AAu?$AAn?$AAa?$AAb?$AAl?$AAe?$AA?5?$AAt?$AAo?$AA?5?$AAo?$AAp?$AAe?$AAn?$AA?5?$AAc?$AAo?$AAn?$AAs?$AAo?$AAl?$AAe?$AA?5@ 64086470     LIBCMT:crt0msg.obj
 0002:000014c8       ??_C@_1EC@JIBHAOPH@?$AAR?$AA6?$AA0?$AA1?$AA8?$AA?$AN?$AA?6?$AA?9?$AA?5?$AAu?$AAn?$AAe?$AAx?$AAp?$AAe?$AAc?$AAt?$AAe?$AAd?$AA?5?$AAh?$AAe?$AAa?$AAp?$AA?5?$AAe?$AAr?$AAr?$AAo?$AAr?$AA?$AN?$AA?6@ 640864c8     LIBCMT:crt0msg.obj
 0002:00001510       ??_C@_1FK@BEOGODMC@?$AAR?$AA6?$AA0?$AA1?$AA7?$AA?$AN?$AA?6?$AA?9?$AA?5?$AAu?$AAn?$AAe?$AAx?$AAp?$AAe?$AAc?$AAt?$AAe?$AAd?$AA?5?$AAm?$AAu?$AAl?$AAt?$AAi?$AAt?$AAh?$AAr?$AAe?$AAa?$AAd?$AA?5@ 64086510     LIBCMT:crt0msg.obj
 0002:00001570       ??_C@_1FI@LOGNIKDM@?$AAR?$AA6?$AA0?$AA1?$AA6?$AA?$AN?$AA?6?$AA?9?$AA?5?$AAn?$AAo?$AAt?$AA?5?$AAe?$AAn?$AAo?$AAu?$AAg?$AAh?$AA?5?$AAs?$AAp?$AAa?$AAc?$AAe?$AA?5?$AAf?$AAo?$AAr?$AA?5?$AAt?$AAh@ 64086570     LIBCMT:crt0msg.obj
 0002:000015c8       ??_C@_1EG@BEHAGFJD@?$AAR?$AA6?$AA0?$AA1?$AA0?$AA?$AN?$AA?6?$AA?9?$AA?5?$AAa?$AAb?$AAo?$AAr?$AAt?$AA?$CI?$AA?$CJ?$AA?5?$AAh?$AAa?$AAs?$AA?5?$AAb?$AAe?$AAe?$AAn?$AA?5?$AAc?$AAa?$AAl?$AAl?$AAe?$AAd@ 640865c8     LIBCMT:crt0msg.obj
 0002:00001610       ??_C@_1FI@HONFMGBI@?$AAR?$AA6?$AA0?$AA0?$AA9?$AA?$AN?$AA?6?$AA?9?$AA?5?$AAn?$AAo?$AAt?$AA?5?$AAe?$AAn?$AAo?$AAu?$AAg?$AAh?$AA?5?$AAs?$AAp?$AAa?$AAc?$AAe?$AA?5?$AAf?$AAo?$AAr?$AA?5?$AAe?$AAn@ 64086610     LIBCMT:crt0msg.obj
 0002:00001668       ??_C@_1FE@LLNEDJMD@?$AAR?$AA6?$AA0?$AA0?$AA8?$AA?$AN?$AA?6?$AA?9?$AA?5?$AAn?$AAo?$AAt?$AA?5?$AAe?$AAn?$AAo?$AAu?$AAg?$AAh?$AA?5?$AAs?$AAp?$AAa?$AAc?$AAe?$AA?5?$AAf?$AAo?$AAr?$AA?5?$AAa?$AAr@ 64086668     LIBCMT:crt0msg.obj
 0002:000016c0       ??_C@_1FK@PGACCAFB@?$AAR?$AA6?$AA0?$AA0?$AA2?$AA?$AN?$AA?6?$AA?9?$AA?5?$AAf?$AAl?$AAo?$AAa?$AAt?$AAi?$AAn?$AAg?$AA?5?$AAp?$AAo?$AAi?$AAn?$AAt?$AA?5?$AAs?$AAu?$AAp?$AAp?$AAo?$AAr?$AAt?$AA?5@ 640866c0     LIBCMT:crt0msg.obj
 0002:000017d0       ??_C@_1EK@MBDPDCGA@?$AAM?$AAi?$AAc?$AAr?$AAo?$AAs?$AAo?$AAf?$AAt?$AA?5?$AAV?$AAi?$AAs?$AAu?$AAa?$AAl?$AA?5?$AAC?$AA?$CL?$AA?$CL?$AA?5?$AAR?$AAu?$AAn?$AAt?$AAi?$AAm?$AAe?$AA?5?$AAL?$AAi?$AAb@ 640867d0     LIBCMT:crt0msg.obj
 0002:0000181c       ??_C@_15IABLJNFO@?$AA?6?$AA?6?$AA?$AA@ 6408681c     LIBCMT:crt0msg.obj
 0002:00001824       ??_C@_1CO@EAEJAADC@?$AA?$DM?$AAp?$AAr?$AAo?$AAg?$AAr?$AAa?$AAm?$AA?5?$AAn?$AAa?$AAm?$AAe?$AA?5?$AAu?$AAn?$AAk?$AAn?$AAo?$AAw?$AAn?$AA?$DO?$AA?$AA@ 64086824     LIBCMT:crt0msg.obj
 0002:00001854       ??_C@_1DE@JNGNBFGO@?$AAR?$AAu?$AAn?$AAt?$AAi?$AAm?$AAe?$AA?5?$AAE?$AAr?$AAr?$AAo?$AAr?$AA?$CB?$AA?6?$AA?6?$AAP?$AAr?$AAo?$AAg?$AAr?$AAa?$AAm?$AA?3?$AA?5?$AA?$AA@ 64086854     LIBCMT:crt0msg.obj
 0002:00001888       ??_C@_1BC@GDGBMEMK@?$AAH?$AAH?$AA?3?$AAm?$AAm?$AA?3?$AAs?$AAs?$AA?$AA@ 64086888     LIBCMT:nlsdata2.obj
 0002:0000189c       ??_C@_1CI@KNAKOEBC@?$AAd?$AAd?$AAd?$AAd?$AA?0?$AA?5?$AAM?$AAM?$AAM?$AAM?$AA?5?$AAd?$AAd?$AA?0?$AA?5?$AAy?$AAy?$AAy?$AAy?$AA?$AA@ 6408689c     LIBCMT:nlsdata2.obj
 0002:000018c4       ??_C@_1BC@IEBCMHCM@?$AAM?$AAM?$AA?1?$AAd?$AAd?$AA?1?$AAy?$AAy?$AA?$AA@ 640868c4     LIBCMT:nlsdata2.obj
 0002:000018d8       ??_C@_15CLMNNGEL@?$AAP?$AAM?$AA?$AA@ 640868d8     LIBCMT:nlsdata2.obj
 0002:000018e0       ??_C@_15ODEHAHHF@?$AAA?$AAM?$AA?$AA@ 640868e0     LIBCMT:nlsdata2.obj
 0002:000018e8       ??_C@_1BC@FEMKIFH@?$AAD?$AAe?$AAc?$AAe?$AAm?$AAb?$AAe?$AAr?$AA?$AA@ 640868e8     LIBCMT:nlsdata2.obj
 0002:000018fc       ??_C@_1BC@BGLIFPF@?$AAN?$AAo?$AAv?$AAe?$AAm?$AAb?$AAe?$AAr?$AA?$AA@ 640868fc     LIBCMT:nlsdata2.obj
 0002:00001910       ??_C@_1BA@EPANDLNG@?$AAO?$AAc?$AAt?$AAo?$AAb?$AAe?$AAr?$AA?$AA@ 64086910     LIBCMT:nlsdata2.obj
 0002:00001920       ??_C@_1BE@DKAAMBJL@?$AAS?$AAe?$AAp?$AAt?$AAe?$AAm?$AAb?$AAe?$AAr?$AA?$AA@ 64086920     LIBCMT:nlsdata2.obj
 0002:00001934       ??_C@_1O@PAHLKOAC@?$AAA?$AAu?$AAg?$AAu?$AAs?$AAt?$AA?$AA@ 64086934     LIBCMT:nlsdata2.obj
 0002:00001944       ??_C@_19BIFMLPCD@?$AAJ?$AAu?$AAl?$AAy?$AA?$AA@ 64086944     LIBCMT:nlsdata2.obj
 0002:00001950       ??_C@_19EPFLPGAP@?$AAJ?$AAu?$AAn?$AAe?$AA?$AA@ 64086950     LIBCMT:nlsdata2.obj
 0002:0000195c       ??_C@_1M@GJNLMHFD@?$AAA?$AAp?$AAr?$AAi?$AAl?$AA?$AA@ 6408695c     LIBCMT:nlsdata2.obj
 0002:00001968       ??_C@_1M@IKEENEDF@?$AAM?$AAa?$AAr?$AAc?$AAh?$AA?$AA@ 64086968     LIBCMT:nlsdata2.obj
 0002:00001974       ??_C@_1BC@JGDDFFAM@?$AAF?$AAe?$AAb?$AAr?$AAu?$AAa?$AAr?$AAy?$AA?$AA@ 64086974     LIBCMT:nlsdata2.obj
 0002:00001988       ??_C@_1BA@EFMEIEBA@?$AAJ?$AAa?$AAn?$AAu?$AAa?$AAr?$AAy?$AA?$AA@ 64086988     LIBCMT:nlsdata2.obj
 0002:00001998       ??_C@_17EGKACKIF@?$AAD?$AAe?$AAc?$AA?$AA@ 64086998     LIBCMT:nlsdata2.obj
 0002:000019a0       ??_C@_17BBDMLCIG@?$AAN?$AAo?$AAv?$AA?$AA@ 640869a0     LIBCMT:nlsdata2.obj
 0002:000019a8       ??_C@_17FNLKOI@?$AAO?$AAc?$AAt?$AA?$AA@ 640869a8     LIBCMT:nlsdata2.obj
 0002:000019b0       ??_C@_17HCHCOKMG@?$AAS?$AAe?$AAp?$AA?$AA@ 640869b0     LIBCMT:nlsdata2.obj
 0002:000019b8       ??_C@_17ICPELBCN@?$AAA?$AAu?$AAg?$AA?$AA@ 640869b8     LIBCMT:nlsdata2.obj
 0002:000019c0       ??_C@_17IJPCKHK@?$AAJ?$AAu?$AAl?$AA?$AA@ 640869c0     LIBCMT:nlsdata2.obj
 0002:000019c8       ??_C@_17KCJGOCPB@?$AAJ?$AAu?$AAn?$AA?$AA@ 640869c8     LIBCMT:nlsdata2.obj
 0002:000019d0       ??_C@_17PNNKMEED@?$AAM?$AAa?$AAy?$AA?$AA@ 640869d0     LIBCMT:nlsdata2.obj
 0002:000019d8       ??_C@_17LFPOIHDD@?$AAA?$AAp?$AAr?$AA?$AA@ 640869d8     LIBCMT:nlsdata2.obj
 0002:000019e0       ??_C@_17CKNLEDEC@?$AAM?$AAa?$AAr?$AA?$AA@ 640869e0     LIBCMT:nlsdata2.obj
 0002:000019e8       ??_C@_17LMDJEKJN@?$AAF?$AAe?$AAb?$AA?$AA@ 640869e8     LIBCMT:nlsdata2.obj
 0002:000019f0       ??_C@_17DKNBKCHM@?$AAJ?$AAa?$AAn?$AA?$AA@ 640869f0     LIBCMT:nlsdata2.obj
 0002:000019f8       ??_C@_1BC@ENMNNPAJ@?$AAS?$AAa?$AAt?$AAu?$AAr?$AAd?$AAa?$AAy?$AA?$AA@ 640869f8     LIBCMT:nlsdata2.obj
 0002:00001a0c       ??_C@_1O@PDICJHAG@?$AAF?$AAr?$AAi?$AAd?$AAa?$AAy?$AA?$AA@ 64086a0c     LIBCMT:nlsdata2.obj
 0002:00001a1c       ??_C@_1BC@HHMNLIHE@?$AAT?$AAh?$AAu?$AAr?$AAs?$AAd?$AAa?$AAy?$AA?$AA@ 64086a1c     LIBCMT:nlsdata2.obj
 0002:00001a30       ??_C@_1BE@EBOGMDOH@?$AAW?$AAe?$AAd?$AAn?$AAe?$AAs?$AAd?$AAa?$AAy?$AA?$AA@ 64086a30     LIBCMT:nlsdata2.obj
 0002:00001a44       ??_C@_1BA@ENFBFFEK@?$AAT?$AAu?$AAe?$AAs?$AAd?$AAa?$AAy?$AA?$AA@ 64086a44     LIBCMT:nlsdata2.obj
 0002:00001a54       ??_C@_1O@MMNBFLIA@?$AAM?$AAo?$AAn?$AAd?$AAa?$AAy?$AA?$AA@ 64086a54     LIBCMT:nlsdata2.obj
 0002:00001a64       ??_C@_1O@IHNHDHPB@?$AAS?$AAu?$AAn?$AAd?$AAa?$AAy?$AA?$AA@ 64086a64     LIBCMT:nlsdata2.obj
 0002:00001a74       ??_C@_17GGIBDPIH@?$AAS?$AAa?$AAt?$AA?$AA@ 64086a74     LIBCMT:nlsdata2.obj
 0002:00001a7c       ??_C@_17HFOLPPLP@?$AAF?$AAr?$AAi?$AA?$AA@ 64086a7c     LIBCMT:nlsdata2.obj
 0002:00001a84       ??_C@_17PDPHAADD@?$AAT?$AAh?$AAu?$AA?$AA@ 64086a84     LIBCMT:nlsdata2.obj
 0002:00001a8c       ??_C@_17CJEDCEPE@?$AAW?$AAe?$AAd?$AA?$AA@ 64086a8c     LIBCMT:nlsdata2.obj
 0002:00001a94       ??_C@_17BMKGEGOJ@?$AAT?$AAu?$AAe?$AA?$AA@ 64086a94     LIBCMT:nlsdata2.obj
 0002:00001a9c       ??_C@_17KBOMKBF@?$AAM?$AAo?$AAn?$AA?$AA@ 64086a9c     LIBCMT:nlsdata2.obj
 0002:00001aa4       ??_C@_17MBGCMIPB@?$AAS?$AAu?$AAn?$AA?$AA@ 64086aa4     LIBCMT:nlsdata2.obj
 0002:00001aac       ??_C@_08JCCMCCIL@HH?3mm?3ss?$AA@ 64086aac     LIBCMT:nlsdata2.obj
 0002:00001ab8       ??_C@_0BE@CKGJFCPC@dddd?0?5MMMM?5dd?0?5yyyy?$AA@ 64086ab8     LIBCMT:nlsdata2.obj
 0002:00001acc       ??_C@_08BPBNCDIB@MM?1dd?1yy?$AA@ 64086acc     LIBCMT:nlsdata2.obj
 0002:00001ad8       ??_C@_02CJNFDJBF@PM?$AA@   64086ad8     LIBCMT:nlsdata2.obj
 0002:00001adc       ??_C@_02DEDBPAFC@AM?$AA@   64086adc     LIBCMT:nlsdata2.obj
 0002:00001ae0       ??_C@_08EDHMEBNP@December?$AA@ 64086ae0     LIBCMT:nlsdata2.obj
 0002:00001aec       ??_C@_08HCHEGEOA@November?$AA@ 64086aec     LIBCMT:nlsdata2.obj
 0002:00001af8       ??_C@_07JJNFCEND@October?$AA@ 64086af8     LIBCMT:nlsdata2.obj
 0002:00001b00       ??_C@_09BHHEALKD@September?$AA@ 64086b00     LIBCMT:nlsdata2.obj
 0002:00001b0c       ??_C@_06LBBHFDDG@August?$AA@ 64086b0c     LIBCMT:nlsdata2.obj
 0002:00001b14       ??_C@_04MIEPOIFP@July?$AA@ 64086b14     LIBCMT:nlsdata2.obj
 0002:00001b1c       ??_C@_04CNLMGBGM@June?$AA@ 64086b1c     LIBCMT:nlsdata2.obj
 0002:00001b24       ??_C@_05DMJDNLEJ@April?$AA@ 64086b24     LIBCMT:nlsdata2.obj
 0002:00001b2c       ??_C@_05HPCKOFNC@March?$AA@ 64086b2c     LIBCMT:nlsdata2.obj
 0002:00001b34       ??_C@_08GNJGEPFN@February?$AA@ 64086b34     LIBCMT:nlsdata2.obj
 0002:00001b40       ??_C@_07CGJPFGJA@January?$AA@ 64086b40     LIBCMT:nlsdata2.obj
 0002:00001b48       ??_C@_03MKABNOCG@Dec?$AA@  64086b48     LIBCMT:nlsdata2.obj
 0002:00001b4c       ??_C@_03JPJOFNIA@Nov?$AA@  64086b4c     LIBCMT:nlsdata2.obj
 0002:00001b50       ??_C@_03BMAOKBAD@Oct?$AA@  64086b50     LIBCMT:nlsdata2.obj
 0002:00001b54       ??_C@_03GGCAPAJC@Sep?$AA@  64086b54     LIBCMT:nlsdata2.obj
 0002:00001b58       ??_C@_03IFJFEIGA@Aug?$AA@  64086b58     LIBCMT:nlsdata2.obj
 0002:00001b5c       ??_C@_03LBGABGKK@Jul?$AA@  64086b5c     LIBCMT:nlsdata2.obj
 0002:00001b60       ??_C@_03IDFGHECI@Jun?$AA@  64086b60     LIBCMT:nlsdata2.obj
 0002:00001b64       ??_C@_03CNMDKL@May?$AA@    64086b64     LIBCMT:nlsdata2.obj
 0002:00001b68       ??_C@_03LEOLGMJP@Apr?$AA@  64086b68     LIBCMT:nlsdata2.obj
 0002:00001b6c       ??_C@_03ODNJBKGA@Mar?$AA@  64086b6c     LIBCMT:nlsdata2.obj
 0002:00001b70       ??_C@_03HJBDCHOM@Feb?$AA@  64086b70     LIBCMT:nlsdata2.obj
 0002:00001b74       ??_C@_03JIHJHPIE@Jan?$AA@  64086b74     LIBCMT:nlsdata2.obj
 0002:00001b78       ??_C@_08INBOOONO@Saturday?$AA@ 64086b78     LIBCMT:nlsdata2.obj
 0002:00001b84       ??_C@_06JECMNKMI@Friday?$AA@ 64086b84     LIBCMT:nlsdata2.obj
 0002:00001b8c       ??_C@_08HACCIKIA@Thursday?$AA@ 64086b8c     LIBCMT:nlsdata2.obj
 0002:00001b98       ??_C@_09DLIGFAKA@Wednesday?$AA@ 64086b98     LIBCMT:nlsdata2.obj
 0002:00001ba4       ??_C@_07BAAGCFCM@Tuesday?$AA@ 64086ba4     LIBCMT:nlsdata2.obj
 0002:00001bac       ??_C@_06JLEDEDGH@Monday?$AA@ 64086bac     LIBCMT:nlsdata2.obj
 0002:00001bb4       ??_C@_06OOPIFAJ@Sunday?$AA@ 64086bb4     LIBCMT:nlsdata2.obj
 0002:00001bbc       ??_C@_03FEFJNEK@Sat?$AA@   64086bbc     LIBCMT:nlsdata2.obj
 0002:00001bc0       ??_C@_03IDIOELNC@Fri?$AA@  64086bc0     LIBCMT:nlsdata2.obj
 0002:00001bc4       ??_C@_03IOFIKPDN@Thu?$AA@  64086bc4     LIBCMT:nlsdata2.obj
 0002:00001bc8       ??_C@_03MHOMLAJA@Wed?$AA@  64086bc8     LIBCMT:nlsdata2.obj
 0002:00001bcc       ??_C@_03NAGEINEP@Tue?$AA@  64086bcc     LIBCMT:nlsdata2.obj
 0002:00001bd0       ??_C@_03PDAGKDH@Mon?$AA@   64086bd0     LIBCMT:nlsdata2.obj
 0002:00001bd4       ??_C@_03KOEHGMDN@Sun?$AA@  64086bd4     LIBCMT:nlsdata2.obj
 0002:00001bd8       ??_C@_1BK@DBDEIDLH@?$AAK?$AAE?$AAR?$AAN?$AAE?$AAL?$AA3?$AA2?$AA?4?$AAD?$AAL?$AAL?$AA?$AA@ 64086bd8     LIBCMT:tidtable.obj
 0002:00001bf4       ??_C@_07PEJMOBNF@FlsFree?$AA@ 64086bf4     LIBCMT:tidtable.obj
 0002:00001bfc       ??_C@_0M@JCPCPOEF@FlsSetValue?$AA@ 64086bfc     LIBCMT:tidtable.obj
 0002:00001c08       ??_C@_0M@GDNOONDI@FlsGetValue?$AA@ 64086c08     LIBCMT:tidtable.obj
 0002:00001c14       ??_C@_08KNHFBNJ@FlsAlloc?$AA@ 64086c14     LIBCMT:tidtable.obj
 0002:00001c20       ??_C@_1O@CEDCILHN@?$AA?$CI?$AAn?$AAu?$AAl?$AAl?$AA?$CJ?$AA?$AA@ 64086c20     LIBCMT:output.obj
 0002:00001c30       ??_C@_06OJHGLDPL@?$CInull?$CJ?$AA@ 64086c30     LIBCMT:output.obj
 0002:00001c38       ___lookuptable             64086c38     LIBCMT:output.obj
 0002:00001c98       __XcptActTab               64086c98     LIBCMT:winxfltr.obj
 0002:00001d28       __First_FPE_Indx           64086d28     LIBCMT:winxfltr.obj
 0002:00001d2c       __Num_FPE                  64086d2c     LIBCMT:winxfltr.obj
 0002:00001d30       __XcptActTabSize           64086d30     LIBCMT:winxfltr.obj
 0002:00001d34       __XcptActTabCount          64086d34     LIBCMT:winxfltr.obj
 0002:00001d38       ??_C@_0BG@KLEAJEFJ@Illegal?5byte?5sequence?$AA@ 64086d38     LIBCMT:syserr.obj
 0002:00001d50       ??_C@_0BE@ICMCHPHH@Directory?5not?5empty?$AA@ 64086d50     LIBCMT:syserr.obj
 0002:00001d64       ??_C@_0BJ@IHEHINLI@Function?5not?5implemented?$AA@ 64086d64     LIBCMT:syserr.obj
 0002:00001d80       ??_C@_0BD@CLHBCGPB@No?5locks?5available?$AA@ 64086d80     LIBCMT:syserr.obj
 0002:00001d94       ??_C@_0BC@BEDIHIDK@Filename?5too?5long?$AA@ 64086d94     LIBCMT:syserr.obj
 0002:00001da8       ??_C@_0BK@JAEBMJJM@Resource?5deadlock?5avoided?$AA@ 64086da8     LIBCMT:syserr.obj
 0002:00001dc4       ??_C@_0BB@FCBJFCAJ@Result?5too?5large?$AA@ 64086dc4     LIBCMT:syserr.obj
 0002:00001dd8       ??_C@_0N@MMJPGLJK@Domain?5error?$AA@ 64086dd8     LIBCMT:syserr.obj
 0002:00001de8       ??_C@_0M@LHEPIIOM@Broken?5pipe?$AA@ 64086de8     LIBCMT:syserr.obj
 0002:00001df4       ??_C@_0P@PKCJJLLM@Too?5many?5links?$AA@ 64086df4     LIBCMT:syserr.obj
 0002:00001e04       ??_C@_0BG@DDBFNKBH@Read?9only?5file?5system?$AA@ 64086e04     LIBCMT:syserr.obj
 0002:00001e1c       ??_C@_0N@FEHLOILP@Invalid?5seek?$AA@ 64086e1c     LIBCMT:syserr.obj
 0002:00001e2c       ??_C@_0BI@FEALHKLD@No?5space?5left?5on?5device?$AA@ 64086e2c     LIBCMT:syserr.obj
 0002:00001e44       ??_C@_0P@LFMMIPAE@File?5too?5large?$AA@ 64086e44     LIBCMT:syserr.obj
 0002:00001e54       ??_C@_0CE@ONOKNLPF@Inappropriate?5I?1O?5control?5operat@ 64086e54     LIBCMT:syserr.obj
 0002:00001e78       ??_C@_0BE@INBJMKGG@Too?5many?5open?5files?$AA@ 64086e78     LIBCMT:syserr.obj
 0002:00001e8c       ??_C@_0BO@IIFBODJE@Too?5many?5open?5files?5in?5system?$AA@ 64086e8c     LIBCMT:syserr.obj
 0002:00001eac       ??_C@_0BB@HMGGCEBG@Invalid?5argument?$AA@ 64086eac     LIBCMT:syserr.obj
 0002:00001ec0       ??_C@_0P@NDHGCGKE@Is?5a?5directory?$AA@ 64086ec0     LIBCMT:syserr.obj
 0002:00001ed0       ??_C@_0BA@CJBACOOL@Not?5a?5directory?$AA@ 64086ed0     LIBCMT:syserr.obj
 0002:00001ee0       ??_C@_0P@NLEIANHE@No?5such?5device?$AA@ 64086ee0     LIBCMT:syserr.obj
 0002:00001ef0       ??_C@_0O@OAMDNOCP@Improper?5link?$AA@ 64086ef0     LIBCMT:syserr.obj
 0002:00001f00       ??_C@_0M@NAAJNNGH@File?5exists?$AA@ 64086f00     LIBCMT:syserr.obj
 0002:00001f0c       ??_C@_0BA@BIBLIOEK@Resource?5device?$AA@ 64086f0c     LIBCMT:syserr.obj
 0002:00001f1c       ??_C@_0O@NIPGCINC@Unknown?5error?$AA@ 64086f1c     LIBCMT:syserr.obj
 0002:00001f2c       ??_C@_0M@LOEHLCJD@Bad?5address?$AA@ 64086f2c     LIBCMT:syserr.obj
 0002:00001f38       ??_C@_0BC@HFNFNKAI@Permission?5denied?$AA@ 64086f38     LIBCMT:syserr.obj
 0002:00001f4c       ??_C@_0BB@IMDKMPFB@Not?5enough?5space?$AA@ 64086f4c     LIBCMT:syserr.obj
 0002:00001f60       ??_C@_0CB@EPFKGNAK@Resource?5temporarily?5unavailable@ 64086f60     LIBCMT:syserr.obj
 0002:00001f84       ??_C@_0BD@LOHELEP@No?5child?5processes?$AA@ 64086f84     LIBCMT:syserr.obj
 0002:00001f98       ??_C@_0BE@NFGDDCEF@Bad?5file?5descriptor?$AA@ 64086f98     LIBCMT:syserr.obj
 0002:00001fac       ??_C@_0BC@HKPNECK@Exec?5format?5error?$AA@ 64086fac     LIBCMT:syserr.obj
 0002:00001fc0       ??_C@_0BC@MFFGCDFL@Arg?5list?5too?5long?$AA@ 64086fc0     LIBCMT:syserr.obj
 0002:00001fd4       ??_C@_0BK@DPKMCKJ@No?5such?5device?5or?5address?$AA@ 64086fd4     LIBCMT:syserr.obj
 0002:00001ff0       ??_C@_0BD@KKNFOBBD@Input?1output?5error?$AA@ 64086ff0     LIBCMT:syserr.obj
 0002:00002004       ??_C@_0BK@FJBOAFDK@Interrupted?5function?5call?$AA@ 64087004     LIBCMT:syserr.obj
 0002:00002020       ??_C@_0BA@FKIAIBGA@No?5such?5process?$AA@ 64087020     LIBCMT:syserr.obj
 0002:00002030       ??_C@_0BK@FMDHKPNF@No?5such?5file?5or?5directory?$AA@ 64087030     LIBCMT:syserr.obj
 0002:0000204c       ??_C@_0BI@BJFCGOHL@Operation?5not?5permitted?$AA@ 6408704c     LIBCMT:syserr.obj
 0002:00002064       ??_C@_08INEPGKHH@No?5error?$AA@ 64087064     LIBCMT:syserr.obj
 0002:00002070       ??_C@_0O@FMJNFNKE@united?9states?$AA@ 64087070     LIBCMT:getqloc.obj
 0002:00002080       ??_C@_0P@NDHFFKCA@united?9kingdom?$AA@ 64087080     LIBCMT:getqloc.obj
 0002:00002090       ??_C@_0BC@HHDADLGF@trinidad?5?$CG?5tobago?$AA@ 64087090     LIBCMT:getqloc.obj
 0002:000020a4       ??_C@_0M@IOAEBDAC@south?9korea?$AA@ 640870a4     LIBCMT:getqloc.obj
 0002:000020b0       ??_C@_0N@FIELFKIJ@south?9africa?$AA@ 640870b0     LIBCMT:getqloc.obj
 0002:000020c0       ??_C@_0M@OPNDHCMC@south?5korea?$AA@ 640870c0     LIBCMT:getqloc.obj
 0002:000020cc       ??_C@_0N@MDEOEPFI@south?5africa?$AA@ 640870cc     LIBCMT:getqloc.obj
 0002:000020dc       ??_C@_06FKAPCJLB@slovak?$AA@ 640870dc     LIBCMT:getqloc.obj
 0002:000020e4       ??_C@_0M@EFJANOAL@puerto?9rico?$AA@ 640870e4     LIBCMT:getqloc.obj
 0002:000020f0       ??_C@_08PGOJKDAI@pr?9china?$AA@ 640870f0     LIBCMT:getqloc.obj
 0002:000020fc       ??_C@_08JHDOMCMI@pr?5china?$AA@ 640870fc     LIBCMT:getqloc.obj
 0002:00002108       ??_C@_02JHCHFBLL@nz?$AA@   64087108     LIBCMT:getqloc.obj
 0002:0000210c       ??_C@_0M@LINHDHKP@new?9zealand?$AA@ 6408710c     LIBCMT:getqloc.obj
 0002:00002118       ??_C@_09IIIPPBDB@hong?9kong?$AA@ 64087118     LIBCMT:getqloc.obj
 0002:00002124       ??_C@_07HJLCKBG@holland?$AA@ 64087124     LIBCMT:getqloc.obj
 0002:0000212c       ??_C@_0O@LEHGMHAG@great?5britain?$AA@ 6408712c     LIBCMT:getqloc.obj
 0002:0000213c       ??_C@_07FACOMELA@england?$AA@ 6408713c     LIBCMT:getqloc.obj
 0002:00002144       ??_C@_05JIHCEICB@czech?$AA@ 64087144     LIBCMT:getqloc.obj
 0002:0000214c       ??_C@_05BBJOBLGB@china?$AA@ 6408714c     LIBCMT:getqloc.obj
 0002:00002154       ??_C@_07GPKPHICP@britain?$AA@ 64087154     LIBCMT:getqloc.obj
 0002:0000215c       ??_C@_07MHIPBHMG@america?$AA@ 6408715c     LIBCMT:getqloc.obj
 0002:00002164       ??_C@_03KIALPMKC@usa?$AA@  64087164     LIBCMT:getqloc.obj
 0002:00002168       ??_C@_02FGJGKGGD@us?$AA@   64087168     LIBCMT:getqloc.obj
 0002:0000216c       ??_C@_02NEINDODK@uk?$AA@   6408716c     LIBCMT:getqloc.obj
 0002:00002170       ??_C@_05JMPCFJFJ@swiss?$AA@ 64087170     LIBCMT:getqloc.obj
 0002:00002178       ??_C@_0BA@HLOCPIOD@swedish?9finland?$AA@ 64087178     LIBCMT:getqloc.obj
 0002:00002188       ??_C@_0BC@PKCNIABK@spanish?9venezuela?$AA@ 64087188     LIBCMT:getqloc.obj
 0002:0000219c       ??_C@_0BA@GBHHMIJI@spanish?9uruguay?$AA@ 6408719c     LIBCMT:getqloc.obj
 0002:000021ac       ??_C@_0BE@BHDOHPMC@spanish?9puerto?5rico?$AA@ 640871ac     LIBCMT:getqloc.obj
 0002:000021c0       ??_C@_0N@KMOIDGGN@spanish?9peru?$AA@ 640871c0     LIBCMT:getqloc.obj
 0002:000021d0       ??_C@_0BB@HMHLPGPH@spanish?9paraguay?$AA@ 640871d0     LIBCMT:getqloc.obj
 0002:000021e4       ??_C@_0P@MCPKNGFD@spanish?9panama?$AA@ 640871e4     LIBCMT:getqloc.obj
 0002:000021f4       ??_C@_0BC@IHOHGAIL@spanish?9nicaragua?$AA@ 640871f4     LIBCMT:getqloc.obj
 0002:00002208       ??_C@_0P@KLMJDNFJ@spanish?9modern?$AA@ 64087208     LIBCMT:getqloc.obj
 0002:00002218       ??_C@_0BA@BPAPGBCM@spanish?9mexican?$AA@ 64087218     LIBCMT:getqloc.obj
 0002:00002228       ??_C@_0BB@PDECHHHE@spanish?9honduras?$AA@ 64087228     LIBCMT:getqloc.obj
 0002:0000223c       ??_C@_0BC@KLHKFGDB@spanish?9guatemala?$AA@ 6408723c     LIBCMT:getqloc.obj
 0002:00002250       ??_C@_0BE@MFOOKJAI@spanish?9el?5salvador?$AA@ 64087250     LIBCMT:getqloc.obj
 0002:00002264       ??_C@_0BA@FCOKFPFC@spanish?9ecuador?$AA@ 64087264     LIBCMT:getqloc.obj
 0002:00002274       ??_C@_0BL@PLMGIMOO@spanish?9dominican?5republic?$AA@ 64087274     LIBCMT:getqloc.obj
 0002:00002290       ??_C@_0BD@HLGDNMHB@spanish?9costa?5rica?$AA@ 64087290     LIBCMT:getqloc.obj
 0002:000022a4       ??_C@_0BB@PKCBKCPE@spanish?9colombia?$AA@ 640872a4     LIBCMT:getqloc.obj
 0002:000022b8       ??_C@_0O@MCBIJGNE@spanish?9chile?$AA@ 640872b8     LIBCMT:getqloc.obj
 0002:000022c8       ??_C@_0BA@BEFEIGJJ@spanish?9bolivia?$AA@ 640872c8     LIBCMT:getqloc.obj
 0002:000022d8       ??_C@_0BC@EMECMPD@spanish?9argentina?$AA@ 640872d8     LIBCMT:getqloc.obj
 0002:000022ec       ??_C@_0BF@EALFLENP@portuguese?9brazilian?$AA@ 640872ec     LIBCMT:getqloc.obj
 0002:00002304       ??_C@_0BC@HBLEBLNN@norwegian?9nynorsk?$AA@ 64087304     LIBCMT:getqloc.obj
 0002:00002318       ??_C@_0BB@HMACDDCK@norwegian?9bokmal?$AA@ 64087318     LIBCMT:getqloc.obj
 0002:0000232c       ??_C@_09BAFFPPHE@norwegian?$AA@ 6408732c     LIBCMT:getqloc.obj
 0002:00002338       ??_C@_0O@EAJFJDFG@italian?9swiss?$AA@ 64087338     LIBCMT:getqloc.obj
 0002:00002348       ??_C@_0O@CNOMPGD@irish?9english?$AA@ 64087348     LIBCMT:getqloc.obj
 0002:00002358       ??_C@_0N@EDHBGCKG@german?9swiss?$AA@ 64087358     LIBCMT:getqloc.obj
 0002:00002368       ??_C@_0BC@JACMHNBP@german?9luxembourg?$AA@ 64087368     LIBCMT:getqloc.obj
 0002:0000237c       ??_C@_0BE@HBGMGFEG@german?9lichtenstein?$AA@ 6408737c     LIBCMT:getqloc.obj
 0002:00002390       ??_C@_0BA@HKKBIBKL@german?9austrian?$AA@ 64087390     LIBCMT:getqloc.obj
 0002:000023a0       ??_C@_0N@GCAEPEBK@french?9swiss?$AA@ 640873a0     LIBCMT:getqloc.obj
 0002:000023b0       ??_C@_0BC@DJFJJCK@french?9luxembourg?$AA@ 640873b0     LIBCMT:getqloc.obj
 0002:000023c4       ??_C@_0BA@NNCEDFIC@french?9canadian?$AA@ 640873c4     LIBCMT:getqloc.obj
 0002:000023d4       ??_C@_0P@CMPOCLM@french?9belgian?$AA@ 640873d4     LIBCMT:getqloc.obj
 0002:000023e4       ??_C@_0M@GHHDJOK@english?9usa?$AA@ 640873e4     LIBCMT:getqloc.obj
 0002:000023f0       ??_C@_0L@PLDJKEIL@english?9us?$AA@ 640873f0     LIBCMT:getqloc.obj
 0002:000023fc       ??_C@_0L@HJCCDMNC@english?9uk?$AA@ 640873fc     LIBCMT:getqloc.obj
 0002:00002408       ??_C@_0BK@CKLIAGJB@english?9trinidad?5y?5tobago?$AA@ 64087408     LIBCMT:getqloc.obj
 0002:00002424       ??_C@_0BF@JMJMGNNF@english?9south?5africa?$AA@ 64087424     LIBCMT:getqloc.obj
 0002:0000243c       ??_C@_0L@DKIIFDFD@english?9nz?$AA@ 6408743c     LIBCMT:getqloc.obj
 0002:00002448       ??_C@_0BA@ONHGJCLH@english?9jamaica?$AA@ 64087448     LIBCMT:getqloc.obj
 0002:00002458       ??_C@_0M@HJBGHOPO@english?9ire?$AA@ 64087458     LIBCMT:getqloc.obj
 0002:00002464       ??_C@_0BC@LFEKMIFB@english?9caribbean?$AA@ 64087464     LIBCMT:getqloc.obj
 0002:00002478       ??_C@_0M@OLDPFKHI@english?9can?$AA@ 64087478     LIBCMT:getqloc.obj
 0002:00002484       ??_C@_0P@OMDEHBMP@english?9belize?$AA@ 64087484     LIBCMT:getqloc.obj
 0002:00002494       ??_C@_0M@KFHFPFED@english?9aus?$AA@ 64087494     LIBCMT:getqloc.obj
 0002:000024a0       ??_C@_0BB@MNMBKDFE@english?9american?$AA@ 640874a0     LIBCMT:getqloc.obj
 0002:000024b4       ??_C@_0O@KIDLNNBA@dutch?9belgian?$AA@ 640874b4     LIBCMT:getqloc.obj
 0002:000024c4       ??_C@_0BE@JBKABBMH@chinese?9traditional?$AA@ 640874c4     LIBCMT:getqloc.obj
 0002:000024d8       ??_C@_0BC@MJJMPKCG@chinese?9singapore?$AA@ 640874d8     LIBCMT:getqloc.obj
 0002:000024ec       ??_C@_0BD@FDKADDCP@chinese?9simplified?$AA@ 640874ec     LIBCMT:getqloc.obj
 0002:00002500       ??_C@_0BB@DBEFDDME@chinese?9hongkong?$AA@ 64087500     LIBCMT:getqloc.obj
 0002:00002514       ??_C@_07DHNMFMCI@chinese?$AA@ 64087514     LIBCMT:getqloc.obj
 0002:0000251c       ??_C@_03FNDDCHI@chi?$AA@   6408751c     LIBCMT:getqloc.obj
 0002:00002520       ??_C@_03BMMIADDJ@chh?$AA@  64087520     LIBCMT:getqloc.obj
 0002:00002524       ??_C@_08OAIPJDGI@canadian?$AA@ 64087524     LIBCMT:getqloc.obj
 0002:00002530       ??_C@_07HBPMNPNJ@belgian?$AA@ 64087530     LIBCMT:getqloc.obj
 0002:00002538       ??_C@_0L@OEKOPBEL@australian?$AA@ 64087538     LIBCMT:getqloc.obj
 0002:00002544       ??_C@_0BB@MEIMBEDG@american?9english?$AA@ 64087544     LIBCMT:getqloc.obj
 0002:00002558       ??_C@_0BB@DFMDPDGB@american?5english?$AA@ 64087558     LIBCMT:getqloc.obj
 0002:0000256c       ??_C@_08IJLOKOLL@american?$AA@ 6408756c     LIBCMT:getqloc.obj
 0002:00002578       ___rg_language             64087578     LIBCMT:getqloc.obj
 0002:00002780       ___rg_country              64087780     LIBCMT:getqloc.obj
 0002:00002838       ___rglangidNotDefault      64087838     LIBCMT:getqloc.obj
 0002:0000284c       ??_C@_03NFKLAGEF@OCP?$AA@  6408784c     LIBCMT:getqloc.obj
 0002:00002850       ??_C@_03DFHEHBHG@ACP?$AA@  64087850     LIBCMT:getqloc.obj
 0002:00002854       ??_C@_0BC@NFIEMBLL@Norwegian?9Nynorsk?$AA@ 64087854     LIBCMT:getqloc.obj
 0002:00002868       ??_C@_0BK@CFCOFLF@?5Complete?5Object?5Locator?8?$AA@ 64087868     LIBCMT:undname.obj
 0002:00002884       ??_C@_0BN@MECKDCOJ@?5Class?5Hierarchy?5Descriptor?8?$AA@ 64087884     LIBCMT:undname.obj
 0002:000028a4       ??_C@_0BD@LGICGFMM@?5Base?5Class?5Array?8?$AA@ 640878a4     LIBCMT:undname.obj
 0002:000028b8       ??_C@_0BM@LDKODKLH@?5Base?5Class?5Descriptor?5at?5?$CI?$AA@ 640878b8     LIBCMT:undname.obj
 0002:000028d4       ??_C@_0BC@DAFEJGAK@?5Type?5Descriptor?8?$AA@ 640878d4     LIBCMT:undname.obj
 0002:000028e8       ??_C@_0BM@PMGGMLDN@?$GAlocal?5static?5thread?5guard?8?$AA@ 640878e8     LIBCMT:undname.obj
 0002:00002904       ??_C@_0CL@FGIJHLCE@?$GAmanaged?5vector?5copy?5constructor@ 64087904     LIBCMT:undname.obj
 0002:00002930       ??_C@_0CJ@GJELGAMM@?$GAvector?5vbase?5copy?5constructor?5i@ 64087930     LIBCMT:undname.obj
 0002:0000295c       ??_C@_0CD@CGAJBKEJ@?$GAvector?5copy?5constructor?5iterato@ 6408795c     LIBCMT:undname.obj
 0002:00002980       ??_C@_0CB@PDBIFEP@?$GAdynamic?5atexit?5destructor?5for?5?8@ 64087980     LIBCMT:undname.obj
 0002:000029a4       ??_C@_0BL@CLIPGLGB@?$GAdynamic?5initializer?5for?5?8?$AA@ 640879a4     LIBCMT:undname.obj
 0002:000029c0       ??_C@_0CM@FCBBDIGB@?$GAeh?5vector?5vbase?5copy?5constructo@ 640879c0     LIBCMT:undname.obj
 0002:000029ec       ??_C@_0CG@HLDDJMAG@?$GAeh?5vector?5copy?5constructor?5iter@ 640879ec     LIBCMT:undname.obj
 0002:00002a14       ??_C@_0CF@IMGKMJNO@?$GAmanaged?5vector?5destructor?5itera@ 64087a14     LIBCMT:undname.obj
 0002:00002a3c       ??_C@_0CG@CFDHKGGD@?$GAmanaged?5vector?5constructor?5iter@ 64087a3c     LIBCMT:undname.obj
 0002:00002a64       ??_C@_0BN@CKNJLHMB@?$GAplacement?5delete?$FL?$FN?5closure?8?$AA@ 64087a64     LIBCMT:undname.obj
 0002:00002a84       ??_C@_0BL@CNOONJFP@?$GAplacement?5delete?5closure?8?$AA@ 64087a84     LIBCMT:undname.obj
 0002:00002aa0       ??_C@_0P@HJKNJFNN@?$GAomni?5callsig?8?$AA@ 64087aa0     LIBCMT:undname.obj
 0002:00002ab0       ??_C@_09LBNFPBCA@?5delete?$FL?$FN?$AA@ 64087ab0     LIBCMT:undname.obj
 0002:00002abc       ??_C@_06FHBGPFGH@?5new?$FL?$FN?$AA@ 64087abc     LIBCMT:undname.obj
 0002:00002ac4       ??_C@_0CE@IIHCMGGL@?$GAlocal?5vftable?5constructor?5closu@ 64087ac4     LIBCMT:undname.obj
 0002:00002ae8       ??_C@_0BA@KKLDJDLB@?$GAlocal?5vftable?8?$AA@ 64087ae8     LIBCMT:undname.obj
 0002:00002af8       ??_C@_05KHLCHHI@?$GARTTI?$AA@ 64087af8     LIBCMT:undname.obj
 0002:00002b00       ??_C@_03KLGMFNMG@?$GAEH?$AA@ 64087b00     LIBCMT:undname.obj
 0002:00002b04       ??_C@_0BA@KBCDOMBN@?$GAudt?5returning?8?$AA@ 64087b04     LIBCMT:undname.obj
 0002:00002b14       ??_C@_0BL@LLKPOHJI@?$GAcopy?5constructor?5closure?8?$AA@ 64087b14     LIBCMT:undname.obj
 0002:00002b30       ??_C@_0CH@OOJPLCPH@?$GAeh?5vector?5vbase?5constructor?5ite@ 64087b30     LIBCMT:undname.obj
 0002:00002b58       ??_C@_0CA@GCEOPDGL@?$GAeh?5vector?5destructor?5iterator?8?$AA@ 64087b58     LIBCMT:undname.obj
 0002:00002b78       ??_C@_0CB@JONCMFFK@?$GAeh?5vector?5constructor?5iterator?8@ 64087b78     LIBCMT:undname.obj
 0002:00002b9c       ??_C@_0BL@NILFHHPC@?$GAvirtual?5displacement?5map?8?$AA@ 64087b9c     LIBCMT:undname.obj
 0002:00002bb8       ??_C@_0CE@IKBNEHA@?$GAvector?5vbase?5constructor?5iterat@ 64087bb8     LIBCMT:undname.obj
 0002:00002bdc       ??_C@_0BN@LFPFMEDL@?$GAvector?5destructor?5iterator?8?$AA@ 64087bdc     LIBCMT:undname.obj
 0002:00002bfc       ??_C@_0BO@PFGOCPJJ@?$GAvector?5constructor?5iterator?8?$AA@ 64087bfc     LIBCMT:undname.obj
 0002:00002c1c       ??_C@_0BN@IMDCHIKM@?$GAscalar?5deleting?5destructor?8?$AA@ 64087c1c     LIBCMT:undname.obj
 0002:00002c3c       ??_C@_0BO@OBMKPJIG@?$GAdefault?5constructor?5closure?8?$AA@ 64087c3c     LIBCMT:undname.obj
 0002:00002c5c       ??_C@_0BN@DEGPLNFK@?$GAvector?5deleting?5destructor?8?$AA@ 64087c5c     LIBCMT:undname.obj
 0002:00002c7c       ??_C@_0BD@JDLKDPAB@?$GAvbase?5destructor?8?$AA@ 64087c7c     LIBCMT:undname.obj
 0002:00002c90       ??_C@_08OBABFOLI@?$GAstring?8?$AA@ 64087c90     LIBCMT:undname.obj
 0002:00002c9c       ??_C@_0BF@KDPPACIK@?$GAlocal?5static?5guard?8?$AA@ 64087c9c     LIBCMT:undname.obj
 0002:00002cb4       ??_C@_08LLFFHHDJ@?$GAtypeof?8?$AA@ 64087cb4     LIBCMT:undname.obj
 0002:00002cc0       ??_C@_07FEEIOKP@?$GAvcall?8?$AA@ 64087cc0     LIBCMT:undname.obj
 0002:00002cc8       ??_C@_09BLBHBJP@?$GAvbtable?8?$AA@ 64087cc8     LIBCMT:undname.obj
 0002:00002cd4       ??_C@_09IFPLHPGF@?$GAvftable?8?$AA@ 64087cd4     LIBCMT:undname.obj
 0002:00002ce0       ??_C@_02MHEGNOJ@?$FO?$DN?$AA@ 64087ce0     LIBCMT:undname.obj
 0002:00002ce4       ??_C@_02DHLNPPGH@?$HM?$DN?$AA@ 64087ce4     LIBCMT:undname.obj
 0002:00002ce8       ??_C@_02FGJGFEAB@?$CG?$DN?$AA@ 64087ce8     LIBCMT:undname.obj
 0002:00002cec       ??_C@_03CDNPDDLA@?$DM?$DM?$DN?$AA@ 64087cec     LIBCMT:undname.obj
 0002:00002cf0       ??_C@_03IKFCCPFF@?$DO?$DO?$DN?$AA@ 64087cf0     LIBCMT:undname.obj
 0002:00002cf4       ??_C@_02FENAOKFI@?$CF?$DN?$AA@ 64087cf4     LIBCMT:undname.obj
 0002:00002cf8       ??_C@_02FJEHGPIO@?1?$DN?$AA@ 64087cf8     LIBCMT:undname.obj
 0002:00002cfc       ??_C@_02FKMDLLOA@?9?$DN?$AA@ 64087cfc     LIBCMT:undname.obj
 0002:00002d00       ??_C@_02FOEOMHFC@?$CL?$DN?$AA@ 64087d00     LIBCMT:undname.obj
 0002:00002d04       ??_C@_02FPIMKNGF@?$CK?$DN?$AA@ 64087d04     LIBCMT:undname.obj
 0002:00002d08       ??_C@_02NONPIBCD@?$HM?$HM?$AA@ 64087d08     LIBCMT:undname.obj
 0002:00002d0c       ??_C@_02PPKAJPJL@?$CG?$CG?$AA@ 64087d0c     LIBCMT:undname.obj
 0002:00002d10       ??_C@_01DNKMNLPK@?$HM?$AA@ 64087d10     LIBCMT:undname.obj
 0002:00002d14       ??_C@_01JKBOJNNK@?$FO?$AA@ 64087d14     LIBCMT:undname.obj
 0002:00002d18       ??_C@_01PJKLJHI@?$HO?$AA@  64087d18     LIBCMT:undname.obj
 0002:00002d1c       ??_C@_02HCKGKOFO@?$CI?$CJ?$AA@ 64087d1c     LIBCMT:undname.obj
 0002:00002d20       ??_C@_01IHBHIGKO@?0?$AA@   64087d20     LIBCMT:undname.obj
 0002:00002d24       ??_C@_02EEKDKGMJ@?$DO?$DN?$AA@ 64087d24     LIBCMT:undname.obj
 0002:00002d28       ??_C@_01PPODPGHN@?$DO?$AA@ 64087d28     LIBCMT:undname.obj
 0002:00002d2c       ??_C@_02EHCHHCKH@?$DM?$DN?$AA@ 64087d2c     LIBCMT:undname.obj
 0002:00002d30       ??_C@_01MNNFJEPP@?$DM?$AA@ 64087d30     LIBCMT:undname.obj
 0002:00002d34       ??_C@_01FGNFDNOH@?$CF?$AA@ 64087d34     LIBCMT:undname.obj
 0002:00002d38       ??_C@_01KMDKNFGN@?1?$AA@   64087d38     LIBCMT:undname.obj
 0002:00002d3c       ??_C@_03MNHNFDLC@?9?$DO?$CK?$AA@ 64087d3c     LIBCMT:undname.obj
 0002:00002d40       ??_C@_01HNPIGOCE@?$CG?$AA@ 64087d40     LIBCMT:undname.obj
 0002:00002d44       ??_C@_01MIFGBAGJ@?$CL?$AA@ 64087d44     LIBCMT:undname.obj
 0002:00002d48       ??_C@_01JOAMLHOP@?9?$AA@   64087d48     LIBCMT:undname.obj
 0002:00002d4c       ??_C@_02BAABKJLB@?9?9?$AA@ 64087d4c     LIBCMT:undname.obj
 0002:00002d50       ??_C@_02ECNGHCIF@?$CL?$CL?$AA@ 64087d50     LIBCMT:undname.obj
 0002:00002d54       ??_C@_02HBOOOICD@?9?$DO?$AA@ 64087d54     LIBCMT:undname.obj
 0002:00002d58       ??_C@_08LHJFAFGD@operator?$AA@ 64087d58     LIBCMT:undname.obj
 0002:00002d64       ??_C@_02GPECMEKF@?$FL?$FN?$AA@ 64087d64     LIBCMT:undname.obj
 0002:00002d68       ??_C@_02FDNJECIE@?$CB?$DN?$AA@ 64087d68     LIBCMT:undname.obj
 0002:00002d6c       ??_C@_02EGOFBIJA@?$DN?$DN?$AA@ 64087d6c     LIBCMT:undname.obj
 0002:00002d70       ??_C@_01DCLJPIOD@?$CB?$AA@ 64087d70     LIBCMT:undname.obj
 0002:00002d74       ??_C@_02FODMEDOG@?$DM?$DM?$AA@ 64087d74     LIBCMT:undname.obj
 0002:00002d78       ??_C@_02GPIOPFAK@?$DO?$DO?$AA@ 64087d78     LIBCMT:undname.obj
 0002:00002d7c       ??_C@_07FPCDHGMM@?5delete?$AA@ 64087d7c     LIBCMT:undname.obj
 0002:00002d84       ??_C@_04NIHEBCM@?5new?$AA@ 64087d84     LIBCMT:undname.obj
 0002:00002d8c       ??_C@_0M@GFIIJFMG@__unaligned?$AA@ 64087d8c     LIBCMT:undname.obj
 0002:00002d98       ??_C@_0L@PILCLIHE@__restrict?$AA@ 64087d98     LIBCMT:undname.obj
 0002:00002da4       ??_C@_07JOMMBBKO@__ptr64?$AA@ 64087da4     LIBCMT:undname.obj
 0002:00002dac       ??_C@_06GHPCKEAG@__eabi?$AA@ 64087dac     LIBCMT:undname.obj
 0002:00002db4       ??_C@_09HIJEGCPM@__clrcall?$AA@ 64087db4     LIBCMT:undname.obj
 0002:00002dc0       ??_C@_0L@JMKHOMEK@__fastcall?$AA@ 64087dc0     LIBCMT:undname.obj
 0002:00002dcc       ??_C@_0L@NPHFGOKO@__thiscall?$AA@ 64087dcc     LIBCMT:undname.obj
 0002:00002dd8       ??_C@_09IFJBGAPI@__stdcall?$AA@ 64087dd8     LIBCMT:undname.obj
 0002:00002de4       ??_C@_08GHMPAG@__pascal?$AA@ 64087de4     LIBCMT:undname.obj
 0002:00002df0       ??_C@_07KOLFKCDI@__cdecl?$AA@ 64087df0     LIBCMT:undname.obj
 0002:00002df8       ??_C@_08EHJDFFNH@__based?$CI?$AA@ 64087df8     LIBCMT:undname.obj
 0002:00002f8c       ??_7charNode@@6B@          64087f8c     LIBCMT:undname.obj
 0002:00002f98       ??_7pDNameNode@@6B@        64087f98     LIBCMT:undname.obj
 0002:00002fa4       ??_7DNameStatusNode@@6B@   64087fa4     LIBCMT:undname.obj
 0002:00002fb0       ??_7pairNode@@6B@          64087fb0     LIBCMT:undname.obj
 0002:00002fbc       ??_7pcharNode@@6B@         64087fbc     LIBCMT:undname.obj
 0002:00002fc8       ??_C@_04OKOHEJBO@?5?$DP?$DP?5?$AA@ 64087fc8     LIBCMT:undname.obj
 0002:00002fd0       ??_C@_06EEGAIFAK@?$HLflat?$HN?$AA@ 64087fd0     LIBCMT:undname.obj
 0002:00002fd8       ??_C@_05JIBOFOHK@?$HLfor?5?$AA@ 64087fd8     LIBCMT:undname.obj
 0002:00002fe0       ??_C@_0BN@IBLMMFAP@?$GAnon?9type?9template?9parameter?$AA@ 64087fe0     LIBCMT:undname.obj
 0002:00003000       ??_C@_09EBBEKKIH@unsigned?5?$AA@ 64088000     LIBCMT:undname.obj
 0002:0000300c       ??_C@_05CJIMAING@long?5?$AA@ 6408800c     LIBCMT:undname.obj
 0002:00003014       ??_C@_04LAHKHJMA@int?5?$AA@ 64088014     LIBCMT:undname.obj
 0002:0000301c       ??_C@_06EHJMALKF@short?5?$AA@ 6408801c     LIBCMT:undname.obj
 0002:00003024       ??_C@_05CIHEBHNO@char?5?$AA@ 64088024     LIBCMT:undname.obj
 0002:0000302c       ??_C@_04GKJNKENE@void?$AA@ 6408802c     LIBCMT:undname.obj
 0002:00003034       ??_C@_0L@EGPHHEKN@?$DMellipsis?$DO?$AA@ 64088034     LIBCMT:undname.obj
 0002:00003040       ??_C@_03KHICJKCI@?4?4?4?$AA@ 64088040     LIBCMT:undname.obj
 0002:00003044       ??_C@_0M@ELJOJFFH@?0?$DMellipsis?$DO?$AA@ 64088044     LIBCMT:undname.obj
 0002:00003050       ??_C@_04EENFHACM@?0?4?4?4?$AA@ 64088050     LIBCMT:undname.obj
 0002:00003058       ??_C@_07HDJPLPEK@?5throw?$CI?$AA@ 64088058     LIBCMT:undname.obj
 0002:00003060       ??_C@_02GOGNNPBN@?$CJ?$FL?$AA@ 64088060     LIBCMT:undname.obj
 0002:00003064       ??_C@_02MDINNEEG@s?5?$AA@  64088064     LIBCMT:undname.obj
 0002:00003068       ??_C@_01GEODFPGF@?8?$AA@   64088068     LIBCMT:undname.obj
 0002:0000306c       ??_C@_0BE@EODMJLIF@?$GAtemplate?9parameter?$AA@ 6408806c     LIBCMT:undname.obj
 0002:00003080       ??_C@_04HIBGFPH@NULL?$AA@  64088080     LIBCMT:undname.obj
 0002:00003088       ??_C@_0O@GKABPPIF@cli?3?3pin_ptr?$DM?$AA@ 64088088     LIBCMT:undname.obj
 0002:00003098       ??_C@_0M@EALIELKG@cli?3?3array?$DM?$AA@ 64088098     LIBCMT:undname.obj
 0002:000030a4       ??_C@_05BEFAKPML@void?5?$AA@ 640880a4     LIBCMT:undname.obj
 0002:000030ac       ??_C@_02OHHJMEON@?8?8?$AA@ 640880ac     LIBCMT:undname.obj
 0002:000030b0       ??_C@_0BG@JNJLAMPM@?$GAanonymous?5namespace?8?$AA@ 640880b0     LIBCMT:undname.obj
 0002:000030c8       ??_C@_01NLNLIGKH@?$GA?$AA@ 640880c8     LIBCMT:undname.obj
 0002:000030cc       ??_C@_0O@KHGCOMHP@generic?9type?9?$AA@ 640880cc     LIBCMT:undname.obj
 0002:000030dc       ??_C@_0BE@JAEOCHPE@template?9parameter?9?$AA@ 640880dc     LIBCMT:undname.obj
 0002:000030f0       ??_C@_02MOLJINC@?3?3?$AA@  640880f0     LIBCMT:undname.obj
 0002:000030f4       ??_C@_0P@GCIFDJCJ@?$GAunknown?5ecsu?8?$AA@ 640880f4     LIBCMT:undname.obj
 0002:00003104       ??_C@_06MOJHIBMG@union?5?$AA@ 64088104     LIBCMT:undname.obj
 0002:0000310c       ??_C@_07DIBCDNGL@struct?5?$AA@ 6408810c     LIBCMT:undname.obj
 0002:00003114       ??_C@_06LJBABKPM@class?5?$AA@ 64088114     LIBCMT:undname.obj
 0002:0000311c       ??_C@_05LJGMCFOG@enum?5?$AA@ 6408811c     LIBCMT:undname.obj
 0002:00003124       ??_C@_08KOFANOFK@coclass?5?$AA@ 64088124     LIBCMT:undname.obj
 0002:00003130       ??_C@_0N@DLIEFKNA@cointerface?5?$AA@ 64088130     LIBCMT:undname.obj
 0002:00003140       ??_C@_02KCKGHPCA@?$CJ?5?$AA@ 64088140     LIBCMT:undname.obj
 0002:00003144       ??_C@_0M@DHNBOJMP@extern?5?$CCC?$CC?5?$AA@ 64088144     LIBCMT:undname.obj
 0002:00003150       ??_C@_08KJLFOPNE@?$FLthunk?$FN?3?$AA@ 64088150     LIBCMT:undname.obj
 0002:0000315c       ??_C@_08GPDDCMKI@public?3?5?$AA@ 6408815c     LIBCMT:undname.obj
 0002:00003168       ??_C@_0M@GAIFPFIP@protected?3?5?$AA@ 64088168     LIBCMT:undname.obj
 0002:00003174       ??_C@_09LAPHOOG@private?3?5?$AA@ 64088174     LIBCMT:undname.obj
 0002:00003180       ??_C@_08NIEOINHE@virtual?5?$AA@ 64088180     LIBCMT:undname.obj
 0002:0000318c       ??_C@_07PGOEDBHP@static?5?$AA@ 6408818c     LIBCMT:undname.obj
 0002:00003194       ??_C@_0DA@HGFJFBBE@?$GAtemplate?5static?5data?5member?5des@ 64088194     LIBCMT:undname.obj
 0002:000031c4       ??_C@_0DB@ILEFOCIJ@?$GAtemplate?5static?5data?5member?5con@ 640881c4     LIBCMT:undname.obj
 0002:000031f8       ??_C@_0CB@KJDOOODE@?$GAlocal?5static?5destructor?5helper?8@ 640881f8     LIBCMT:undname.obj
 0002:0000321c       ??_C@_0L@HNGCOGAE@?$GAadjustor?$HL?$AA@ 6408821c     LIBCMT:undname.obj
 0002:00003228       ??_C@_0L@GHPFDFH@?$GAvtordisp?$HL?$AA@ 64088228     LIBCMT:undname.obj
 0002:00003234       ??_C@_0N@CBHHHENL@?$GAvtordispex?$HL?$AA@ 64088234     LIBCMT:undname.obj
 0002:00003244       ??_C@_01CLKCMJKC@?5?$AA@   64088244     LIBCMT:undname.obj
 0002:00003248       ??_C@_02IGFCGPIL@?$HN?8?$AA@ 64088248     LIBCMT:undname.obj
 0002:0000324c       ??_C@_03OPGICMGF@?$HN?8?5?$AA@ 6408824c     LIBCMT:undname.obj
 0002:00003250       ??_C@_06LIJLOJAG@const?5?$AA@ 64088250     LIBCMT:undname.obj
 0002:00003258       ??_C@_09GAIEOBLP@volatile?5?$AA@ 64088258     LIBCMT:undname.obj
 0002:00003264       ??_C@_04HEJADOOB@CV?3?5?$AA@ 64088264     LIBCMT:undname.obj
 0002:0000326c       ??_C@_08PABEKFH@volatile?$AA@ 6408826c     LIBCMT:undname.obj
 0002:00003278       ??_C@_09EFNPDFFP@?5volatile?$AA@ 64088278     LIBCMT:undname.obj
 0002:00003284       ??_C@_05BNCCCJPP@const?$AA@ 64088284     LIBCMT:undname.obj
 0002:0000328c       ??_C@_07EDHNAJHC@signed?5?$AA@ 6408828c     LIBCMT:undname.obj
 0002:00003294       ??_C@_06BNJCAIGJ@double?$AA@ 64088294     LIBCMT:undname.obj
 0002:0000329c       ??_C@_04DDKJGDCM@bool?$AA@ 6408829c     LIBCMT:undname.obj
 0002:000032a4       ??_C@_09EEKGDCPH@?$DMunknown?$DO?$AA@ 640882a4     LIBCMT:undname.obj
 0002:000032b0       ??_C@_07CLGGIAMF@wchar_t?$AA@ 640882b0     LIBCMT:undname.obj
 0002:000032b8       ??_C@_07NFANNNEC@UNKNOWN?$AA@ 640882b8     LIBCMT:undname.obj
 0002:000032c0       ??_C@_08GAHOLHEO@__int128?$AA@ 640882c0     LIBCMT:undname.obj
 0002:000032cc       ??_C@_07OFLPPHGP@__int32?$AA@ 640882cc     LIBCMT:undname.obj
 0002:000032d4       ??_C@_07LFCOJCAC@__int64?$AA@ 640882d4     LIBCMT:undname.obj
 0002:000032dc       ??_C@_07ICFHOGAF@__int16?$AA@ 640882dc     LIBCMT:undname.obj
 0002:000032e4       ??_C@_06GCICPBLB@__w64?5?$AA@ 640882e4     LIBCMT:undname.obj
 0002:000032ec       ??_C@_06EBGKOKIG@__int8?$AA@ 640882ec     LIBCMT:undname.obj
 0002:000032f4       ??_C@_05KNFBNCOH@float?$AA@ 640882f4     LIBCMT:undname.obj
 0002:000032fc       ??_C@_04GOKPGOLB@long?$AA@ 640882fc     LIBCMT:undname.obj
 0002:00003304       ??_C@_03JBIPMCLC@int?$AA@  64088304     LIBCMT:undname.obj
 0002:00003308       ??_C@_05BFKKPKCG@short?$AA@ 64088308     LIBCMT:undname.obj
 0002:00003310       ??_C@_04ENMBGAPA@char?$AA@ 64088310     LIBCMT:undname.obj
 0002:00003318       ??_C@_0P@GCOCNKDM@std?3?3nullptr_t?$AA@ 64088318     LIBCMT:undname.obj
 0002:00003328       ??_C@_0BI@DFKBFLJE@GetProcessWindowStation?$AA@ 64088328     LIBCMT:crtmboxw.obj
 0002:00003340       ??_C@_0BK@DEKFELLI@GetUserObjectInformationW?$AA@ 64088340     LIBCMT:crtmboxw.obj
 0002:0000335c       ??_C@_0BD@HHGDFDBJ@GetLastActivePopup?$AA@ 6408835c     LIBCMT:crtmboxw.obj
 0002:00003370       ??_C@_0BA@HNOPNCHB@GetActiveWindow?$AA@ 64088370     LIBCMT:crtmboxw.obj
 0002:00003380       ??_C@_0M@DLDCCGNP@MessageBoxW?$AA@ 64088380     LIBCMT:crtmboxw.obj
 0002:0000338c       ??_C@_1BG@GOEBHBDC@?$AAU?$AAS?$AAE?$AAR?$AA3?$AA2?$AA?4?$AAD?$AAL?$AAL?$AA?$AA@ 6408838c     LIBCMT:crtmboxw.obj
 0002:000033a8       ___lookuptable_s           640883a8     LIBCMT:outputs.obj
 0002:00003404       ??_C@_1BA@BALFACEM@?$AAC?$AAO?$AAN?$AAO?$AAU?$AAT?$AA$?$AA?$AA@ 64088404     LIBCMT:initcon.obj
 0002:00003414       ??_C@_1BI@JEMGCCOA@?$AA7?$AAz?$AAS?$AA2?$AAc?$AAo?$AAn?$AA?4?$AAs?$AAf?$AAx?$AA?$AA@ 64088414     archive.obj
 0002:0000342c       ??_C@_1BC@IBOPFADC@?$AA7?$AAz?$AAS?$AA2?$AA?4?$AAs?$AAf?$AAx?$AA?$AA@ 6408842c     archive.obj
 0002:00003440       ??_C@_1BC@EKJIHECG@?$AA7?$AAz?$AAS?$AAD?$AA?4?$AAs?$AAf?$AAx?$AA?$AA@ 64088440     archive.obj
 0002:00003454       ??_C@_1BA@GPHFCJDK@?$AA7?$AAz?$AAS?$AA?4?$AAs?$AAf?$AAx?$AA?$AA@ 64088454     archive.obj
 0002:00003464       ??_C@_1BE@CPEIGPON@?$AA7?$AAz?$AAC?$AAo?$AAn?$AA?4?$AAs?$AAf?$AAx?$AA?$AA@ 64088464     archive.obj
 0002:00003478       ??_C@_1O@CNEPMAPN@?$AA7?$AAz?$AA?4?$AAs?$AAf?$AAx?$AA?$AA@ 64088478     archive.obj
 0002:00003488       ??_C@_19IEMBGPPO@?$AA?4?$AA0?$AA0?$AA1?$AA?$AA@ 64088488     archive.obj
 0002:00003494       ??_C@_19DOGDICKI@?$AA?4?$AAe?$AAx?$AAe?$AA?$AA@ 64088494     archive.obj
 0002:000034a0       ??_C@_19FHPHDENP@?$AAP?$AAP?$AAM?$AAD?$AA?$AA@ 640884a0     archive.obj
 0002:000034ac       ??_C@_1M@DDMLOLLP@?$AAL?$AAZ?$AAM?$AAA?$AA2?$AA?$AA@ 640884ac     archive.obj
 0002:000034b8       ??_C@_19MMHLLJED@?$AAL?$AAZ?$AAM?$AAA?$AA?$AA@ 640884b8     archive.obj
 0002:000034c4       ??_C@_19HNCGHLOK@?$AAC?$AAo?$AAp?$AAy?$AA?$AA@ 640884c4     archive.obj
 0002:000034d0       ??_C@_0CE@EBEMHOLO@c?3?2src?2plugins?2arclite?2comutils?4@ 640884d0     archive.obj
 0002:00003620       ?c_min_volume_size@@3_KB   64088620     archive.obj
 0002:00003670       ??_C@_13JOFGPIOO@?$AA?4?$AA?$AA@ 64088670     archive.obj
 0002:00003674       ??_C@_13PAHNCFBL@?$CB?$JC?$AA?$AA@ 64088674     archive.obj
 0002:00003678       ??_C@_0N@DLJIDING@CreateObject?$AA@ 64088678     archive.obj
 0002:00003688       ??_C@_0BD@HEPKNIHJ@GetNumberOfMethods?$AA@ 64088688     archive.obj
 0002:0000369c       ??_C@_0BC@OJPJFIMA@GetMethodProperty?$AA@ 6408869c     archive.obj
 0002:000036b0       ??_C@_0BD@GPKACDEP@GetNumberOfFormats?$AA@ 640886b0     archive.obj
 0002:000036c4       ??_C@_0BD@DAJFLGDO@GetHandlerProperty?$AA@ 640886c4     archive.obj
 0002:000036d8       ??_C@_0BE@CMCBNMGM@GetHandlerProperty2?$AA@ 640886d8     archive.obj
 0002:000036ec       ??_C@_13OHNMPHJM@?$AA?$FN?$AA?$AA@ 640886ec     archive.obj
 0002:000036f0       ??_C@_15FFJNNDMJ@?$AA?5?$AA?$FL?$AA?$AA@ 640886f0     archive.obj
 0002:000036f8       ??_C@_02DIKIINKA@MZ?$AA@   640886f8     archive.obj
 0002:000036fc       ??_C@_1M@HNNPBALB@?$AA?$CK?$AA?4?$AAd?$AAl?$AAl?$AA?$AA@ 640886fc     archive.obj
 0002:00003708       ??_C@_1M@HFEBMLCN@?$AA?$CK?$AA?4?$AAs?$AAf?$AAx?$AA?$AA@ 64088708     archive.obj
 0002:00003714       ??_C@_1BO@CHFBIDJD@?$AAS?$AAo?$AAf?$AAt?$AAw?$AAa?$AAr?$AAe?$AA?2?$AA7?$AA?9?$AAZ?$AAi?$AAp?$AA?$AA@ 64088714     archive.obj
 0002:00003734       ??_C@_19NHABCBNP@?$AAP?$AAa?$AAt?$AAh?$AA?$AA@ 64088734     archive.obj
 0002:00003740       ??_C@_1O@CFNBBLGB@?$AA7?$AAz?$AA?4?$AAd?$AAl?$AAl?$AA?$AA@ 64088740     archive.obj
 0002:00003750       ??_C@_0M@HIHBHGEM@archive?4cpp?$AA@ 64088750     archive.obj
 0002:00003760       ??_C@_1GK@CKLFAJOB@?$AAS?$AAt?$AAr?$AAi?$AAn?$AAg?$AAF?$AAr?$AAo?$AAm?$AAG?$AAU?$AAI?$AAD?$AA2?$AA?$CI?$AAg?$AAu?$AAi?$AAd?$AA?0?$AA?5?$AAg?$AAu?$AAi?$AAd?$AA_?$AAs?$AAt?$AAr?$AA?0?$AA?5@ 64088760     archive.obj
 0002:000037cc       ??_C@_19LKKOIHJI@?$AA?4?$AAt?$AAm?$AAp?$AA?$AA@ 640887cc     archive.obj
 0002:000037d8       ??_C@_0BG@BBKNOMOH@invalid?5map?$DMK?0?5T?$DO?5key?$AA@ 640887d8     archive.obj
 0002:000037f0       ??_C@_0BD@OLBABOEK@vector?$DMT?$DO?5too?5long?$AA@ 640887f0     archive.obj
 0002:00003804       ??_C@_0BB@MOGOBHAF@list?$DMT?$DO?5too?5long?$AA@ 64088804     archive.obj
 0002:00003818       ??_C@_0BM@PAPJHAGI@invalid?5map?1set?$DMT?$DO?5iterator?$AA@ 64088818     archive.obj
 0002:00003834       ??_C@_0BE@JONHPENG@map?1set?$DMT?$DO?5too?5long?$AA@ 64088834     archive.obj
 0002:00003848       _IID_IInArchive            64088848     archive.obj
 0002:00003858       _IID_IOutArchive           64088858     archive.obj
 0002:00003868       ??_C@_0BI@CFPLBAOH@invalid?5string?5position?$AA@ 64088868     archive.obj
 0002:00003880       ??_C@_0BA@JFNIOLAK@string?5too?5long?$AA@ 64088880     archive.obj
 0002:00003890       _c_plugin_guid             64088890     plugin.obj
 0002:000038a0       _c_plugin_menu_guid        640888a0     plugin.obj
 0002:000038b0       _c_plugin_config_guid      640888b0     plugin.obj
 0002:000038c0       _c_password_dialog_guid    640888c0     plugin.obj
 0002:000038d0       _c_overwrite_dialog_guid   640888d0     plugin.obj
 0002:000038e0       _c_extract_dialog_guid     640888e0     plugin.obj
 0002:000038f0       _c_update_dialog_guid      640888f0     plugin.obj
 0002:00003900       _c_settings_dialog_guid    64088900     plugin.obj
 0002:00003910       _c_attr_dialog_guid        64088910     plugin.obj
 0002:00003920       _c_sfx_options_dialog_guid 64088920     plugin.obj
 0002:00003930       _c_delete_files_dialog_guid 64088930     plugin.obj
 0002:00003940       _c_overwrite_archive_dialog_guid 64088940     plugin.obj
 0002:00003950       _c_progress_dialog_guid    64088950     plugin.obj
 0002:00003960       _c_interrupt_dialog_guid   64088960     plugin.obj
 0002:00003970       _c_retry_ignore_dialog_guid 64088970     plugin.obj
 0002:00003980       _c_error_log_dialog_guid   64088980     plugin.obj
 0002:00003990       _c_delete_profile_dialog_guid 64088990     plugin.obj
 0002:000039a0       _c_test_ok_dialog_guid     640889a0     plugin.obj
 0002:000039b0       _c_extract_params_saved_dialog_guid 640889b0     plugin.obj
 0002:000039c0       _c_arc_path_eval_dialog_guid 640889c0     plugin.obj
 0002:000039d0       _c_error_dialog_guid       640889d0     plugin.obj
 0002:000039e0       _c_format_menu_guid        640889e0     plugin.obj
 0002:000039f0       _c_main_menu_guid          640889f0     plugin.obj
 0002:00003a00       _c_arccmd_menu_guid        64088a00     plugin.obj
 0002:00003a10       _c_create_dir_dialog_guid  64088a10     plugin.obj
 0002:00003a20       _c_save_profile_dialog_guid 64088a20     plugin.obj
 0002:00003a30       _c_generic_guid            64088a30     plugin.obj
 0002:00003a40       _c_update_params_saved_dialog_guid 64088a40     plugin.obj
 0002:00003a50       _c_multi_select_dialog_guid 64088a50     plugin.obj
 0002:00003a60       _c_format_library_info_dialog_guid 64088a60     plugin.obj
 0002:00003a70       ??_C@_0CB@GOJGAIND@c?3?2src?2plugins?2arclite?2error?4hpp@ 64088a70     plugin.obj
 0002:00003a94       ??_C@_02LMMGGCAJ@?3?5?$AA@ 64088a94     plugin.obj
 0002:00003a98       ??_C@_0L@MBOHGIBE@plugin?4cpp?$AA@ 64088a98     plugin.obj
 0002:00003aa4       ??_C@_13EBCNDICG@?$AA?3?$AA?$AA@ 64088aa4     plugin.obj
 0002:00003aa8       ??_C@_13FPGAJAPJ@?$AA?2?$AA?$AA@ 64088aa8     plugin.obj
 0002:00003aac       ??_C@_15DDHGOCBH@?$AA?4?$AA?4?$AA?$AA@ 64088aac     plugin.obj
 0002:00003ab4       ??_C@_13LBAGMAIH@?$AA?6?$AA?$AA@ 64088ab4     plugin.obj
 0002:00003ab8       ??_C@_1FE@OHPOHPOP@?$AAF?$AAa?$AAr?$AA?3?$AA?3?$AAg?$AAe?$AAt?$AA_?$AAp?$AAa?$AAn?$AAe?$AAl?$AA_?$AAi?$AAn?$AAf?$AAo?$AA?$CI?$AAh?$AA_?$AAp?$AAl?$AAu?$AAg?$AAi?$AAn?$AA?0?$AA?5?$AAp?$AAa@ 64088ab8     plugin.obj
 0002:00003b0c       ??_C@_1BA@EIJEHGCE@?$AAa?$AAr?$AAc?$AAl?$AAi?$AAt?$AAe?$AA?$AA@ 64088b0c     plugin.obj
 0002:00003b20       ??_C@_1FC@HPEFIKDA@?$AAA?$AAr?$AAc?$AAh?$AAi?$AAv?$AAe?$AA?5?$AAs?$AAu?$AAp?$AAp?$AAo?$AAr?$AAt?$AA?5?$AA?$CI?$AAb?$AAa?$AAs?$AAe?$AAd?$AA?5?$AAo?$AAn?$AA?5?$AA7?$AA?9?$AAZ?$AAi?$AAp?$AA?5@ 64088b20     plugin.obj
 0002:00003b74       ??_C@_1DE@BGKMIKPD@?$AAE?$AAu?$AAg?$AAe?$AAn?$AAe?$AA?5?$AAR?$AAo?$AAs?$AAh?$AAa?$AAl?$AA?5?$AA?$CG?$AA?5?$AAF?$AAa?$AAr?$AA?5?$AAG?$AAr?$AAo?$AAu?$AAp?$AA?$AA@ 64088b74     plugin.obj
 0002:00003ba8       ??_C@_1BC@ENICKDH@?$AAC?$AAo?$AAn?$AAt?$AAe?$AAn?$AAt?$AAs?$AA?$AA@ 64088ba8     plugin.obj
 0002:00003bbc       ??_C@_1BC@MJOLNDOP@?$AAC?$AAt?$AAr?$AAl?$AAP?$AAg?$AAD?$AAn?$AA?$AA@ 64088bbc     plugin.obj
 0002:00003bd0       ??_C@_1O@GBAEOCCH@?$AAP?$AAr?$AAe?$AAf?$AAi?$AAx?$AA?$AA@ 64088bd0     plugin.obj
 0002:00003be4       ??_7PluginPanelItems@?1??get_files@Plugin@@QAEXPBUPluginPanelItem@@HHPAPB_W_K@Z@6B@ 64088be4     plugin.obj
 0002:00003bf0       ??_7PluginPanelItems@?1??extract@Plugin@@QAEXXZ@6B@ 64088bf0     plugin.obj
 0002:00003bfc       ??_7?$_Ref_count@VArchive@@@tr1@std@@6B@ 64088bfc     plugin.obj
 0002:00003c10       ??_7?$_Ref_count@V?$list@UError@@V?$allocator@UError@@@std@@@std@@@tr1@std@@6B@ 64088c10     plugin.obj
 0002:00003c24       ??_7?$_Ref_count_del@XV<lambda11>@?A0xc5e9a1c5@@@tr1@std@@6B@ 64088c24     plugin.obj
 0002:00003c34       ??_C@_0BC@MOGJFHKK@tr1?3?3bad_weak_ptr?$AA@ 64088c34     plugin.obj
 0002:00003c4c       ??_7bad_weak_ptr@tr1@std@@6B@ 64088c4c     plugin.obj
 0002:00003c58       ??_7_Ref_count_base@tr1@std@@6B@ 64088c58     plugin.obj
 0002:00003c68       ??_C@_11LOCGONAA@?$AA?$AA@ 64088c68     ui.obj
 0002:00003c6c       ??_C@_17DMMFPNIF@?$AA?$CF?$AA?$HN?$AA?5?$AA?$AA@ 64088c6c     ui.obj
 0002:00003c74       ??_C@_13GCIFAHHO@?$AA?$HL?$AA?$AA@ 64088c74     ui.obj
 0002:00003c78       ??_C@_15FOBPOKEL@?$AA?$FN?$AA?5?$AA?$AA@ 64088c78     ui.obj
 0002:00003c80       ??_C@_13MCLHKIEA@?$AA?$FL?$AA?$AA@ 64088c80     ui.obj
 0002:00003c84       ??_C@_06NPJEFJLB@ui?4cpp?$AA@ 64088c84     ui.obj
 0002:00003c8c       ??_C@_13NEIAEHFG@?$AA?$CC?$AA?$AA@ 64088c8c     ui.obj
 0002:00003c90       ??_C@_1BA@DNNJDHAB@?$AAE?$AAx?$AAt?$AAr?$AAa?$AAc?$AAt?$AA?$AA@ 64088c90     ui.obj
 0002:00003ca0       ??_C@_1CI@GPLIDJDI@?$AAa?$AAr?$AAc?$AAl?$AAi?$AAt?$AAe?$AA?4?$AAe?$AAx?$AAt?$AAr?$AAa?$AAc?$AAt?$AA_?$AAd?$AAi?$AAr?$AA?$AA@ 64088ca0     ui.obj
 0002:00003cc8       ??_C@_1GG@OEEJHDBB@?$AAs?$AAe?$AAn?$AAd?$AA_?$AAm?$AAe?$AAs?$AAs?$AAa?$AAg?$AAe?$AA?$CI?$AAD?$AAM?$AA_?$AAL?$AAI?$AAS?$AAT?$AAG?$AAE?$AAT?$AAI?$AAT?$AAE?$AAM?$AA?0?$AA?5?$AAl?$AAe?$AAv@ 64088cc8     ui.obj
 0002:00003d30       ??_C@_1GC@PIGILAGB@?$AAs?$AAe?$AAn?$AAd?$AA_?$AAm?$AAe?$AAs?$AAs?$AAa?$AAg?$AAe?$AA?$CI?$AAD?$AAM?$AA_?$AAL?$AAI?$AAS?$AAT?$AAU?$AAP?$AAD?$AAA?$AAT?$AAE?$AA?0?$AA?5?$AAl?$AAe?$AAv?$AAe@ 64088d30     ui.obj
 0002:00003d94       ??_C@_1O@PBKAOOPF@?$AAU?$AAp?$AAd?$AAa?$AAt?$AAe?$AA?$AA@ 64088d94     ui.obj
 0002:00003da4       ??_C@_1CC@JHNGBHPE@?$AAa?$AAr?$AAc?$AAl?$AAi?$AAt?$AAe?$AA?4?$AAa?$AAr?$AAc?$AA_?$AAp?$AAa?$AAt?$AAh?$AA?$AA@ 64088da4     ui.obj
 0002:00003dc8       ??_C@_1CC@MEHHCPDF@?$AAa?$AAr?$AAc?$AAl?$AAi?$AAt?$AAe?$AA?4?$AAa?$AAd?$AAv?$AAa?$AAn?$AAc?$AAe?$AAd?$AA?$AA@ 64088dc8     ui.obj
 0002:00003dec       ??_C@_1CI@KIHLOCML@?$AAa?$AAr?$AAc?$AAl?$AAi?$AAt?$AAe?$AA?4?$AAv?$AAo?$AAl?$AAu?$AAm?$AAe?$AA_?$AAs?$AAi?$AAz?$AAe?$AA?$AA@ 64088dec     ui.obj
 0002:00003e14       ??_C@_1DM@DOHHEJNC@?$AAi?$AAt?$AAe?$AAm?$AA_?$AAc?$AAo?$AAl?$AAo?$AAr?$AAs?$AA?9?$AA?$DO?$AAC?$AAo?$AAl?$AAo?$AAr?$AAs?$AAC?$AAo?$AAu?$AAn?$AAt?$AA?5?$AA?$DN?$AA?$DN?$AA?5?$AA4?$AA?$AA@ 64088e14     ui.obj
 0002:00003e50       ??_C@_13DEFPDAGF@?$AA?0?$AA?$AA@ 64088e50     ui.obj
 0002:00003e54       ??_C@_15KIOHKAAB@?$AA?$CK?$AA?4?$AA?$AA@ 64088e54     ui.obj
 0002:00003e5c       ??_C@_1O@BJPKKLLM@?$AAC?$AAo?$AAn?$AAf?$AAi?$AAg?$AA?$AA@ 64088e5c     ui.obj
 0002:00003e6c       ??_C@_02EAOCLKAK@ld?$AA@   64088e6c     ui.obj
 0002:00003e70       ??_C@_02BDDLJJBK@lu?$AA@   64088e70     ui.obj
 0002:00003e74       ??_C@_02HIKPPMOK@Ld?$AA@   64088e74     ui.obj
 0002:00003e78       ??_C@_02CLHGNPPK@Lu?$AA@   64088e78     ui.obj
 0002:00003e7c       ??_C@_02BBAHNLBA@?$CFp?$AA@ 64088e7c     ui.obj
 0002:00003e80       ??_C@_01DDCIFGEA@E?$AA@    64088e80     ui.obj
 0002:00003e84       ??_C@_01KGKMHCOC@e?$AA@    64088e84     ui.obj
 0002:00003e86       ??_C@_00CNPNBAHC@?$AA@     64088e86     ui.obj
 0002:00003e8c       ??_7?$basic_stringbuf@_WU?$char_traits@_W@std@@V?$allocator@_W@2@@std@@6B@ 64088e8c     ui.obj
 0002:00003ecc       ??_7?$basic_ostringstream@_WU?$char_traits@_W@std@@V?$allocator@_W@2@@std@@6B@ 64088ecc     ui.obj
 0002:00003ed0       ??_8?$basic_ostringstream@_WU?$char_traits@_W@std@@V?$allocator@_W@2@@std@@7B@ 64088ed0     ui.obj
 0002:00003edc       ??_7?$num_put@_WV?$ostreambuf_iterator@_WU?$char_traits@_W@std@@@std@@@std@@6B@ 64088edc     ui.obj
 0002:00003f04       ??_7ProgressMonitor@@6B@   64088f04     ui.obj
 0002:00003f10       ??_7PasswordDialog@@6B@    64088f10     ui.obj
 0002:00003f18       ??_7OverwriteDialog@@6B@   64088f18     ui.obj
 0002:00003f20       ??_7ExtractDialog@@6B@     64088f20     ui.obj
 0002:00003f28       ??_7UpdateDialog@@6B@      64088f28     ui.obj
 0002:00003f30       ??_7MultiSelectDialog@@6B@ 64088f30     ui.obj
 0002:00003f38       ??_7FormatLibraryInfoDialog@@6B@ 64088f38     ui.obj
 0002:00003f40       ??_7SettingsDialog@@6B@    64088f40     ui.obj
 0002:00003f48       ??_7AttrDialog@@6B@        64088f48     ui.obj
 0002:00003f50       ??_7?$numpunct@_W@std@@6B@ 64088f50     ui.obj
 0002:00003f6c       ??_7?$_Ref_count@VFileFilter@Far@@@tr1@std@@6B@ 64088f6c     ui.obj
 0002:00003f7c       ??_C@_0BA@ELKIONDK@bad?5locale?5name?$AA@ 64088f7c     ui.obj
 0002:00003f8c       ??_C@_05LAPONLG@false?$AA@ 64088f8c     ui.obj
 0002:00003f94       ??_C@_04LOAJBDKD@true?$AA@ 64088f94     ui.obj
 0002:00003f9c       ??_C@_0BF@PHHKMMFD@ios_base?3?3badbit?5set?$AA@ 64088f9c     ui.obj
 0002:00003fb4       ??_C@_0BG@FMKFHCIL@ios_base?3?3failbit?5set?$AA@ 64088fb4     ui.obj
 0002:00003fcc       ??_C@_0BF@OOHOMBOF@ios_base?3?3eofbit?5set?$AA@ 64088fcc     ui.obj
 0002:00003fe4       ??_C@_08EPJLHIJG@bad?5cast?$AA@ 64088fe4     ui.obj
 0002:00003ff4       ??_7ios_base@std@@6B@      64088ff4     ui.obj
 0002:00003ffc       ??_7?$basic_ios@_WU?$char_traits@_W@std@@@std@@6B@ 64088ffc     ui.obj
 0002:00004004       ??_7?$basic_streambuf@_WU?$char_traits@_W@std@@@std@@6B@ 64089004     ui.obj
 0002:00004044       ??_7?$basic_ostream@_WU?$char_traits@_W@std@@@std@@6B@ 64089044     ui.obj
 0002:0000404c       ??_7?$ctype@_W@std@@6B@    6408904c     ui.obj
 0002:00004084       ??_7system_error@std@@6B@  64089084     ui.obj
 0002:00004090       ??_7failure@ios_base@std@@6B@ 64089090     ui.obj
 0002:00004098       ??_C@_15OKNMGNJN@?$AA?$AB?$AA?6?$AA?$AA@ 64089098     extract.obj
 0002:000040a0       ??_C@_17MMMBOHJC@?$AA?5?$AA?$EA?$AA?5?$AA?$AA@ 640890a0     extract.obj
 0002:000040a8       ??_C@_17DFGDFKBN@?$AA?5?$AA?1?$AA?5?$AA?$AA@ 640890a8     extract.obj
 0002:000040b0       ??_C@_19IDMFBI@?$AA?$CJ?$AA?5?$AA?1?$AA?5?$AA?$AA@ 640890b0     extract.obj
 0002:000040bc       ??_C@_17HIKLPLBG@?$AA?5?$AA?9?$AA?5?$AA?$AA@ 640890bc     extract.obj
 0002:000040c4       ??_C@_13LLDNKHDC@?$AA?$CI?$AA?$AA@ 640890c4     extract.obj
 0002:000040c8       ??_C@_0M@ELMNDOCL@extract?4cpp?$AA@ 640890c8     extract.obj
 0002:000040d8       ??_7IArchiveExtractCallback@@6B@ 640890d8     extract.obj
 0002:000040fc       ??_7ICryptoGetTextPassword@@6B@ 640890fc     extract.obj
 0002:00004110       ??_7ComBase@@6B@           64089110     extract.obj
 0002:00004124       ??_7ExtractProgress@@6B@   64089124     extract.obj
 0002:00004130       ??_7CachedFileExtractStream@@6BISequentialOutStream@@@ 64089130     extract.obj
 0002:00004144       ??_7CachedFileExtractStream@@6BComBase@@@ 64089144     extract.obj
 0002:00004158       ??_7ArchiveExtractor@@6BIArchiveExtractCallback@@@ 64089158     extract.obj
 0002:0000417c       ??_7ArchiveExtractor@@6BICryptoGetTextPassword@@@ 6408917c     extract.obj
 0002:00004190       ??_7ArchiveExtractor@@6BComBase@@@ 64089190     extract.obj
 0002:000041a4       ??_7PrepareExtract@@6B@    640891a4     extract.obj
 0002:000041b0       ??_7SetDirAttr@@6B@        640891b0     extract.obj
 0002:000041bc       ??_7?$_Ref_count@_N@tr1@std@@6B@ 640891bc     extract.obj
 0002:000041d0       ??_7?$_Ref_count@W4OverwriteAction@@@tr1@std@@6B@ 640891d0     extract.obj
 0002:000041e4       ??_7?$_Ref_count@VExtractProgress@@@tr1@std@@6B@ 640891e4     extract.obj
 0002:000041f8       ??_7?$_Ref_count@VFileWriteCache@@@tr1@std@@6B@ 640891f8     extract.obj
 0002:0000420c       ??_7?$_Ref_count@V?$set@IU?$less@I@std@@V?$allocator@I@2@@std@@@tr1@std@@6B@ 6408920c     extract.obj
 0002:0000421c       _IID_IProgress             6408921c     extract.obj
 0002:0000422c       _IID_ISequentialOutStream  6408922c     extract.obj
 0002:0000423c       _IID_IArchiveExtractCallback 6408923c     extract.obj
 0002:0000424c       _IID_ICryptoGetTextPassword 6408924c     extract.obj
 0002:0000425c       ??_C@_08PBKAOBPC@open?4cpp?$AA@ 6408925c     open.obj
 0002:00004268       ??_C@_1DC@IJGGMPKB@?$AAg?$AAe?$AAt?$AA_?$AAm?$AAa?$AAi?$AAn?$AA_?$AAf?$AAi?$AAl?$AAe?$AA?$CI?$AAm?$AAa?$AAi?$AAn?$AA_?$AAf?$AAi?$AAl?$AAe?$AA?$CJ?$AA?$AA@ 64089268     open.obj
 0002:000042a0       ??_C@_1FA@KJKBGIDM@?$AAg?$AAe?$AAt?$AA_?$AAs?$AAt?$AAr?$AAe?$AAa?$AAm?$AA?$CI?$AAm?$AAa?$AAi?$AAn?$AA_?$AAf?$AAi?$AAl?$AAe?$AA?0?$AA?5?$AAs?$AAu?$AAb?$AA_?$AAs?$AAt?$AAr?$AAe?$AAa?$AAm@ 640892a0     open.obj
 0002:000042f0       ??_C@_1EE@OOLOIHM@?$AAo?$AAp?$AAe?$AAn?$AA?$CI?$AAs?$AAu?$AAb?$AA_?$AAs?$AAt?$AAr?$AAe?$AAa?$AAm?$AA?0?$AA?5?$AAa?$AAr?$AAc?$AA_?$AAe?$AAn?$AAt?$AAr?$AAy?$AA?9?$AA?$DO?$AAt?$AAy?$AAp?$AAe@ 640892f0     open.obj
 0002:00004338       ??_7IArchiveOpenCallback@@6B@ 64089338     open.obj
 0002:00004350       ??_7IArchiveOpenVolumeCallback@@6B@ 64089350     open.obj
 0002:00004368       ??_7ArchiveOpenStream@@6BIInStream@@@ 64089368     open.obj
 0002:00004380       ??_7ArchiveOpenStream@@6BComBase@@@ 64089380     open.obj
 0002:00004394       ??_7ArchiveOpener@@6BIArchiveOpenCallback@@@ 64089394     open.obj
 0002:000043ac       ??_7ArchiveOpener@@6BIArchiveOpenVolumeCallback@@@ 640893ac     open.obj
 0002:000043c4       ??_7ArchiveOpener@@6BICryptoGetTextPassword@@@ 640893c4     open.obj
 0002:000043d8       ??_7ArchiveOpener@@6BComBase@@@ 640893d8     open.obj
 0002:000043ec       ??_7ArchiveOpener@@6BProgressMonitor@@@ 640893ec     open.obj
 0002:000043f4       _IID_ISequentialInStream   640893f4     open.obj
 0002:00004404       _IID_IInStream             64089404     open.obj
 0002:00004414       _IID_IArchiveOpenCallback  64089414     open.obj
 0002:00004424       _IID_IArchiveOpenVolumeCallback 64089424     open.obj
 0002:00004434       _IID_IInArchiveGetStream   64089434     open.obj
 0002:00004444       ??_C@_15BLMJCMIJ@?$AA?5?$AA?9?$AA?$AA@ 64089444     update.obj
 0002:0000444c       ??_C@_13EJFHHPOP@?$AA?$CF?$AA?$AA@ 6408944c     update.obj
 0002:00004450       ??_C@_17HLHNPJIN@?$AA?5?$AA?$DN?$AA?5?$AA?$AA@ 64089450     update.obj
 0002:00004458       ??_C@_17GPJGFMAC@?$AA?5?$CB?$JC?$AA?5?$AA?$AA@ 64089458     update.obj
 0002:00004460       ??_C@_0L@JMDIPHEI@update?4cpp?$AA@ 64089460     update.obj
 0002:0000446c       ??_C@_1CA@ODCKIHEE@?$AAw?$AAr?$AAi?$AAt?$AAe?$AA_?$AAs?$AAi?$AAz?$AAe?$AA?5?$AA?$CB?$AA?$DN?$AA?5?$AA0?$AA?$AA@ 6408946c     update.obj
 0002:0000448c       ??_C@_13HADAKIJA@?$AAx?$AA?$AA@ 6408948c     update.obj
 0002:00004490       ??_C@_13COJANIEC@?$AA0?$AA?$AA@ 64089490     update.obj
 0002:00004494       ??_C@_19KOBNBBOM@?$AA0?$AAm?$AAe?$AAm?$AA?$AA@ 64089494     update.obj
 0002:000044a0       ??_C@_1BC@FIJNOCK@?$AA4?$AA1?$AA9?$AA4?$AA3?$AA0?$AA4?$AAB?$AA?$AA@ 640894a0     update.obj
 0002:000044b4       ??_C@_15CJACLOKE@?$AA0?$AAo?$AA?$AA@ 640894b4     update.obj
 0002:000044bc       ??_C@_1BE@HGPKAFDO@?$AA1?$AA6?$AA7?$AA7?$AA7?$AA2?$AA1?$AA6?$AAB?$AA?$AA@ 640894bc     update.obj
 0002:000044d0       ??_C@_1BE@GMALHBMC@?$AA6?$AA7?$AA1?$AA0?$AA8?$AA8?$AA6?$AA4?$AAB?$AA?$AA@ 640894d0     update.obj
 0002:000044e4       ??_C@_1BG@DLOICDCM@?$AA2?$AA0?$AA1?$AA3?$AA2?$AA6?$AA5?$AA9?$AA2?$AAB?$AA?$AA@ 640894e4     update.obj
 0002:000044fc       ??_C@_15POADDJKF@?$AA0?$AAd?$AA?$AA@ 640894fc     update.obj
 0002:00004504       ??_C@_1O@JHHMKBMK@?$AA6?$AA5?$AA5?$AA3?$AA6?$AAB?$AA?$AA@ 64089504     update.obj
 0002:00004514       ??_C@_17FAJCKACE@?$AA0?$AAf?$AAb?$AA?$AA@ 64089514     update.obj
 0002:0000451c       ??_C@_1BC@LHPIMLND@?$AA1?$AA0?$AA4?$AA8?$AA5?$AA7?$AA6?$AAB?$AA?$AA@ 6408951c     update.obj
 0002:00004530       ??_C@_1BE@JNDEBEEH@?$AA3?$AA3?$AA5?$AA5?$AA4?$AA4?$AA3?$AA2?$AAB?$AA?$AA@ 64089530     update.obj
 0002:00004544       ??_C@_13KHDBCPJB@?$AAs?$AA?$AA@ 64089544     update.obj
 0002:00004548       ??_C@_15KGGCNEFK@?$AAh?$AAe?$AA?$AA@ 64089548     update.obj
 0002:00004550       ??_C@_15BLPINJD@?$AAf?$AAb?$AA?$AA@ 64089550     update.obj
 0002:00004558       ??_C@_13GKPPEALH@?$AAd?$AA?$AA@ 64089558     update.obj
 0002:0000455c       ??_C@_1BA@MOECGKND@?$AA1?$AA0?$AA2?$AA4?$AA0?$AA0?$AAB?$AA?$AA@ 6408955c     update.obj
 0002:0000456c       ??_C@_1BA@IOJHGHFI@?$AA5?$AA1?$AA2?$AA0?$AA0?$AA0?$AAB?$AA?$AA@ 6408956c     update.obj
 0002:0000457c       ??_C@_1BA@CPFEDDPM@?$AA9?$AA2?$AA1?$AA6?$AA0?$AA0?$AAB?$AA?$AA@ 6408957c     update.obj
 0002:0000458c       ??_C@_1BE@GPMKPLPA@?$AA5?$AA0?$AA3?$AA3?$AA1?$AA6?$AA4?$AA8?$AAB?$AA?$AA@ 6408958c     update.obj
 0002:000045a4       ??_7ICryptoGetTextPassword2@@6B@ 640895a4     update.obj
 0002:000045b8       ??_7CriticalSection@@6B@   640895b8     update.obj
 0002:000045c0       ??_7ArchiveUpdateProgress@@6B@ 640895c0     update.obj
 0002:000045cc       ??_7UpdateStream@@6B@      640895cc     update.obj
 0002:000045f0       ??_7SimpleUpdateStream@@6BUpdateStream@@@ 640895f0     update.obj
 0002:00004614       ??_7SimpleUpdateStream@@6BComBase@@@ 64089614     update.obj
 0002:00004628       ??_7SfxUpdateStream@@6BUpdateStream@@@ 64089628     update.obj
 0002:0000464c       ??_7SfxUpdateStream@@6BComBase@@@ 6408964c     update.obj
 0002:00004660       ??_7MultiVolumeUpdateStream@@6BUpdateStream@@@ 64089660     update.obj
 0002:00004684       ??_7MultiVolumeUpdateStream@@6BComBase@@@ 64089684     update.obj
 0002:00004698       ??_7FileReadStream@@6BIInStream@@@ 64089698     update.obj
 0002:000046b0       ??_7FileReadStream@@6BComBase@@@ 640896b0     update.obj
 0002:000046c4       ??_7PrepareUpdate@@6B@     640896c4     update.obj
 0002:000046d0       ??_7ArchiveUpdater@@6BIArchiveUpdateCallback@@@ 640896d0     update.obj
 0002:000046f8       ??_7ArchiveUpdater@@6BICryptoGetTextPassword2@@@ 640896f8     update.obj
 0002:0000470c       ??_7ArchiveUpdater@@6BComBase@@@ 6408970c     update.obj
 0002:00004720       ??_7DeleteSrcFiles@@6B@    64089720     update.obj
 0002:0000472c       ??_7?$_Ref_count@V?$map@IUFileIndexInfo@@U?$less@I@std@@V?$allocator@U?$pair@$$CBIUFileIndexInfo@@@std@@@3@@std@@@tr1@std@@6B@ 6408972c     update.obj
 0002:00004740       ??_7?$_Ref_count@VArchiveUpdateProgress@@@tr1@std@@6B@ 64089740     update.obj
 0002:00004750       _IID_IOutStream            64089750     update.obj
 0002:00004760       _IID_IArchiveUpdateCallback 64089760     update.obj
 0002:00004770       _IID_ISetProperties        64089770     update.obj
 0002:00004780       _IID_ICryptoGetTextPassword2 64089780     update.obj
 0002:00004790       ??_C@_0L@NFFAKAN@delete?4cpp?$AA@ 64089790     delete.obj
 0002:000047a0       ??_7ArchiveFileDeleterProgress@@6B@ 640897a0     delete.obj
 0002:000047ac       ??_7ArchiveFileDeleterStream@@6BIOutStream@@@ 640897ac     delete.obj
 0002:000047c8       ??_7ArchiveFileDeleterStream@@6BComBase@@@ 640897c8     delete.obj
 0002:000047dc       ??_7ArchiveFileDeleter@@6BIArchiveUpdateCallback@@@ 640897dc     delete.obj
 0002:00004804       ??_7ArchiveFileDeleter@@6BComBase@@@ 64089804     delete.obj
 0002:00004818       ??_7?$_Ref_count@VArchiveFileDeleterProgress@@@tr1@std@@6B@ 64089818     delete.obj
 0002:00004828       ??_C@_1BC@JPGJMLGC@?$AAp?$AAr?$AAo?$AAf?$AAi?$AAl?$AAe?$AAs?$AA?$AA@ 64089828     options.obj
 0002:0000483c       ??_C@_17OJOFHEJE@?$AAa?$AAr?$AAc?$AA?$AA@ 6408983c     options.obj
 0002:00004844       ??_C@_15FDMACJLB@?$AA7?$AAz?$AA?$AA@ 64089844     options.obj
 0002:00004850       ??_C@_1CFE@ENHBJMFF@?$AA?$CK?$AA?4?$AAr?$AAa?$AAr?$AA?0?$AA?$CK?$AA?4?$AAz?$AAi?$AAp?$AA?0?$AA?$CK?$AA?4?$AA?$FL?$AAz?$AAj?$AA?$FN?$AA?0?$AA?$CK?$AA?4?$AA?$FL?$AAb?$AAg?$AA7?$AA?$FN?$AAz?$AA?0?$AA?$CK?$AA?4?$AA?$FL?$AAb@ 64089850     options.obj
 0002:00004aa4       ??_C@_1BC@JCBBLHDN@?$AAs?$AAf?$AAx?$AA?4?$AAn?$AAa?$AAm?$AAe?$AA?$AA@ 64089aa4     options.obj
 0002:00004ab8       ??_C@_1CC@HONLGMMG@?$AAs?$AAf?$AAx?$AA?4?$AAr?$AAe?$AAp?$AAl?$AAa?$AAc?$AAe?$AA_?$AAi?$AAc?$AAo?$AAn?$AA?$AA@ 64089ab8     options.obj
 0002:00004adc       ??_C@_1BM@JPIAFBBJ@?$AAs?$AAf?$AAx?$AA?4?$AAi?$AAc?$AAo?$AAn?$AA_?$AAp?$AAa?$AAt?$AAh?$AA?$AA@ 64089adc     options.obj
 0002:00004af8       ??_C@_1CI@JFOGOFA@?$AAs?$AAf?$AAx?$AA?4?$AAr?$AAe?$AAp?$AAl?$AAa?$AAc?$AAe?$AA_?$AAv?$AAe?$AAr?$AAs?$AAi?$AAo?$AAn?$AA?$AA@ 64089af8     options.obj
 0002:00004b20       ??_C@_1CK@ELAOMKDG@?$AAs?$AAf?$AAx?$AA?4?$AAv?$AAe?$AAr?$AA_?$AAi?$AAn?$AAf?$AAo?$AA?4?$AAv?$AAe?$AAr?$AAs?$AAi?$AAo?$AAn?$AA?$AA@ 64089b20     options.obj
 0002:00004b4c       ??_C@_1CM@BEBJAOOB@?$AAs?$AAf?$AAx?$AA?4?$AAv?$AAe?$AAr?$AA_?$AAi?$AAn?$AAf?$AAo?$AA?4?$AAc?$AAo?$AAm?$AAm?$AAe?$AAn?$AAt?$AAs?$AA?$AA@ 64089b4c     options.obj
 0002:00004b78       ??_C@_1DE@DCPPCPEM@?$AAs?$AAf?$AAx?$AA?4?$AAv?$AAe?$AAr?$AA_?$AAi?$AAn?$AAf?$AAo?$AA?4?$AAc?$AAo?$AAm?$AAp?$AAa?$AAn?$AAy?$AA_?$AAn?$AAa?$AAm?$AAe?$AA?$AA@ 64089b78     options.obj
 0002:00004bac       ??_C@_1DM@MFOMGNPE@?$AAs?$AAf?$AAx?$AA?4?$AAv?$AAe?$AAr?$AA_?$AAi?$AAn?$AAf?$AAo?$AA?4?$AAf?$AAi?$AAl?$AAe?$AA_?$AAd?$AAe?$AAs?$AAc?$AAr?$AAi?$AAp?$AAt?$AAi?$AAo?$AAn?$AA?$AA@ 64089bac     options.obj
 0002:00004be8       ??_C@_1DK@HPCOKLKF@?$AAs?$AAf?$AAx?$AA?4?$AAv?$AAe?$AAr?$AA_?$AAi?$AAn?$AAf?$AAo?$AA?4?$AAl?$AAe?$AAg?$AAa?$AAl?$AA_?$AAc?$AAo?$AAp?$AAy?$AAr?$AAi?$AAg?$AAh?$AAt?$AA?$AA@ 64089be8     options.obj
 0002:00004c24       ??_C@_1DE@DEHPBBNH@?$AAs?$AAf?$AAx?$AA?4?$AAv?$AAe?$AAr?$AA_?$AAi?$AAn?$AAf?$AAo?$AA?4?$AAp?$AAr?$AAo?$AAd?$AAu?$AAc?$AAt?$AA_?$AAn?$AAa?$AAm?$AAe?$AA?$AA@ 64089c24     options.obj
 0002:00004c58       ??_C@_1DE@CMPJDOC@?$AAs?$AAf?$AAx?$AA?4?$AAa?$AAp?$AAp?$AAe?$AAn?$AAd?$AA_?$AAi?$AAn?$AAs?$AAt?$AAa?$AAl?$AAl?$AA_?$AAc?$AAo?$AAn?$AAf?$AAi?$AAg?$AA?$AA@ 64089c58     options.obj
 0002:00004c8c       ??_C@_1DC@IBDCCCFH@?$AAs?$AAf?$AAx?$AA?4?$AAi?$AAn?$AAs?$AAt?$AAa?$AAl?$AAl?$AA_?$AAc?$AAo?$AAn?$AAf?$AAi?$AAg?$AA?4?$AAt?$AAi?$AAt?$AAl?$AAe?$AA?$AA@ 64089c8c     options.obj
 0002:00004cc0       ??_C@_1EA@FHBMGOJC@?$AAs?$AAf?$AAx?$AA?4?$AAi?$AAn?$AAs?$AAt?$AAa?$AAl?$AAl?$AA_?$AAc?$AAo?$AAn?$AAf?$AAi?$AAg?$AA?4?$AAb?$AAe?$AAg?$AAi?$AAn?$AA_?$AAp?$AAr?$AAo?$AAm?$AAp?$AAt?$AA?$AA@ 64089cc0     options.obj
 0002:00004d00       ??_C@_1DI@FGFGCAEP@?$AAs?$AAf?$AAx?$AA?4?$AAi?$AAn?$AAs?$AAt?$AAa?$AAl?$AAl?$AA_?$AAc?$AAo?$AAn?$AAf?$AAi?$AAg?$AA?4?$AAp?$AAr?$AAo?$AAg?$AAr?$AAe?$AAs?$AAs?$AA?$AA@ 64089d00     options.obj
 0002:00004d38       ??_C@_1DO@EDLAEBAA@?$AAs?$AAf?$AAx?$AA?4?$AAi?$AAn?$AAs?$AAt?$AAa?$AAl?$AAl?$AA_?$AAc?$AAo?$AAn?$AAf?$AAi?$AAg?$AA?4?$AAr?$AAu?$AAn?$AA_?$AAp?$AAr?$AAo?$AAg?$AAr?$AAa?$AAm?$AA?$AA@ 64089d38     options.obj
 0002:00004d78       ??_C@_1DK@JGHNKBKG@?$AAs?$AAf?$AAx?$AA?4?$AAi?$AAn?$AAs?$AAt?$AAa?$AAl?$AAl?$AA_?$AAc?$AAo?$AAn?$AAf?$AAi?$AAg?$AA?4?$AAd?$AAi?$AAr?$AAe?$AAc?$AAt?$AAo?$AAr?$AAy?$AA?$AA@ 64089d78     options.obj
 0002:00004db8       ??_C@_1EA@KNCOOEHK@?$AAs?$AAf?$AAx?$AA?4?$AAi?$AAn?$AAs?$AAt?$AAa?$AAl?$AAl?$AA_?$AAc?$AAo?$AAn?$AAf?$AAi?$AAg?$AA?4?$AAe?$AAx?$AAe?$AAc?$AAu?$AAt?$AAe?$AA_?$AAf?$AAi?$AAl?$AAe?$AA?$AA@ 64089db8     options.obj
 0002:00004df8       ??_C@_1EM@GLJDOHOC@?$AAs?$AAf?$AAx?$AA?4?$AAi?$AAn?$AAs?$AAt?$AAa?$AAl?$AAl?$AA_?$AAc?$AAo?$AAn?$AAf?$AAi?$AAg?$AA?4?$AAe?$AAx?$AAe?$AAc?$AAu?$AAt?$AAe?$AA_?$AAp?$AAa?$AAr?$AAa?$AAm@ 64089df8     options.obj
 0002:00004e44       ??_C@_1BM@BHABOEEP@?$AAh?$AAa?$AAn?$AAd?$AAl?$AAe?$AA_?$AAc?$AAr?$AAe?$AAa?$AAt?$AAe?$AA?$AA@ 64089e44     options.obj
 0002:00004e60       ??_C@_1CA@FIGILPCF@?$AAh?$AAa?$AAn?$AAd?$AAl?$AAe?$AA_?$AAc?$AAo?$AAm?$AAm?$AAa?$AAn?$AAd?$AAs?$AA?$AA@ 64089e60     options.obj
 0002:00004e80       ??_C@_1BM@IOCBKKLB@?$AAp?$AAl?$AAu?$AAg?$AAi?$AAn?$AA_?$AAp?$AAr?$AAe?$AAf?$AAi?$AAx?$AA?$AA@ 64089e80     options.obj
 0002:00004e9c       ??_C@_1BO@IEILHPMJ@?$AAm?$AAa?$AAx?$AA_?$AAc?$AAh?$AAe?$AAc?$AAk?$AA_?$AAs?$AAi?$AAz?$AAe?$AA?$AA@ 64089e9c     options.obj
 0002:00004ebc       ??_C@_1CM@CBFIHEKK@?$AAe?$AAx?$AAt?$AAr?$AAa?$AAc?$AAt?$AA_?$AAi?$AAg?$AAn?$AAo?$AAr?$AAe?$AA_?$AAe?$AAr?$AAr?$AAo?$AAr?$AAs?$AA?$AA@ 64089ebc     options.obj
 0002:00004ee8       ??_C@_1CE@HIFCNFIN@?$AAe?$AAx?$AAt?$AAr?$AAa?$AAc?$AAt?$AA_?$AAo?$AAv?$AAe?$AAr?$AAw?$AAr?$AAi?$AAt?$AAe?$AA?$AA@ 64089ee8     options.obj
 0002:00004f0c       ??_C@_1CK@CPALOIJF@?$AAe?$AAx?$AAt?$AAr?$AAa?$AAc?$AAt?$AA_?$AAs?$AAe?$AAp?$AAa?$AAr?$AAa?$AAt?$AAe?$AA_?$AAd?$AAi?$AAr?$AA?$AA@ 64089f0c     options.obj
 0002:00004f38       ??_C@_1CC@JIDFBFJI@?$AAe?$AAx?$AAt?$AAr?$AAa?$AAc?$AAt?$AA_?$AAo?$AAp?$AAe?$AAn?$AA_?$AAd?$AAi?$AAr?$AA?$AA@ 64089f38     options.obj
 0002:00004f5c       ??_C@_1CO@BOJMLONJ@?$AAu?$AAp?$AAd?$AAa?$AAt?$AAe?$AA_?$AAa?$AAr?$AAc?$AA_?$AAf?$AAo?$AAr?$AAm?$AAa?$AAt?$AA_?$AAn?$AAa?$AAm?$AAe?$AA?$AA@ 64089f5c     options.obj
 0002:00004f8c       ??_C@_1BK@CGJCKDIP@?$AAu?$AAp?$AAd?$AAa?$AAt?$AAe?$AA_?$AAl?$AAe?$AAv?$AAe?$AAl?$AA?$AA@ 64089f8c     options.obj
 0002:00004fa8       ??_C@_1BM@MDOLGGCE@?$AAu?$AAp?$AAd?$AAa?$AAt?$AAe?$AA_?$AAm?$AAe?$AAt?$AAh?$AAo?$AAd?$AA?$AA@ 64089fa8     options.obj
 0002:00004fc4       ??_C@_1BK@BADBIELM@?$AAu?$AAp?$AAd?$AAa?$AAt?$AAe?$AA_?$AAs?$AAo?$AAl?$AAi?$AAd?$AA?$AA@ 64089fc4     options.obj
 0002:00004fe0       ??_C@_1CK@BCFJMECK@?$AAu?$AAp?$AAd?$AAa?$AAt?$AAe?$AA_?$AAs?$AAh?$AAo?$AAw?$AA_?$AAp?$AAa?$AAs?$AAs?$AAw?$AAo?$AAr?$AAd?$AA?$AA@ 64089fe0     options.obj
 0002:0000500c       ??_C@_1CM@HPBKHKPI@?$AAu?$AAp?$AAd?$AAa?$AAt?$AAe?$AA_?$AAe?$AAn?$AAc?$AAr?$AAy?$AAp?$AAt?$AA_?$AAh?$AAe?$AAa?$AAd?$AAe?$AAr?$AA?$AA@ 6408a00c     options.obj
 0002:00005038       ??_C@_1CG@KICFKBBP@?$AAu?$AAp?$AAd?$AAa?$AAt?$AAe?$AA_?$AAv?$AAo?$AAl?$AAu?$AAm?$AAe?$AA_?$AAs?$AAi?$AAz?$AAe?$AA?$AA@ 6408a038     options.obj
 0002:00005060       ??_C@_1CK@ICOFBPBC@?$AAu?$AAp?$AAd?$AAa?$AAt?$AAe?$AA_?$AAi?$AAg?$AAn?$AAo?$AAr?$AAe?$AA_?$AAe?$AAr?$AAr?$AAo?$AAr?$AAs?$AA?$AA@ 6408a060     options.obj
 0002:0000508c       ??_C@_1CC@JJLCAMDI@?$AAu?$AAp?$AAd?$AAa?$AAt?$AAe?$AA_?$AAo?$AAv?$AAe?$AAr?$AAw?$AAr?$AAi?$AAt?$AAe?$AA?$AA@ 6408a08c     options.obj
 0002:000050b0       ??_C@_1CE@CFBHBNFH@?$AAu?$AAp?$AAd?$AAa?$AAt?$AAe?$AA_?$AAa?$AAp?$AAp?$AAe?$AAn?$AAd?$AA_?$AAe?$AAx?$AAt?$AA?$AA@ 6408a0b0     options.obj
 0002:000050d4       ??_C@_1CA@BMEGBAGO@?$AAp?$AAa?$AAn?$AAe?$AAl?$AA_?$AAv?$AAi?$AAe?$AAw?$AA_?$AAm?$AAo?$AAd?$AAe?$AA?$AA@ 6408a0d4     options.obj
 0002:000050f4       ??_C@_1CA@FOAPJPME@?$AAp?$AAa?$AAn?$AAe?$AAl?$AA_?$AAs?$AAo?$AAr?$AAt?$AA_?$AAm?$AAo?$AAd?$AAe?$AA?$AA@ 6408a0f4     options.obj
 0002:00005114       ??_C@_1CG@IMENIFAM@?$AAp?$AAa?$AAn?$AAe?$AAl?$AA_?$AAr?$AAe?$AAv?$AAe?$AAr?$AAs?$AAe?$AA_?$AAs?$AAo?$AAr?$AAt?$AA?$AA@ 6408a114     options.obj
 0002:0000513c       ??_C@_1CE@JGFBPPBK@?$AAu?$AAs?$AAe?$AA_?$AAi?$AAn?$AAc?$AAl?$AAu?$AAd?$AAe?$AA_?$AAm?$AAa?$AAs?$AAk?$AAs?$AA?$AA@ 6408a13c     options.obj
 0002:00005160       ??_C@_1BM@KFJICIME@?$AAi?$AAn?$AAc?$AAl?$AAu?$AAd?$AAe?$AA_?$AAm?$AAa?$AAs?$AAk?$AAs?$AA?$AA@ 6408a160     options.obj
 0002:0000517c       ??_C@_1CE@IKFGFEP@?$AAu?$AAs?$AAe?$AA_?$AAe?$AAx?$AAc?$AAl?$AAu?$AAd?$AAe?$AA_?$AAm?$AAa?$AAs?$AAk?$AAs?$AA?$AA@ 6408a17c     options.obj
 0002:000051a0       ??_C@_1BM@DLGMLCJB@?$AAe?$AAx?$AAc?$AAl?$AAu?$AAd?$AAe?$AA_?$AAm?$AAa?$AAs?$AAk?$AAs?$AA?$AA@ 6408a1a0     options.obj
 0002:000051bc       ??_C@_1BG@EHDBJMPF@?$AAp?$AAg?$AAd?$AAn?$AA_?$AAm?$AAa?$AAs?$AAk?$AAs?$AA?$AA@ 6408a1bc     options.obj
 0002:000051d4       ??_C@_1CI@EOKCLAPP@?$AAu?$AAs?$AAe?$AA_?$AAe?$AAn?$AAa?$AAb?$AAl?$AAe?$AAd?$AA_?$AAf?$AAo?$AAr?$AAm?$AAa?$AAt?$AAs?$AA?$AA@ 6408a1d4     options.obj
 0002:000051fc       ??_C@_1CA@KFAHFAPB@?$AAe?$AAn?$AAa?$AAb?$AAl?$AAe?$AAd?$AA_?$AAf?$AAo?$AAr?$AAm?$AAa?$AAt?$AAs?$AA?$AA@ 6408a1fc     options.obj
 0002:0000521c       ??_C@_1CK@JLKPDPGC@?$AAu?$AAs?$AAe?$AA_?$AAd?$AAi?$AAs?$AAa?$AAb?$AAl?$AAe?$AAd?$AA_?$AAf?$AAo?$AAr?$AAm?$AAa?$AAt?$AAs?$AA?$AA@ 6408a21c     options.obj
 0002:00005248       ??_C@_1CC@KFCGBLDB@?$AAd?$AAi?$AAs?$AAa?$AAb?$AAl?$AAe?$AAd?$AA_?$AAf?$AAo?$AAr?$AAm?$AAa?$AAt?$AAs?$AA?$AA@ 6408a248     options.obj
 0002:0000526c       ??_C@_1BK@LLAIEAGG@?$AAp?$AAg?$AAd?$AAn?$AA_?$AAf?$AAo?$AAr?$AAm?$AAa?$AAt?$AAs?$AA?$AA@ 6408a26c     options.obj
 0002:00005288       ??_C@_1BC@DNIPBCFP@?$AAa?$AAr?$AAc?$AA_?$AAt?$AAy?$AAp?$AAe?$AA?$AA@ 6408a288     options.obj
 0002:0000529c       ??_C@_1M@NNEKJJGI@?$AAl?$AAe?$AAv?$AAe?$AAl?$AA?$AA@ 6408a29c     options.obj
 0002:000052a8       ??_C@_1O@BENICBGF@?$AAm?$AAe?$AAt?$AAh?$AAo?$AAd?$AA?$AA@ 6408a2a8     options.obj
 0002:000052b8       ??_C@_1M@OLOJLOFL@?$AAs?$AAo?$AAl?$AAi?$AAd?$AA?$AA@ 6408a2b8     options.obj
 0002:000052c4       ??_C@_1BC@OMIPJNBO@?$AAp?$AAa?$AAs?$AAs?$AAw?$AAo?$AAr?$AAd?$AA?$AA@ 6408a2c4     options.obj
 0002:000052d8       ??_C@_1BA@OGAKGFHO@?$AAe?$AAn?$AAc?$AAr?$AAy?$AAp?$AAt?$AA?$AA@ 6408a2d8     options.obj
 0002:000052e8       ??_C@_1BO@KNNCBMKF@?$AAe?$AAn?$AAc?$AAr?$AAy?$AAp?$AAt?$AA_?$AAh?$AAe?$AAa?$AAd?$AAe?$AAr?$AA?$AA@ 6408a2e8     options.obj
 0002:00005308       ??_C@_1BG@OELPMCIK@?$AAc?$AAr?$AAe?$AAa?$AAt?$AAe?$AA_?$AAs?$AAf?$AAx?$AA?$AA@ 6408a308     options.obj
 0002:00005320       ??_C@_1BO@PFMGJNDM@?$AAe?$AAn?$AAa?$AAb?$AAl?$AAe?$AA_?$AAv?$AAo?$AAl?$AAu?$AAm?$AAe?$AAs?$AA?$AA@ 6408a320     options.obj
 0002:00005340       ??_C@_1BI@GIIMKBK@?$AAv?$AAo?$AAl?$AAu?$AAm?$AAe?$AA_?$AAs?$AAi?$AAz?$AAe?$AA?$AA@ 6408a340     options.obj
 0002:00005358       ??_C@_1BG@NKPGLON@?$AAm?$AAo?$AAv?$AAe?$AA_?$AAf?$AAi?$AAl?$AAe?$AAs?$AA?$AA@ 6408a358     options.obj
 0002:00005370       ??_C@_1BM@NLHOIHKK@?$AAi?$AAg?$AAn?$AAo?$AAr?$AAe?$AA_?$AAe?$AAr?$AAr?$AAo?$AAr?$AAs?$AA?$AA@ 6408a370     options.obj
 0002:0000538c       ??_C@_1BC@KBGADKLB@?$AAa?$AAd?$AAv?$AAa?$AAn?$AAc?$AAe?$AAd?$AA?$AA@ 6408a38c     options.obj
 0002:000053a0       ??_C@_0BM@NMJKDPPO@invalid?5vector?$DMT?$DO?5subscript?$AA@ 6408a3a0     options.obj
 0002:000053bc       ??_C@_0BG@EOMJEIFA@vector?$DMbool?$DO?5too?5long?$AA@ 6408a3bc     msearch.obj
 0002:000053d4       ??_C@_08IJFGBAA@attr?4cpp?$AA@ 6408a3d4     attr.obj
 0002:000053e0       ??_C@_1HA@NONJAHIG@?$AA_?$AAi?$AA6?$AA4?$AAt?$AAo?$AAw?$AA_?$AAs?$AA?$CI?$AAp?$AAr?$AAo?$AAp?$AA?4?$AAg?$AAe?$AAt?$AA_?$AAi?$AAn?$AAt?$AA?$CI?$AA?$CJ?$AA?0?$AA?5?$AAb?$AAu?$AAf?$AA?0?$AA?5?$AAA@ 6408a3e0     attr.obj
 0002:00005450       ??_C@_1HE@KIMNAEG@?$AA_?$AAu?$AAi?$AA6?$AA4?$AAt?$AAo?$AAw?$AA_?$AAs?$AA?$CI?$AAp?$AAr?$AAo?$AAp?$AA?4?$AAg?$AAe?$AAt?$AA_?$AAu?$AAi?$AAn?$AAt?$AA?$CI?$AA?$CJ?$AA?0?$AA?5?$AAb?$AAu?$AAf?$AA?0@ 6408a450     attr.obj
 0002:000054c4       ??_C@_13HOIJIPNN@?$AA?5?$AA?$AA@ 6408a4c4     attr.obj
 0002:000054c8       ??_C@_1CC@OGGOJHEF@?$AAR?$AAH?$AAS?$AA8?$AAD?$AAA?$AAd?$AAN?$AAT?$AAs?$AAr?$AAC?$AAO?$AAn?$AAE?$AA_?$AA?$AA@ 6408a4c8     attr.obj
 0002:000054ec       ??_C@_08ENCNIKBI@test?4cpp?$AA@ 6408a4ec     test.obj
 0002:000054fc       ??_7ArchiveTester@@6BIArchiveExtractCallback@@@ 6408a4fc     test.obj
 0002:00005520       ??_7ArchiveTester@@6BICryptoGetTextPassword@@@ 6408a520     test.obj
 0002:00005534       ??_7ArchiveTester@@6BComBase@@@ 6408a534     test.obj
 0002:00005548       ??_7ArchiveTester@@6BProgressMonitor@@@ 6408a548     test.obj
 0002:00005550       ??_C@_1BA@MCJPCEGG@?$AA?$CJ?$AA?5?$AAE?$AAn?$AAt?$AAe?$AAr?$AA?$AA@ 6408a550     common.obj
 0002:00005560       ??_C@_1O@BBPMHPCD@?$AAp?$AAr?$AAi?$AAn?$AAt?$AA?$CI?$AA?$AA@ 6408a560     common.obj
 0002:00005570       ??_C@_0L@PIMMLIEG@common?4cpp?$AA@ 6408a570     common.obj
 0002:0000557c       ??_C@_1CI@FOKFAKOH@?$AA?$DL?$AA?$CB?$AA?$EA?$AAI?$AAn?$AAs?$AAt?$AAa?$AAl?$AAl?$AA?$EA?$AA?$CB?$AAU?$AAT?$AAF?$AA?9?$AA8?$AA?$CB?$AA?6?$AA?$AA@ 6408a57c     sfx.obj
 0002:000055a4       ??_C@_15GLOEBKAF@?$AA?$CC?$AA?6?$AA?$AA@ 6408a5a4     sfx.obj
 0002:000055ac       ??_C@_1BA@OLOEMDEM@?$AAT?$AAi?$AAt?$AAl?$AAe?$AA?$DN?$AA?$CC?$AA?$AA@ 6408a5ac     sfx.obj
 0002:000055bc       ??_C@_1BM@GIJJCMLO@?$AAB?$AAe?$AAg?$AAi?$AAn?$AAP?$AAr?$AAo?$AAm?$AAp?$AAt?$AA?$DN?$AA?$CC?$AA?$AA@ 6408a5bc     sfx.obj
 0002:000055d8       ??_C@_1BG@NCOBKEDJ@?$AAP?$AAr?$AAo?$AAg?$AAr?$AAe?$AAs?$AAs?$AA?$DN?$AA?$CC?$AA?$AA@ 6408a5d8     sfx.obj
 0002:000055f0       ??_C@_1BK@KFKMPGNC@?$AAR?$AAu?$AAn?$AAP?$AAr?$AAo?$AAg?$AAr?$AAa?$AAm?$AA?$DN?$AA?$CC?$AA?$AA@ 6408a5f0     sfx.obj
 0002:0000560c       ??_C@_1BI@LDJDHMHI@?$AAD?$AAi?$AAr?$AAe?$AAc?$AAt?$AAo?$AAr?$AAy?$AA?$DN?$AA?$CC?$AA?$AA@ 6408a60c     sfx.obj
 0002:00005624       ??_C@_1BM@GCHJMPFL@?$AAE?$AAx?$AAe?$AAc?$AAu?$AAt?$AAe?$AAF?$AAi?$AAl?$AAe?$AA?$DN?$AA?$CC?$AA?$AA@ 6408a624     sfx.obj
 0002:00005640       ??_C@_1CI@KHPPDIK@?$AAE?$AAx?$AAe?$AAc?$AAu?$AAt?$AAe?$AAP?$AAa?$AAr?$AAa?$AAm?$AAe?$AAt?$AAe?$AAr?$AAs?$AA?$DN?$AA?$CC?$AA?$AA@ 6408a640     sfx.obj
 0002:00005668       ??_C@_1CC@OAOKHGML@?$AA?$DL?$AA?$CB?$AA?$EA?$AAI?$AAn?$AAs?$AAt?$AAa?$AAl?$AAl?$AAE?$AAn?$AAd?$AA?$EA?$AA?$CB?$AA?6?$AA?$AA@ 6408a668     sfx.obj
 0002:0000568c       ??_C@_07JLLJJILI@sfx?4cpp?$AA@ 6408a68c     sfx.obj
 0002:00005694       ??_C@_1DM@BJNOLDOM@?$AAs?$AAf?$AAx?$AA_?$AAi?$AAd?$AA?5?$AA?$DM?$AA?5?$AAA?$AAr?$AAc?$AAA?$AAP?$AAI?$AA?3?$AA?3?$AAs?$AAf?$AAx?$AA?$CI?$AA?$CJ?$AA?4?$AAs?$AAi?$AAz?$AAe?$AA?$CI?$AA?$CJ?$AA?$AA@ 6408a694     sfx.obj
 0002:000056d0       ??_C@_1GG@NAMIJFA@?$AAd?$AAs?$AAt?$AA_?$AAf?$AAi?$AAl?$AAe?$AA?4?$AAw?$AAr?$AAi?$AAt?$AAe?$AA?$CI?$AAb?$AAu?$AAf?$AA?4?$AAd?$AAa?$AAt?$AAa?$AA?$CI?$AA?$CJ?$AA?0?$AA?5?$AAs?$AAi?$AAz?$AAe?$AA_@ 6408a6d0     sfx.obj
 0002:00005738       ??_C@_17IHBDLLG@?$AAy?$AAe?$AAs?$AA?$AA@ 6408a738     sfx.obj
 0002:00005740       ??_C@_15BPIGNHCD@?$AAn?$AAo?$AA?$AA@ 6408a740     sfx.obj
 0002:00005748       ??_C@_1BG@HKPDLJKO@?$AAS?$AAf?$AAx?$AAO?$AAp?$AAt?$AAi?$AAo?$AAn?$AAs?$AA?$AA@ 6408a748     sfx.obj
 0002:00005760       ??_C@_1CE@CCMGPAPF@?$AAa?$AAr?$AAc?$AAl?$AAi?$AAt?$AAe?$AA?4?$AAi?$AAc?$AAo?$AAn?$AA_?$AAp?$AAa?$AAt?$AAh?$AA?$AA@ 6408a760     sfx.obj
 0002:00005788       ??_7AttachSfxModuleProgress@@6B@ 6408a788     sfx.obj
 0002:00005794       ??_7SfxOptionsDialog@@6B@  6408a794     sfx.obj
 0002:00005798       ??_C@_19EGECPPFB@?$AAp?$AAp?$AAm?$AAd?$AA?$AA@ 6408a798     cmdline.obj
 0002:000057a4       ??_C@_1M@JKHNFEPH@?$AAl?$AAz?$AAm?$AAa?$AA2?$AA?$AA@ 6408a7a4     cmdline.obj
 0002:000057b0       ??_C@_19NNMOHCMN@?$AAl?$AAz?$AAm?$AAa?$AA?$AA@ 6408a7b0     cmdline.obj
 0002:000057bc       ??_C@_13PHCIHIAO@?$AAc?$AA?$AA@ 6408a7bc     cmdline.obj
 0002:000057c0       ??_C@_13ICFKHAEN@?$AAu?$AA?$AA@ 6408a7c0     cmdline.obj
 0002:000057c4       ??_C@_13DKOGBHCI@?$AAt?$AA?$AA@ 6408a7c4     cmdline.obj
 0002:000057c8       ??_C@_13MIIMMPPF@?$AAy?$AA?$AA@ 6408a7c8     cmdline.obj
 0002:000057cc       ??_C@_13FECKAND@?$AAn?$AA?$AA@ 6408a7cc     cmdline.obj
 0002:000057d0       ??_C@_0M@ECEFEAAC@cmdline?4cpp?$AA@ 6408a7d0     cmdline.obj
 0002:000057dc       ??_C@_13FNCBLAIF@?$AAa?$AA?$AA@ 6408a7dc     cmdline.obj
 0002:000057e0       ??_C@_13LFIEIAHP@?$AAp?$AA?$AA@ 6408a7e0     cmdline.obj
 0002:000057e4       ??_C@_15IECJDLIK@?$AAp?$AAr?$AA?$AA@ 6408a7e4     cmdline.obj
 0002:000057ec       ??_C@_13KPELGIFI@?$AAl?$AA?$AA@ 6408a7ec     cmdline.obj
 0002:000057f0       ??_C@_13BHPHAPDN@?$AAm?$AA?$AA@ 6408a7f0     cmdline.obj
 0002:000057f4       ??_C@_15OIJGBPFJ@?$AAe?$AAh?$AA?$AA@ 6408a7f4     cmdline.obj
 0002:000057fc       ??_C@_17MICENCNB@?$AAs?$AAf?$AAx?$AA?$AA@ 6408a7fc     cmdline.obj
 0002:00005804       ??_C@_13JAOPNPKD@?$AAv?$AA?$AA@ 6408a804     cmdline.obj
 0002:00005808       ??_C@_15OEBKOKAH@?$AAm?$AAf?$AA?$AA@ 6408a808     cmdline.obj
 0002:00005810       ??_C@_15GNDOAHPP@?$AAi?$AAe?$AA?$AA@ 6408a810     cmdline.obj
 0002:00005818       ??_C@_13LNPOMHLG@?$AAo?$AA?$AA@ 6408a818     cmdline.obj
 0002:0000581c       ??_C@_17FLKNDCLP@?$AAa?$AAd?$AAv?$AA?$AA@ 6408a81c     cmdline.obj
 0002:00005824       ??_C@_13BPINEIPE@?$AAr?$AA?$AA@ 6408a824     cmdline.obj
 0002:00005828       ??_C@_15HHMPEBGH@?$AAs?$AAd?$AA?$AA@ 6408a828     cmdline.obj
 0002:00005830       ??_C@_15FOMCIDHG@?$AAd?$AAa?$AA?$AA@ 6408a830     cmdline.obj
 0002:00005838       ??_C@_08DMEHPCKJ@rsrc?4cpp?$AA@ 6408a838     rsrc.obj
 0002:00005848       ??_C@_1GK@MOFBPDLL@?$AAe?$AAn?$AAt?$AAr?$AAy?$AA?4?$AAi?$AAm?$AAa?$AAg?$AAe?$AA_?$AAo?$AAf?$AAf?$AAs?$AAe?$AAt?$AA?5?$AA?$CL?$AA?5?$AAe?$AAn?$AAt?$AAr?$AAy?$AA?4?$AAb?$AAy?$AAt?$AAe?$AAs@ 6408a848     rsrc.obj
 0002:000058b4       ??_C@_1CA@FOECMPGO@?$AAV?$AAS?$AA_?$AAV?$AAE?$AAR?$AAS?$AAI?$AAO?$AAN?$AA_?$AAI?$AAN?$AAF?$AAO?$AA?$AA@ 6408a8b4     rsrc.obj
 0002:000058d4       ??_C@_1BO@PBBNDBNF@?$AAS?$AAt?$AAr?$AAi?$AAn?$AAg?$AAF?$AAi?$AAl?$AAe?$AAI?$AAn?$AAf?$AAo?$AA?$AA@ 6408a8d4     rsrc.obj
 0002:000058f4       ??_C@_19MABGBOMG@?$AA0?$AA4?$AAb?$AA0?$AA?$AA@ 6408a8f4     rsrc.obj
 0002:00005900       ??_C@_1BC@OJAINIIB@?$AAC?$AAo?$AAm?$AAm?$AAe?$AAn?$AAt?$AAs?$AA?$AA@ 6408a900     rsrc.obj
 0002:00005914       ??_C@_1BI@KBKGFMKH@?$AAC?$AAo?$AAm?$AAp?$AAa?$AAn?$AAy?$AAN?$AAa?$AAm?$AAe?$AA?$AA@ 6408a914     rsrc.obj
 0002:0000592c       ??_C@_1CA@JGBAIPOO@?$AAF?$AAi?$AAl?$AAe?$AAD?$AAe?$AAs?$AAc?$AAr?$AAi?$AAp?$AAt?$AAi?$AAo?$AAn?$AA?$AA@ 6408a92c     rsrc.obj
 0002:0000594c       ??_C@_1BI@HCCAONKE@?$AAF?$AAi?$AAl?$AAe?$AAV?$AAe?$AAr?$AAs?$AAi?$AAo?$AAn?$AA?$AA@ 6408a94c     rsrc.obj
 0002:00005964       ??_C@_1BO@DAFANMIE@?$AAL?$AAe?$AAg?$AAa?$AAl?$AAC?$AAo?$AAp?$AAy?$AAr?$AAi?$AAg?$AAh?$AAt?$AA?$AA@ 6408a964     rsrc.obj
 0002:00005984       ??_C@_1BI@CJGIOPAN@?$AAP?$AAr?$AAo?$AAd?$AAu?$AAc?$AAt?$AAN?$AAa?$AAm?$AAe?$AA?$AA@ 6408a984     rsrc.obj
 0002:0000599c       ??_C@_1BO@OKEPMKJE@?$AAP?$AAr?$AAo?$AAd?$AAu?$AAc?$AAt?$AAV?$AAe?$AAr?$AAs?$AAi?$AAo?$AAn?$AA?$AA@ 6408a99c     rsrc.obj
 0002:000059bc       ??_C@_1BI@LJHFMFCG@?$AAV?$AAa?$AAr?$AAF?$AAi?$AAl?$AAe?$AAI?$AAn?$AAf?$AAo?$AA?$AA@ 6408a9bc     rsrc.obj
 0002:000059d4       ??_C@_1BI@OMFAJHAK@?$AAT?$AAr?$AAa?$AAn?$AAs?$AAl?$AAa?$AAt?$AAi?$AAo?$AAn?$AA?$AA@ 6408a9d4     rsrc.obj
 0002:000059ec       ??_C@_0N@NEKDJBOO@farutils?4cpp?$AA@ 6408a9ec     farutils.obj
 0002:00005a00       ??_C@_1GM@ELBBCICA@?$AAs?$AAi?$AAz?$AAe?$AA?5?$AA?$DO?$AA?$DN?$AA?5?$AAs?$AAi?$AAz?$AAe?$AAo?$AAf?$AA?$CI?$AAF?$AAa?$AAr?$AAP?$AAa?$AAn?$AAe?$AAl?$AAD?$AAi?$AAr?$AAe?$AAc?$AAt?$AAo?$AAr?$AAy@ 6408aa00     farutils.obj
 0002:00005a6c       ??_C@_1CG@GFKBHPGN@?$AAs?$AAi?$AAz?$AAe?$AA?5?$AA?$DN?$AA?$DN?$AA?5?$AAb?$AAu?$AAf?$AA?4?$AAs?$AAi?$AAz?$AAe?$AA?$CI?$AA?$CJ?$AA?$AA@ 6408aa6c     farutils.obj
 0002:00005a94       ??_C@_15FEDGKCDI@?$AAr?$AAu?$AA?$AA@ 6408aa94     farutils.obj
 0002:00005aa0       ??_7Dialog@Far@@6B@        6408aaa0     farutils.obj
 0002:00005aa4       ??_C@_15LEKKCGMK@?$AA?2?$AA?2?$AA?$AA@ 6408aaa4     pathutils.obj
 0002:00005aac       ??_C@_15DKMKFLDO@?$AA?$DP?$AA?2?$AA?$AA@ 6408aaac     pathutils.obj
 0002:00005ab4       ??_C@_15PCEAIKAA@?$AA?4?$AA?2?$AA?$AA@ 6408aab4     pathutils.obj
 0002:00005abc       ??_C@_1BA@BFGBFLGI@?$AA?2?$AA?2?$AA?$DP?$AA?2?$AAU?$AAN?$AAC?$AA?$AA@ 6408aabc     pathutils.obj
 0002:00005acc       ??_C@_19MJCDBCKE@?$AA?2?$AA?2?$AA?$DP?$AA?2?$AA?$AA@ 6408aacc     pathutils.obj
 0002:00005ad8       ??_C@_1O@IBEKDEPM@?$AA?$DP?$AA?2?$AAU?$AAN?$AAC?$AA?2?$AA?$AA@ 6408aad8     pathutils.obj
 0002:00005ae8       ??_C@_15GKAHMKIN@?$AA?3?$AA?2?$AA?$AA@ 6408aae8     pathutils.obj
 0002:00005af0       ??_C@_17LGKOMLJ@?$AA?4?$AA?4?$AA?4?$AA?$AA@ 6408aaf0     strutils.obj
 0002:00005af8       ??_C@_1BA@MDJFAEBM@?$AAw?$AAi?$AAn?$AAh?$AAt?$AAt?$AAp?$AA?$AA@ 6408aaf8     sysutils.obj
 0002:00005b08       ??_C@_13DIBMAFH@?$AA?$CJ?$AA?$AA@ 6408ab08     sysutils.obj
 0002:00005b0c       ??_C@_19NDEKGCGE@?$AA?5?$AA?$CI?$AA0?$AAx?$AA?$AA@ 6408ab0c     sysutils.obj
 0002:00005b18       ??_C@_1BI@EPLLDPGF@?$AAH?$AAR?$AAE?$AAS?$AAU?$AAL?$AAT?$AA?3?$AA?5?$AA0?$AAx?$AA?$AA@ 6408ab18     sysutils.obj
 0002:00005b30       ??_C@_0N@LGBBMAOF@sysutils?4cpp?$AA@ 6408ab30     sysutils.obj
 0002:00005b40       ??_C@_1CE@MHDMOOMJ@?$AAl?$AAe?$AAn?$AA?5?$AA?$DM?$AA?$DN?$AA?5?$AAb?$AAu?$AAf?$AA?4?$AAs?$AAi?$AAz?$AAe?$AA?$CI?$AA?$CJ?$AA?$AA@ 6408ab40     sysutils.obj
 0002:00005b64       ??_C@_1CG@EKGDMFPK@?$AAs?$AAi?$AAz?$AAe?$AA?5?$AA?$DM?$AA?5?$AAp?$AAa?$AAt?$AAh?$AA?4?$AAs?$AAi?$AAz?$AAe?$AA?$CI?$AA?$CJ?$AA?$AA@ 6408ab64     sysutils.obj
 0002:00005b8c       ??_C@_0O@KBPMFGHI@DecodePointer?$AA@ 6408ab8c     vc10wrapper.obj
 0002:00005b9c       ??_C@_0O@NLDKAIKN@EncodePointer?$AA@ 6408ab9c     vc10wrapper.obj
 0002:00005bac       ??_C@_1BC@GDMECMAK@?$AAk?$AAe?$AAr?$AAn?$AAe?$AAl?$AA3?$AA2?$AA?$AA@ 6408abac     vc10wrapper.obj
 0002:00005bc0       __real@3fe0000000000000    6408abc0      CIL library: CIL module
 0002:00005bc8       __real@7fefffffffffffff    6408abc8      CIL library: CIL module
 0002:00005bd0       __real@4059000000000000    6408abd0      CIL library: CIL module
 0002:00005bd8       __real@41f0000000000000    6408abd8      CIL library: CIL module
 0002:00005be0       __real@4008000000000000    6408abe0      CIL library: CIL module
 0002:00005be8       __real@404e000000000000    6408abe8      CIL library: CIL module
 0002:00005bf0       __real@38aa95a5b7f87a0f    6408abf0      CIL library: CIL module
 0002:00005bf8       __real@4202a05f20000000    6408abf8      CIL library: CIL module
 0002:00005c00       __real@4733426172c74d82    6408ac00      CIL library: CIL module
 0002:00005c08       __FPinit                   6408ac08     LIBCMT:_fpinit_.obj
 0002:00005c0c       ??_C@_05KLBDPFGC@e?$CL000?$AA@ 6408ac0c     LIBCMT:cvt.obj
 0002:00005c14       ??_C@_06IMKFLFPG@1?$CDQNAN?$AA@ 6408ac14     LIBCMT:_x10fout_.obj
 0002:00005c1c       ??_C@_05DNEBIAHO@1?$CDINF?$AA@ 6408ac1c     LIBCMT:_x10fout_.obj
 0002:00005c24       ??_C@_05PHHOCPM@1?$CDIND?$AA@ 6408ac24     LIBCMT:_x10fout_.obj
 0002:00005c2c       ??_C@_06PGGFOGJG@1?$CDSNAN?$AA@ 6408ac2c     LIBCMT:_x10fout_.obj
 0002:00005c38       __load_config_used         6408ac38     LIBCMT:loadcfg.obj
 0002:00005c80       ??_R4logic_error@std@@6B@  6408ac80     libcpmt:xthrow.obj
 0002:00005c94       ??_R3logic_error@std@@8    6408ac94     libcpmt:xthrow.obj
 0002:00005ca4       ??_R2logic_error@std@@8    6408aca4     libcpmt:xthrow.obj
 0002:00005cb0       ??_R1A@?0A@EA@logic_error@std@@8 6408acb0     libcpmt:xthrow.obj
 0002:00005ccc       ??_R4length_error@std@@6B@ 6408accc     libcpmt:xthrow.obj
 0002:00005ce0       ??_R3length_error@std@@8   6408ace0     libcpmt:xthrow.obj
 0002:00005cf0       ??_R2length_error@std@@8   6408acf0     libcpmt:xthrow.obj
 0002:00005d00       ??_R1A@?0A@EA@length_error@std@@8 6408ad00     libcpmt:xthrow.obj
 0002:00005d1c       ??_R4out_of_range@std@@6B@ 6408ad1c     libcpmt:xthrow.obj
 0002:00005d30       ??_R3out_of_range@std@@8   6408ad30     libcpmt:xthrow.obj
 0002:00005d40       ??_R2out_of_range@std@@8   6408ad40     libcpmt:xthrow.obj
 0002:00005d50       ??_R1A@?0A@EA@out_of_range@std@@8 6408ad50     libcpmt:xthrow.obj
 0002:00005d6c       ??_R4error_category@std@@6B@ 6408ad6c     libcpmt:syserror.obj
 0002:00005d80       ??_R3error_category@std@@8 6408ad80     libcpmt:syserror.obj
 0002:00005d90       ??_R2error_category@std@@8 6408ad90     libcpmt:syserror.obj
 0002:00005d98       ??_R1A@?0A@EA@error_category@std@@8 6408ad98     libcpmt:syserror.obj
 0002:00005db4       ??_R4_Generic_error_category@std@@6B@ 6408adb4     libcpmt:syserror.obj
 0002:00005dc8       ??_R3_Generic_error_category@std@@8 6408adc8     libcpmt:syserror.obj
 0002:00005dd8       ??_R2_Generic_error_category@std@@8 6408add8     libcpmt:syserror.obj
 0002:00005de4       ??_R1A@?0A@EA@_Generic_error_category@std@@8 6408ade4     libcpmt:syserror.obj
 0002:00005e00       ??_R4_Iostream_error_category@std@@6B@ 6408ae00     libcpmt:syserror.obj
 0002:00005e14       ??_R3_Iostream_error_category@std@@8 6408ae14     libcpmt:syserror.obj
 0002:00005e24       ??_R2_Iostream_error_category@std@@8 6408ae24     libcpmt:syserror.obj
 0002:00005e30       ??_R1A@?0A@EA@_Iostream_error_category@std@@8 6408ae30     libcpmt:syserror.obj
 0002:00005e4c       ??_R4_System_error_category@std@@6B@ 6408ae4c     libcpmt:syserror.obj
 0002:00005e60       ??_R3_System_error_category@std@@8 6408ae60     libcpmt:syserror.obj
 0002:00005e70       ??_R2_System_error_category@std@@8 6408ae70     libcpmt:syserror.obj
 0002:00005e80       ??_R1A@?0A@EA@_System_error_category@std@@8 6408ae80     libcpmt:syserror.obj
 0002:00005e9c       ??_R4_Locimp@locale@std@@6B@ 6408ae9c     libcpmt:locale0.obj
 0002:00005eb0       ??_R3_Locimp@locale@std@@8 6408aeb0     libcpmt:locale0.obj
 0002:00005ec0       ??_R2_Locimp@locale@std@@8 6408aec0     libcpmt:locale0.obj
 0002:00005ecc       ??_R1A@?0A@EA@_Locimp@locale@std@@8 6408aecc     libcpmt:locale0.obj
 0002:00005ee8       ??_R4exception@std@@6B@    6408aee8     LIBCMT:stdexcpt.obj
 0002:00005efc       ??_R4bad_cast@std@@6B@     6408aefc     LIBCMT:stdexcpt.obj
 0002:00005f10       ??_R3bad_cast@std@@8       6408af10     LIBCMT:stdexcpt.obj
 0002:00005f20       ??_R2bad_cast@std@@8       6408af20     LIBCMT:stdexcpt.obj
 0002:00005f2c       ??_R1A@?0A@EA@bad_cast@std@@8 6408af2c     LIBCMT:stdexcpt.obj
 0002:00005f48       ??_R4bad_typeid@std@@6B@   6408af48     LIBCMT:stdexcpt.obj
 0002:00005f5c       ??_R3bad_typeid@std@@8     6408af5c     LIBCMT:stdexcpt.obj
 0002:00005f6c       ??_R2bad_typeid@std@@8     6408af6c     LIBCMT:stdexcpt.obj
 0002:00005f78       ??_R1A@?0A@EA@bad_typeid@std@@8 6408af78     LIBCMT:stdexcpt.obj
 0002:00005f94       ??_R4__non_rtti_object@std@@6B@ 6408af94     LIBCMT:stdexcpt.obj
 0002:00005fa8       ??_R3__non_rtti_object@std@@8 6408afa8     LIBCMT:stdexcpt.obj
 0002:00005fb8       ??_R2__non_rtti_object@std@@8 6408afb8     LIBCMT:stdexcpt.obj
 0002:00005fc8       ??_R1A@?0A@EA@__non_rtti_object@std@@8 6408afc8     LIBCMT:stdexcpt.obj
 0002:00005fe4       ??_R4type_info@@6B@        6408afe4     LIBCMT:typinfo.obj
 0002:00005ff8       ??_R3type_info@@8          6408aff8     LIBCMT:typinfo.obj
 0002:00006008       ??_R2type_info@@8          6408b008     LIBCMT:typinfo.obj
 0002:00006010       ??_R1A@?0A@EA@type_info@@8 6408b010     LIBCMT:typinfo.obj
 0002:0000602c       ??_R4bad_exception@std@@6B@ 6408b02c     LIBCMT:frame.obj
 0002:00006040       ??_R3bad_exception@std@@8  6408b040     LIBCMT:frame.obj
 0002:00006050       ??_R2bad_exception@std@@8  6408b050     LIBCMT:frame.obj
 0002:0000605c       ??_R1A@?0A@EA@bad_exception@std@@8 6408b05c     LIBCMT:frame.obj
 0002:00006078       ??_R4bad_alloc@std@@6B@    6408b078     archive.obj
 0002:0000608c       ??_R3bad_alloc@std@@8      6408b08c     archive.obj
 0002:0000609c       ??_R2bad_alloc@std@@8      6408b09c     archive.obj
 0002:000060a8       ??_R1A@?0A@EA@exception@std@@8 6408b0a8     archive.obj
 0002:000060c4       ??_R3exception@std@@8      6408b0c4     archive.obj
 0002:000060d4       ??_R2exception@std@@8      6408b0d4     archive.obj
 0002:000060dc       ??_R1A@?0A@EA@bad_alloc@std@@8 6408b0dc     archive.obj
 0002:000060f8       ??_R4_Ref_count_base@tr1@std@@6B@ 6408b0f8     plugin.obj
 0002:0000610c       ??_R4bad_weak_ptr@tr1@std@@6B@ 6408b10c     plugin.obj
 0002:00006120       ??_R3bad_weak_ptr@tr1@std@@8 6408b120     plugin.obj
 0002:00006130       ??_R2bad_weak_ptr@tr1@std@@8 6408b130     plugin.obj
 0002:0000613c       ??_R1A@?0A@EA@bad_weak_ptr@tr1@std@@8 6408b13c     plugin.obj
 0002:00006158       ??_R4?$_Ref_count_del@XV<lambda11>@?A0xc5e9a1c5@@@tr1@std@@6B@ 6408b158     plugin.obj
 0002:0000616c       ??_R3?$_Ref_count_del@XV<lambda11>@?A0xc5e9a1c5@@@tr1@std@@8 6408b16c     plugin.obj
 0002:0000617c       ??_R2?$_Ref_count_del@XV<lambda11>@?A0xc5e9a1c5@@@tr1@std@@8 6408b17c     plugin.obj
 0002:00006188       ??_R1A@?0A@EA@?$_Ref_count_del@XV<lambda11>@?A0xc5e9a1c5@@@tr1@std@@8 6408b188     plugin.obj
 0002:000061a4       ??_R4?$_Ref_count@V?$list@UError@@V?$allocator@UError@@@std@@@std@@@tr1@std@@6B@ 6408b1a4     plugin.obj
 0002:000061b8       ??_R3?$_Ref_count@V?$list@UError@@V?$allocator@UError@@@std@@@std@@@tr1@std@@8 6408b1b8     plugin.obj
 0002:000061c8       ??_R2?$_Ref_count@V?$list@UError@@V?$allocator@UError@@@std@@@std@@@tr1@std@@8 6408b1c8     plugin.obj
 0002:000061d4       ??_R1A@?0A@EA@?$_Ref_count@V?$list@UError@@V?$allocator@UError@@@std@@@std@@@tr1@std@@8 6408b1d4     plugin.obj
 0002:000061f0       ??_R4?$_Ref_count@VArchive@@@tr1@std@@6B@ 6408b1f0     plugin.obj
 0002:00006204       ??_R3?$_Ref_count@VArchive@@@tr1@std@@8 6408b204     plugin.obj
 0002:00006214       ??_R2?$_Ref_count@VArchive@@@tr1@std@@8 6408b214     plugin.obj
 0002:00006220       ??_R1A@?0A@EA@_Ref_count_base@tr1@std@@8 6408b220     plugin.obj
 0002:0000623c       ??_R3_Ref_count_base@tr1@std@@8 6408b23c     plugin.obj
 0002:0000624c       ??_R2_Ref_count_base@tr1@std@@8 6408b24c     plugin.obj
 0002:00006254       ??_R1A@?0A@EA@?$_Ref_count@VArchive@@@tr1@std@@8 6408b254     plugin.obj
 0002:00006270       ??_R4PluginPanelItems@?1??extract@Plugin@@QAEXXZ@6B@ 6408b270     plugin.obj
 0002:00006284       ??_R3PluginPanelItems@?1??extract@Plugin@@QAEXXZ@8 6408b284     plugin.obj
 0002:00006294       ??_R2PluginPanelItems@?1??extract@Plugin@@QAEXXZ@8 6408b294     plugin.obj
 0002:000062a0       ??_R1A@?0A@EA@PluginPanelItems@?1??extract@Plugin@@QAEXXZ@8 6408b2a0     plugin.obj
 0002:000062bc       ??_R4PluginPanelItems@?1??get_files@Plugin@@QAEXPBUPluginPanelItem@@HHPAPB_W_K@Z@6B@ 6408b2bc     plugin.obj
 0002:000062d0       ??_R3PluginPanelItems@?1??get_files@Plugin@@QAEXPBUPluginPanelItem@@HHPAPB_W_K@Z@8 6408b2d0     plugin.obj
 0002:000062e0       ??_R2PluginPanelItems@?1??get_files@Plugin@@QAEXPBUPluginPanelItem@@HHPAPB_W_K@Z@8 6408b2e0     plugin.obj
 0002:000062ec       ??_R1A@?0A@EA@PluginPanelItems@?1??get_files@Plugin@@QAEXPBUPluginPanelItem@@HHPAPB_W_K@Z@8 6408b2ec     plugin.obj
 0002:00006308       ??_R3PluginPanelItemAccessor@Plugin@@8 6408b308     plugin.obj
 0002:00006318       ??_R2PluginPanelItemAccessor@Plugin@@8 6408b318     plugin.obj
 0002:00006320       ??_R1A@?0A@EA@PluginPanelItemAccessor@Plugin@@8 6408b320     plugin.obj
 0002:0000633c       ??_R4failure@ios_base@std@@6B@ 6408b33c     ui.obj
 0002:00006350       ??_R3failure@ios_base@std@@8 6408b350     ui.obj
 0002:00006360       ??_R2failure@ios_base@std@@8 6408b360     ui.obj
 0002:00006374       ??_R1A@?0A@EA@failure@ios_base@std@@8 6408b374     ui.obj
 0002:00006390       ??_R4system_error@std@@6B@ 6408b390     ui.obj
 0002:000063a4       ??_R3system_error@std@@8   6408b3a4     ui.obj
 0002:000063b4       ??_R2system_error@std@@8   6408b3b4     ui.obj
 0002:000063c4       ??_R1A@?0A@EA@system_error@std@@8 6408b3c4     ui.obj
 0002:000063e0       ??_R4?$ctype@_W@std@@6B@   6408b3e0     ui.obj
 0002:000063f4       ??_R3?$ctype@_W@std@@8     6408b3f4     ui.obj
 0002:00006404       ??_R2?$ctype@_W@std@@8     6408b404     ui.obj
 0002:00006414       ??_R1A@?0A@EA@?$ctype@_W@std@@8 6408b414     ui.obj
 0002:00006430       ??_R3ctype_base@std@@8     6408b430     ui.obj
 0002:00006440       ??_R2ctype_base@std@@8     6408b440     ui.obj
 0002:0000644c       ??_R1A@?0A@EA@ctype_base@std@@8 6408b44c     ui.obj
 0002:00006468       ??_R4facet@locale@std@@6B@ 6408b468     ui.obj
 0002:0000647c       ??_R4runtime_error@std@@6B@ 6408b47c     ui.obj
 0002:00006490       ??_R3runtime_error@std@@8  6408b490     ui.obj
 0002:000064a0       ??_R2runtime_error@std@@8  6408b4a0     ui.obj
 0002:000064ac       ??_R1A@?0A@EA@runtime_error@std@@8 6408b4ac     ui.obj
 0002:000064c8       ??_R4?$basic_ostream@_WU?$char_traits@_W@std@@@std@@6B@ 6408b4c8     ui.obj
 0002:000064dc       ??_R4?$basic_streambuf@_WU?$char_traits@_W@std@@@std@@6B@ 6408b4dc     ui.obj
 0002:000064f0       ??_R4?$basic_ios@_WU?$char_traits@_W@std@@@std@@6B@ 6408b4f0     ui.obj
 0002:00006504       ??_R4ios_base@std@@6B@     6408b504     ui.obj
 0002:00006518       ??_R4?$_Ref_count@VFileFilter@Far@@@tr1@std@@6B@ 6408b518     ui.obj
 0002:0000652c       ??_R3?$_Ref_count@VFileFilter@Far@@@tr1@std@@8 6408b52c     ui.obj
 0002:0000653c       ??_R2?$_Ref_count@VFileFilter@Far@@@tr1@std@@8 6408b53c     ui.obj
 0002:00006548       ??_R1A@?0A@EA@?$_Ref_count@VFileFilter@Far@@@tr1@std@@8 6408b548     ui.obj
 0002:00006564       ??_R4?$numpunct@_W@std@@6B@ 6408b564     ui.obj
 0002:00006578       ??_R3?$numpunct@_W@std@@8  6408b578     ui.obj
 0002:00006588       ??_R2?$numpunct@_W@std@@8  6408b588     ui.obj
 0002:00006594       ??_R1A@?0A@EA@?$numpunct@_W@std@@8 6408b594     ui.obj
 0002:000065b0       ??_R4AttrDialog@@6B@       6408b5b0     ui.obj
 0002:000065c4       ??_R3AttrDialog@@8         6408b5c4     ui.obj
 0002:000065d4       ??_R2AttrDialog@@8         6408b5d4     ui.obj
 0002:000065e0       ??_R1A@?0A@EA@AttrDialog@@8 6408b5e0     ui.obj
 0002:000065fc       ??_R4SettingsDialog@@6B@   6408b5fc     ui.obj
 0002:00006610       ??_R3SettingsDialog@@8     6408b610     ui.obj
 0002:00006620       ??_R2SettingsDialog@@8     6408b620     ui.obj
 0002:0000662c       ??_R1A@?0A@EA@SettingsDialog@@8 6408b62c     ui.obj
 0002:00006648       ??_R4FormatLibraryInfoDialog@@6B@ 6408b648     ui.obj
 0002:0000665c       ??_R3FormatLibraryInfoDialog@@8 6408b65c     ui.obj
 0002:0000666c       ??_R2FormatLibraryInfoDialog@@8 6408b66c     ui.obj
 0002:00006678       ??_R1A@?0A@EA@FormatLibraryInfoDialog@@8 6408b678     ui.obj
 0002:00006694       ??_R4MultiSelectDialog@@6B@ 6408b694     ui.obj
 0002:000066a8       ??_R3MultiSelectDialog@@8  6408b6a8     ui.obj
 0002:000066b8       ??_R2MultiSelectDialog@@8  6408b6b8     ui.obj
 0002:000066c4       ??_R1A@?0A@EA@MultiSelectDialog@@8 6408b6c4     ui.obj
 0002:000066e0       ??_R4UpdateDialog@@6B@     6408b6e0     ui.obj
 0002:000066f4       ??_R3UpdateDialog@@8       6408b6f4     ui.obj
 0002:00006704       ??_R2UpdateDialog@@8       6408b704     ui.obj
 0002:00006710       ??_R1A@?0A@EA@UpdateDialog@@8 6408b710     ui.obj
 0002:0000672c       ??_R4ExtractDialog@@6B@    6408b72c     ui.obj
 0002:00006740       ??_R3ExtractDialog@@8      6408b740     ui.obj
 0002:00006750       ??_R2ExtractDialog@@8      6408b750     ui.obj
 0002:0000675c       ??_R1A@?0A@EA@ExtractDialog@@8 6408b75c     ui.obj
 0002:00006778       ??_R4OverwriteDialog@@6B@  6408b778     ui.obj
 0002:0000678c       ??_R3OverwriteDialog@@8    6408b78c     ui.obj
 0002:0000679c       ??_R2OverwriteDialog@@8    6408b79c     ui.obj
 0002:000067a8       ??_R1A@?0A@EA@OverwriteDialog@@8 6408b7a8     ui.obj
 0002:000067c4       ??_R4PasswordDialog@@6B@   6408b7c4     ui.obj
 0002:000067d8       ??_R3PasswordDialog@@8     6408b7d8     ui.obj
 0002:000067e8       ??_R2PasswordDialog@@8     6408b7e8     ui.obj
 0002:000067f4       ??_R1A@?0A@EA@Dialog@Far@@8 6408b7f4     ui.obj
 0002:00006810       ??_R3Dialog@Far@@8         6408b810     ui.obj
 0002:00006820       ??_R2Dialog@Far@@8         6408b820     ui.obj
 0002:00006828       ??_R1A@?0A@EA@PasswordDialog@@8 6408b828     ui.obj
 0002:00006844       ??_R4ProgressMonitor@@6B@  6408b844     ui.obj
 0002:00006858       ??_R3ProgressMonitor@@8    6408b858     ui.obj
 0002:00006868       ??_R2ProgressMonitor@@8    6408b868     ui.obj
 0002:00006874       ??_R17?0A@EN@NonCopyable@@8 6408b874     ui.obj
 0002:00006890       ??_R3NonCopyable@@8        6408b890     ui.obj
 0002:000068a0       ??_R2NonCopyable@@8        6408b8a0     ui.obj
 0002:000068a8       ??_R1A@?0A@EA@NonCopyable@@8 6408b8a8     ui.obj
 0002:000068c4       ??_R1A@?0A@EA@ProgressMonitor@@8 6408b8c4     ui.obj
 0002:000068e0       ??_R4?$num_put@_WV?$ostreambuf_iterator@_WU?$char_traits@_W@std@@@std@@@std@@6B@ 6408b8e0     ui.obj
 0002:000068f4       ??_R3?$num_put@_WV?$ostreambuf_iterator@_WU?$char_traits@_W@std@@@std@@@std@@8 6408b8f4     ui.obj
 0002:00006904       ??_R2?$num_put@_WV?$ostreambuf_iterator@_WU?$char_traits@_W@std@@@std@@@std@@8 6408b904     ui.obj
 0002:00006910       ??_R1A@?0A@EA@facet@locale@std@@8 6408b910     ui.obj
 0002:0000692c       ??_R3facet@locale@std@@8   6408b92c     ui.obj
 0002:0000693c       ??_R2facet@locale@std@@8   6408b93c     ui.obj
 0002:00006944       ??_R1A@?0A@EA@?$num_put@_WV?$ostreambuf_iterator@_WU?$char_traits@_W@std@@@std@@@std@@8 6408b944     ui.obj
 0002:00006960       ??_R4?$basic_ostringstream@_WU?$char_traits@_W@std@@V?$allocator@_W@2@@std@@6B@ 6408b960     ui.obj
 0002:00006974       ??_R3?$basic_ostringstream@_WU?$char_traits@_W@std@@V?$allocator@_W@2@@std@@8 6408b974     ui.obj
 0002:00006984       ??_R2?$basic_ostringstream@_WU?$char_traits@_W@std@@V?$allocator@_W@2@@std@@8 6408b984     ui.obj
 0002:0000699c       ??_R1A@?0A@EA@?$basic_ostream@_WU?$char_traits@_W@std@@@std@@8 6408b99c     ui.obj
 0002:000069b8       ??_R3?$basic_ostream@_WU?$char_traits@_W@std@@@std@@8 6408b9b8     ui.obj
 0002:000069c8       ??_R2?$basic_ostream@_WU?$char_traits@_W@std@@@std@@8 6408b9c8     ui.obj
 0002:000069dc       ??_R17A@3EA@?$_Iosb@H@std@@8 6408b9dc     ui.obj
 0002:000069f8       ??_R1A@A@3EA@ios_base@std@@8 6408b9f8     ui.obj
 0002:00006a14       ??_R1A@A@3FA@?$basic_ios@_WU?$char_traits@_W@std@@@std@@8 6408ba14     ui.obj
 0002:00006a30       ??_R3?$basic_ios@_WU?$char_traits@_W@std@@@std@@8 6408ba30     ui.obj
 0002:00006a40       ??_R2?$basic_ios@_WU?$char_traits@_W@std@@@std@@8 6408ba40     ui.obj
 0002:00006a50       ??_R1A@?0A@EA@ios_base@std@@8 6408ba50     ui.obj
 0002:00006a6c       ??_R3ios_base@std@@8       6408ba6c     ui.obj
 0002:00006a7c       ??_R2ios_base@std@@8       6408ba7c     ui.obj
 0002:00006a88       ??_R17?0A@EA@?$_Iosb@H@std@@8 6408ba88     ui.obj
 0002:00006aa4       ??_R3?$_Iosb@H@std@@8      6408baa4     ui.obj
 0002:00006ab4       ??_R2?$_Iosb@H@std@@8      6408bab4     ui.obj
 0002:00006abc       ??_R1A@?0A@EA@?$_Iosb@H@std@@8 6408babc     ui.obj
 0002:00006ad8       ??_R1A@?0A@EA@?$basic_ios@_WU?$char_traits@_W@std@@@std@@8 6408bad8     ui.obj
 0002:00006af4       ??_R1A@?0A@EA@?$basic_ostringstream@_WU?$char_traits@_W@std@@V?$allocator@_W@2@@std@@8 6408baf4     ui.obj
 0002:00006b10       ??_R4?$basic_stringbuf@_WU?$char_traits@_W@std@@V?$allocator@_W@2@@std@@6B@ 6408bb10     ui.obj
 0002:00006b24       ??_R3?$basic_stringbuf@_WU?$char_traits@_W@std@@V?$allocator@_W@2@@std@@8 6408bb24     ui.obj
 0002:00006b34       ??_R2?$basic_stringbuf@_WU?$char_traits@_W@std@@V?$allocator@_W@2@@std@@8 6408bb34     ui.obj
 0002:00006b40       ??_R1A@?0A@EA@?$basic_streambuf@_WU?$char_traits@_W@std@@@std@@8 6408bb40     ui.obj
 0002:00006b5c       ??_R3?$basic_streambuf@_WU?$char_traits@_W@std@@@std@@8 6408bb5c     ui.obj
 0002:00006b6c       ??_R2?$basic_streambuf@_WU?$char_traits@_W@std@@@std@@8 6408bb6c     ui.obj
 0002:00006b74       ??_R1A@?0A@EA@?$basic_stringbuf@_WU?$char_traits@_W@std@@V?$allocator@_W@2@@std@@8 6408bb74     ui.obj
 0002:00006b90       ??_R4?$_Ref_count@V?$set@IU?$less@I@std@@V?$allocator@I@2@@std@@@tr1@std@@6B@ 6408bb90     extract.obj
 0002:00006ba4       ??_R3?$_Ref_count@V?$set@IU?$less@I@std@@V?$allocator@I@2@@std@@@tr1@std@@8 6408bba4     extract.obj
 0002:00006bb4       ??_R2?$_Ref_count@V?$set@IU?$less@I@std@@V?$allocator@I@2@@std@@@tr1@std@@8 6408bbb4     extract.obj
 0002:00006bc0       ??_R1A@?0A@EA@?$_Ref_count@V?$set@IU?$less@I@std@@V?$allocator@I@2@@std@@@tr1@std@@8 6408bbc0     extract.obj
 0002:00006bdc       ??_R4?$_Ref_count@VFileWriteCache@@@tr1@std@@6B@ 6408bbdc     extract.obj
 0002:00006bf0       ??_R3?$_Ref_count@VFileWriteCache@@@tr1@std@@8 6408bbf0     extract.obj
 0002:00006c00       ??_R2?$_Ref_count@VFileWriteCache@@@tr1@std@@8 6408bc00     extract.obj
 0002:00006c0c       ??_R1A@?0A@EA@?$_Ref_count@VFileWriteCache@@@tr1@std@@8 6408bc0c     extract.obj
 0002:00006c28       ??_R4?$_Ref_count@VExtractProgress@@@tr1@std@@6B@ 6408bc28     extract.obj
 0002:00006c3c       ??_R3?$_Ref_count@VExtractProgress@@@tr1@std@@8 6408bc3c     extract.obj
 0002:00006c4c       ??_R2?$_Ref_count@VExtractProgress@@@tr1@std@@8 6408bc4c     extract.obj
 0002:00006c58       ??_R1A@?0A@EA@?$_Ref_count@VExtractProgress@@@tr1@std@@8 6408bc58     extract.obj
 0002:00006c74       ??_R4?$_Ref_count@W4OverwriteAction@@@tr1@std@@6B@ 6408bc74     extract.obj
 0002:00006c88       ??_R3?$_Ref_count@W4OverwriteAction@@@tr1@std@@8 6408bc88     extract.obj
 0002:00006c98       ??_R2?$_Ref_count@W4OverwriteAction@@@tr1@std@@8 6408bc98     extract.obj
 0002:00006ca4       ??_R1A@?0A@EA@?$_Ref_count@W4OverwriteAction@@@tr1@std@@8 6408bca4     extract.obj
 0002:00006cc0       ??_R4?$_Ref_count@_N@tr1@std@@6B@ 6408bcc0     extract.obj
 0002:00006cd4       ??_R3?$_Ref_count@_N@tr1@std@@8 6408bcd4     extract.obj
 0002:00006ce4       ??_R2?$_Ref_count@_N@tr1@std@@8 6408bce4     extract.obj
 0002:00006cf0       ??_R1A@?0A@EA@?$_Ref_count@_N@tr1@std@@8 6408bcf0     extract.obj
 0002:00006d0c       ??_R4SetDirAttr@@6B@       6408bd0c     extract.obj
 0002:00006d20       ??_R3SetDirAttr@@8         6408bd20     extract.obj
 0002:00006d30       ??_R2SetDirAttr@@8         6408bd30     extract.obj
 0002:00006d40       ??_R1A@?0A@EA@SetDirAttr@@8 6408bd40     extract.obj
 0002:00006d5c       ??_R4PrepareExtract@@6B@   6408bd5c     extract.obj
 0002:00006d70       ??_R3PrepareExtract@@8     6408bd70     extract.obj
 0002:00006d80       ??_R2PrepareExtract@@8     6408bd80     extract.obj
 0002:00006d90       ??_R1A@?0A@EA@PrepareExtract@@8 6408bd90     extract.obj
 0002:00006dac       ??_R4ArchiveExtractor@@6BComBase@@@ 6408bdac     extract.obj
 0002:00006dc0       ??_R4ArchiveExtractor@@6BICryptoGetTextPassword@@@ 6408bdc0     extract.obj
 0002:00006dd4       ??_R4ArchiveExtractor@@6BIArchiveExtractCallback@@@ 6408bdd4     extract.obj
 0002:00006de8       ??_R3ArchiveExtractor@@8   6408bde8     extract.obj
 0002:00006df8       ??_R2ArchiveExtractor@@8   6408bdf8     extract.obj
 0002:00006e1c       ??_R17?0A@EC@IUnknown@@8   6408be1c     extract.obj
 0002:00006e38       ??_R17?0A@EA@ComBase@@8    6408be38     extract.obj
 0002:00006e54       ??_R13?0A@EA@ICryptoGetTextPassword@@8 6408be54     extract.obj
 0002:00006e70       ??_R1A@?0A@EA@ArchiveExtractor@@8 6408be70     extract.obj
 0002:00006e8c       ??_R4CachedFileExtractStream@@6BComBase@@@ 6408be8c     extract.obj
 0002:00006ea0       ??_R4CachedFileExtractStream@@6BISequentialOutStream@@@ 6408bea0     extract.obj
 0002:00006eb4       ??_R3CachedFileExtractStream@@8 6408beb4     extract.obj
 0002:00006ec4       ??_R2CachedFileExtractStream@@8 6408bec4     extract.obj
 0002:00006edc       ??_R13?0A@EC@IUnknown@@8   6408bedc     extract.obj
 0002:00006ef8       ??_R13?0A@EA@ComBase@@8    6408bef8     extract.obj
 0002:00006f14       ??_R1A@?0A@EC@IUnknown@@8  6408bf14     extract.obj
 0002:00006f30       ??_R1A@?0A@EA@CachedFileExtractStream@@8 6408bf30     extract.obj
 0002:00006f4c       ??_R4ExtractProgress@@6B@  6408bf4c     extract.obj
 0002:00006f60       ??_R3ExtractProgress@@8    6408bf60     extract.obj
 0002:00006f70       ??_R2ExtractProgress@@8    6408bf70     extract.obj
 0002:00006f80       ??_R1A@?0A@EA@ExtractProgress@@8 6408bf80     extract.obj
 0002:00006f9c       ??_R4ComBase@@6B@          6408bf9c     extract.obj
 0002:00006fb0       ??_R3ComBase@@8            6408bfb0     extract.obj
 0002:00006fc0       ??_R2ComBase@@8            6408bfc0     extract.obj
 0002:00006fcc       ??_R1A@?0A@EA@ComBase@@8   6408bfcc     extract.obj
 0002:00006fe8       ??_R4ICryptoGetTextPassword@@6B@ 6408bfe8     extract.obj
 0002:00006ffc       ??_R3ICryptoGetTextPassword@@8 6408bffc     extract.obj
 0002:0000700c       ??_R2ICryptoGetTextPassword@@8 6408c00c     extract.obj
 0002:00007018       ??_R1A@?0A@EA@ICryptoGetTextPassword@@8 6408c018     extract.obj
 0002:00007034       ??_R4IArchiveExtractCallback@@6B@ 6408c034     extract.obj
 0002:00007048       ??_R3IArchiveExtractCallback@@8 6408c048     extract.obj
 0002:00007058       ??_R2IArchiveExtractCallback@@8 6408c058     extract.obj
 0002:00007068       ??_R1A@?0A@EA@IArchiveExtractCallback@@8 6408c068     extract.obj
 0002:00007084       ??_R3ISequentialOutStream@@8 6408c084     extract.obj
 0002:00007094       ??_R2ISequentialOutStream@@8 6408c094     extract.obj
 0002:000070a0       ??_R1A@?0A@EA@ISequentialOutStream@@8 6408c0a0     extract.obj
 0002:000070bc       ??_R3IProgress@@8          6408c0bc     extract.obj
 0002:000070cc       ??_R2IProgress@@8          6408c0cc     extract.obj
 0002:000070d8       ??_R1A@?0A@EA@IUnknown@@8  6408c0d8     extract.obj
 0002:000070f4       ??_R3IUnknown@@8           6408c0f4     extract.obj
 0002:00007104       ??_R2IUnknown@@8           6408c104     extract.obj
 0002:0000710c       ??_R1A@?0A@EA@IProgress@@8 6408c10c     extract.obj
 0002:00007128       ??_R4ArchiveOpener@@6BProgressMonitor@@@ 6408c128     open.obj
 0002:0000713c       ??_R4ArchiveOpener@@6BComBase@@@ 6408c13c     open.obj
 0002:00007150       ??_R4ArchiveOpener@@6BICryptoGetTextPassword@@@ 6408c150     open.obj
 0002:00007164       ??_R4ArchiveOpener@@6BIArchiveOpenVolumeCallback@@@ 6408c164     open.obj
 0002:00007178       ??_R4ArchiveOpener@@6BIArchiveOpenCallback@@@ 6408c178     open.obj
 0002:0000718c       ??_R3ArchiveOpener@@8      6408c18c     open.obj
 0002:0000719c       ??_R2ArchiveOpener@@8      6408c19c     open.obj
 0002:000071cc       ??_R1CA@?0A@EN@NonCopyable@@8 6408c1cc     open.obj
 0002:000071e8       ??_R1BI@?0A@EA@ProgressMonitor@@8 6408c1e8     open.obj
 0002:00007204       ??_R1M@?0A@EC@IUnknown@@8  6408c204     open.obj
 0002:00007220       ??_R1M@?0A@EA@ComBase@@8   6408c220     open.obj
 0002:0000723c       ??_R17?0A@EA@ICryptoGetTextPassword@@8 6408c23c     open.obj
 0002:00007258       ??_R13?0A@EA@IArchiveOpenVolumeCallback@@8 6408c258     open.obj
 0002:00007274       ??_R1A@?0A@EA@ArchiveOpener@@8 6408c274     open.obj
 0002:00007290       ??_R4ArchiveOpenStream@@6BComBase@@@ 6408c290     open.obj
 0002:000072a4       ??_R4ArchiveOpenStream@@6BIInStream@@@ 6408c2a4     open.obj
 0002:000072b8       ??_R3ArchiveOpenStream@@8  6408c2b8     open.obj
 0002:000072c8       ??_R2ArchiveOpenStream@@8  6408c2c8     open.obj
 0002:000072ec       ??_R1M@?0A@EN@NonCopyable@@8 6408c2ec     open.obj
 0002:00007308       ??_R1M@?0A@EN@File@@8      6408c308     open.obj
 0002:00007324       ??_R3File@@8               6408c324     open.obj
 0002:00007334       ??_R2File@@8               6408c334     open.obj
 0002:00007340       ??_R1A@?0A@EN@NonCopyable@@8 6408c340     open.obj
 0002:0000735c       ??_R1A@?0A@EA@File@@8      6408c35c     open.obj
 0002:00007378       ??_R13?0A@EL@IUnknown@@8   6408c378     open.obj
 0002:00007394       ??_R13?0A@EN@ComBase@@8    6408c394     open.obj
 0002:000073b0       ??_R1A@?0A@EA@ArchiveOpenStream@@8 6408c3b0     open.obj
 0002:000073cc       ??_R4IArchiveOpenVolumeCallback@@6B@ 6408c3cc     open.obj
 0002:000073e0       ??_R3IArchiveOpenVolumeCallback@@8 6408c3e0     open.obj
 0002:000073f0       ??_R2IArchiveOpenVolumeCallback@@8 6408c3f0     open.obj
 0002:000073fc       ??_R1A@?0A@EA@IArchiveOpenVolumeCallback@@8 6408c3fc     open.obj
 0002:00007418       ??_R4IArchiveOpenCallback@@6B@ 6408c418     open.obj
 0002:0000742c       ??_R3IArchiveOpenCallback@@8 6408c42c     open.obj
 0002:0000743c       ??_R2IArchiveOpenCallback@@8 6408c43c     open.obj
 0002:00007448       ??_R1A@?0A@EA@IArchiveOpenCallback@@8 6408c448     open.obj
 0002:00007464       ??_R3IInStream@@8          6408c464     open.obj
 0002:00007474       ??_R2IInStream@@8          6408c474     open.obj
 0002:00007484       ??_R1A@?0A@EA@IInStream@@8 6408c484     open.obj
 0002:000074a0       ??_R3ISequentialInStream@@8 6408c4a0     open.obj
 0002:000074b0       ??_R2ISequentialInStream@@8 6408c4b0     open.obj
 0002:000074bc       ??_R1A@?0A@EA@ISequentialInStream@@8 6408c4bc     open.obj
 0002:000074d8       ??_R4?$_Ref_count@VArchiveUpdateProgress@@@tr1@std@@6B@ 6408c4d8     update.obj
 0002:000074ec       ??_R3?$_Ref_count@VArchiveUpdateProgress@@@tr1@std@@8 6408c4ec     update.obj
 0002:000074fc       ??_R2?$_Ref_count@VArchiveUpdateProgress@@@tr1@std@@8 6408c4fc     update.obj
 0002:00007508       ??_R1A@?0A@EA@?$_Ref_count@VArchiveUpdateProgress@@@tr1@std@@8 6408c508     update.obj
 0002:00007524       ??_R4?$_Ref_count@V?$map@IUFileIndexInfo@@U?$less@I@std@@V?$allocator@U?$pair@$$CBIUFileIndexInfo@@@std@@@3@@std@@@tr1@std@@6B@ 6408c524     update.obj
 0002:00007538       ??_R3?$_Ref_count@V?$map@IUFileIndexInfo@@U?$less@I@std@@V?$allocator@U?$pair@$$CBIUFileIndexInfo@@@std@@@3@@std@@@tr1@std@@8 6408c538     update.obj
 0002:00007548       ??_R2?$_Ref_count@V?$map@IUFileIndexInfo@@U?$less@I@std@@V?$allocator@U?$pair@$$CBIUFileIndexInfo@@@std@@@3@@std@@@tr1@std@@8 6408c548     update.obj
 0002:00007554       ??_R1A@?0A@EA@?$_Ref_count@V?$map@IUFileIndexInfo@@U?$less@I@std@@V?$allocator@U?$pair@$$CBIUFileIndexInfo@@@std@@@3@@std@@@tr1@std@@8 6408c554     update.obj
 0002:00007570       ??_R4DeleteSrcFiles@@6B@   6408c570     update.obj
 0002:00007584       ??_R3DeleteSrcFiles@@8     6408c584     update.obj
 0002:00007594       ??_R2DeleteSrcFiles@@8     6408c594     update.obj
 0002:000075a4       ??_R1A@?0A@EA@DeleteSrcFiles@@8 6408c5a4     update.obj
 0002:000075c0       ??_R4ArchiveUpdater@@6BComBase@@@ 6408c5c0     update.obj
 0002:000075d4       ??_R4ArchiveUpdater@@6BICryptoGetTextPassword2@@@ 6408c5d4     update.obj
 0002:000075e8       ??_R4ArchiveUpdater@@6BIArchiveUpdateCallback@@@ 6408c5e8     update.obj
 0002:000075fc       ??_R3ArchiveUpdater@@8     6408c5fc     update.obj
 0002:0000760c       ??_R2ArchiveUpdater@@8     6408c60c     update.obj
 0002:00007630       ??_R13?0A@EA@ICryptoGetTextPassword2@@8 6408c630     update.obj
 0002:0000764c       ??_R1A@?0A@EA@ArchiveUpdater@@8 6408c64c     update.obj
 0002:00007668       ??_R4PrepareUpdate@@6B@    6408c668     update.obj
 0002:0000767c       ??_R3PrepareUpdate@@8      6408c67c     update.obj
 0002:0000768c       ??_R2PrepareUpdate@@8      6408c68c     update.obj
 0002:0000769c       ??_R1A@?0A@EN@ProgressMonitor@@8 6408c69c     update.obj
 0002:000076b8       ??_R1A@?0A@EA@PrepareUpdate@@8 6408c6b8     update.obj
 0002:000076d4       ??_R4FileReadStream@@6BComBase@@@ 6408c6d4     update.obj
 0002:000076e8       ??_R4FileReadStream@@6BIInStream@@@ 6408c6e8     update.obj
 0002:000076fc       ??_R3FileReadStream@@8     6408c6fc     update.obj
 0002:0000770c       ??_R2FileReadStream@@8     6408c70c     update.obj
 0002:00007730       ??_R1A@?0A@EA@FileReadStream@@8 6408c730     update.obj
 0002:0000774c       ??_R4MultiVolumeUpdateStream@@6BComBase@@@ 6408c74c     update.obj
 0002:00007760       ??_R4MultiVolumeUpdateStream@@6BUpdateStream@@@ 6408c760     update.obj
 0002:00007774       ??_R3MultiVolumeUpdateStream@@8 6408c774     update.obj
 0002:00007784       ??_R2MultiVolumeUpdateStream@@8 6408c784     update.obj
 0002:000077a4       ??_R1A@?0A@EA@MultiVolumeUpdateStream@@8 6408c7a4     update.obj
 0002:000077c0       ??_R4SfxUpdateStream@@6BComBase@@@ 6408c7c0     update.obj
 0002:000077d4       ??_R4SfxUpdateStream@@6BUpdateStream@@@ 6408c7d4     update.obj
 0002:000077e8       ??_R3SfxUpdateStream@@8    6408c7e8     update.obj
 0002:000077f8       ??_R2SfxUpdateStream@@8    6408c7f8     update.obj
 0002:00007820       ??_R1A@?0A@EA@SfxUpdateStream@@8 6408c820     update.obj
 0002:0000783c       ??_R4SimpleUpdateStream@@6BComBase@@@ 6408c83c     update.obj
 0002:00007850       ??_R4SimpleUpdateStream@@6BUpdateStream@@@ 6408c850     update.obj
 0002:00007864       ??_R3SimpleUpdateStream@@8 6408c864     update.obj
 0002:00007874       ??_R2SimpleUpdateStream@@8 6408c874     update.obj
 0002:0000789c       ??_R1BE@?0A@EN@NonCopyable@@8 6408c89c     update.obj
 0002:000078b8       ??_R1BE@?0A@EN@File@@8     6408c8b8     update.obj
 0002:000078d4       ??_R1A@?0A@EA@SimpleUpdateStream@@8 6408c8d4     update.obj
 0002:000078f0       ??_R4UpdateStream@@6B@     6408c8f0     update.obj
 0002:00007904       ??_R3UpdateStream@@8       6408c904     update.obj
 0002:00007914       ??_R2UpdateStream@@8       6408c914     update.obj
 0002:00007928       ??_R1A@?0A@EA@UpdateStream@@8 6408c928     update.obj
 0002:00007944       ??_R4ArchiveUpdateProgress@@6B@ 6408c944     update.obj
 0002:00007958       ??_R3ArchiveUpdateProgress@@8 6408c958     update.obj
 0002:00007968       ??_R2ArchiveUpdateProgress@@8 6408c968     update.obj
 0002:00007978       ??_R1A@?0A@EA@ArchiveUpdateProgress@@8 6408c978     update.obj
 0002:00007994       ??_R4CriticalSection@@6B@  6408c994     update.obj
 0002:000079a8       ??_R3CriticalSection@@8    6408c9a8     update.obj
 0002:000079b8       ??_R2CriticalSection@@8    6408c9b8     update.obj
 0002:000079c8       ??_R13?0A@EN@_RTL_CRITICAL_SECTION@@8 6408c9c8     update.obj
 0002:000079e4       ??_R3_RTL_CRITICAL_SECTION@@8 6408c9e4     update.obj
 0002:000079f4       ??_R2_RTL_CRITICAL_SECTION@@8 6408c9f4     update.obj
 0002:000079fc       ??_R1A@?0A@EA@_RTL_CRITICAL_SECTION@@8 6408c9fc     update.obj
 0002:00007a18       ??_R13?0A@EN@NonCopyable@@8 6408ca18     update.obj
 0002:00007a34       ??_R1A@?0A@EA@CriticalSection@@8 6408ca34     update.obj
 0002:00007a50       ??_R4ICryptoGetTextPassword2@@6B@ 6408ca50     update.obj
 0002:00007a64       ??_R3ICryptoGetTextPassword2@@8 6408ca64     update.obj
 0002:00007a74       ??_R2ICryptoGetTextPassword2@@8 6408ca74     update.obj
 0002:00007a80       ??_R1A@?0A@EA@ICryptoGetTextPassword2@@8 6408ca80     update.obj
 0002:00007a9c       ??_R3IArchiveUpdateCallback@@8 6408ca9c     update.obj
 0002:00007aac       ??_R2IArchiveUpdateCallback@@8 6408caac     update.obj
 0002:00007abc       ??_R1A@?0A@EA@IArchiveUpdateCallback@@8 6408cabc     update.obj
 0002:00007ad8       ??_R3IOutStream@@8         6408cad8     update.obj
 0002:00007ae8       ??_R2IOutStream@@8         6408cae8     update.obj
 0002:00007af8       ??_R1A@?0A@EA@IOutStream@@8 6408caf8     update.obj
 0002:00007b14       ??_R4?$_Ref_count@VArchiveFileDeleterProgress@@@tr1@std@@6B@ 6408cb14     delete.obj
 0002:00007b28       ??_R3?$_Ref_count@VArchiveFileDeleterProgress@@@tr1@std@@8 6408cb28     delete.obj
 0002:00007b38       ??_R2?$_Ref_count@VArchiveFileDeleterProgress@@@tr1@std@@8 6408cb38     delete.obj
 0002:00007b44       ??_R1A@?0A@EA@?$_Ref_count@VArchiveFileDeleterProgress@@@tr1@std@@8 6408cb44     delete.obj
 0002:00007b60       ??_R4ArchiveFileDeleter@@6BComBase@@@ 6408cb60     delete.obj
 0002:00007b74       ??_R4ArchiveFileDeleter@@6BIArchiveUpdateCallback@@@ 6408cb74     delete.obj
 0002:00007b88       ??_R3ArchiveFileDeleter@@8 6408cb88     delete.obj
 0002:00007b98       ??_R2ArchiveFileDeleter@@8 6408cb98     delete.obj
 0002:00007bb4       ??_R1A@?0A@EA@ArchiveFileDeleter@@8 6408cbb4     delete.obj
 0002:00007bd0       ??_R4ArchiveFileDeleterStream@@6BComBase@@@ 6408cbd0     delete.obj
 0002:00007be4       ??_R4ArchiveFileDeleterStream@@6BIOutStream@@@ 6408cbe4     delete.obj
 0002:00007bf8       ??_R3ArchiveFileDeleterStream@@8 6408cbf8     delete.obj
 0002:00007c08       ??_R2ArchiveFileDeleterStream@@8 6408cc08     delete.obj
 0002:00007c2c       ??_R1A@?0A@EA@ArchiveFileDeleterStream@@8 6408cc2c     delete.obj
 0002:00007c48       ??_R4ArchiveFileDeleterProgress@@6B@ 6408cc48     delete.obj
 0002:00007c5c       ??_R3ArchiveFileDeleterProgress@@8 6408cc5c     delete.obj
 0002:00007c6c       ??_R2ArchiveFileDeleterProgress@@8 6408cc6c     delete.obj
 0002:00007c7c       ??_R1A@?0A@EA@ArchiveFileDeleterProgress@@8 6408cc7c     delete.obj
 0002:00007c98       ??_R4ArchiveTester@@6BProgressMonitor@@@ 6408cc98     test.obj
 0002:00007cac       ??_R4ArchiveTester@@6BComBase@@@ 6408ccac     test.obj
 0002:00007cc0       ??_R4ArchiveTester@@6BICryptoGetTextPassword@@@ 6408ccc0     test.obj
 0002:00007cd4       ??_R4ArchiveTester@@6BIArchiveExtractCallback@@@ 6408ccd4     test.obj
 0002:00007ce8       ??_R3ArchiveTester@@8      6408cce8     test.obj
 0002:00007cf8       ??_R2ArchiveTester@@8      6408ccf8     test.obj
 0002:00007d24       ??_R1BI@?0A@EN@NonCopyable@@8 6408cd24     test.obj
 0002:00007d40       ??_R1BA@?0A@EA@ProgressMonitor@@8 6408cd40     test.obj
 0002:00007d5c       ??_R1A@?0A@EA@ArchiveTester@@8 6408cd5c     test.obj
 0002:00007d78       ??_R4SfxOptionsDialog@@6B@ 6408cd78     sfx.obj
 0002:00007d8c       ??_R3SfxOptionsDialog@@8   6408cd8c     sfx.obj
 0002:00007d9c       ??_R2SfxOptionsDialog@@8   6408cd9c     sfx.obj
 0002:00007da8       ??_R1A@?0A@EA@SfxOptionsDialog@@8 6408cda8     sfx.obj
 0002:00007dc4       ??_R4AttachSfxModuleProgress@@6B@ 6408cdc4     sfx.obj
 0002:00007dd8       ??_R3AttachSfxModuleProgress@@8 6408cdd8     sfx.obj
 0002:00007de8       ??_R2AttachSfxModuleProgress@@8 6408cde8     sfx.obj
 0002:00007df8       ??_R1A@?0A@EA@AttachSfxModuleProgress@@8 6408cdf8     sfx.obj
 0002:00007e14       ??_R4Dialog@Far@@6B@       6408ce14     farutils.obj
 0002:00007e30       ___safe_se_handler_table   6408ce30     <linker-defined>
 0002:000085c0       ___rtc_iaa                 6408d5c0     LIBCMT:_initsect_.obj
 0002:000085c4       ___rtc_izz                 6408d5c4     LIBCMT:_initsect_.obj
 0002:000085c8       ___rtc_taa                 6408d5c8     LIBCMT:_initsect_.obj
 0002:000085cc       ___rtc_tzz                 6408d5cc     LIBCMT:_initsect_.obj
 0002:000085d0       __CT??_R0?AVlogic_error@std@@@8??0logic_error@std@@QAE@ABV01@@Z12 6408d5d0     libcpmt:xthrow.obj
 0002:000085ec       __TI3?AVlength_error@std@@ 6408d5ec     libcpmt:xthrow.obj
 0002:000085fc       __CTA3?AVlength_error@std@@ 6408d5fc     libcpmt:xthrow.obj
 0002:0000860c       __CT??_R0?AVlength_error@std@@@8??0length_error@std@@QAE@ABV01@@Z12 6408d60c     libcpmt:xthrow.obj
 0002:00008628       __TI3?AVout_of_range@std@@ 6408d628     libcpmt:xthrow.obj
 0002:00008638       __CTA3?AVout_of_range@std@@ 6408d638     libcpmt:xthrow.obj
 0002:00008648       __CT??_R0?AVout_of_range@std@@@8??0out_of_range@std@@QAE@ABV01@@Z12 6408d648     libcpmt:xthrow.obj
 0002:000086e4       __TI3?AV__non_rtti_object@std@@ 6408d6e4     LIBCMT:rtti.obj
 0002:000086f4       __TI2?AVbad_typeid@std@@   6408d6f4     LIBCMT:rtti.obj
 0002:00008724       __CTA2?AVbad_typeid@std@@  6408d724     LIBCMT:rtti.obj
 0002:00008730       __CT??_R0?AVbad_typeid@std@@@8??0bad_typeid@std@@QAE@ABV01@@Z12 6408d730     LIBCMT:rtti.obj
 0002:0000874c       __CTA3?AV__non_rtti_object@std@@ 6408d74c     LIBCMT:rtti.obj
 0002:0000875c       __CT??_R0?AV__non_rtti_object@std@@@8??0__non_rtti_object@std@@QAE@ABV01@@Z12 6408d75c     LIBCMT:rtti.obj
 0002:000088bc       __TI2?AVbad_exception@std@@ 6408d8bc     LIBCMT:frame.obj
 0002:000088cc       __CTA2?AVbad_exception@std@@ 6408d8cc     LIBCMT:frame.obj
 0002:000088d8       __CT??_R0?AVbad_exception@std@@@8??0bad_exception@std@@QAE@ABV01@@Z12 6408d8d8     LIBCMT:frame.obj
 0002:00008c2c       __CT??_R0?AUError@@@8??0Error@@QAE@ABU0@@Z24 6408dc2c     archive.obj
 0002:00008c48       __CTA1?AUError@@           6408dc48     archive.obj
 0002:00008c50       __TI1?AUError@@            6408dc50     archive.obj
 0002:00008c60       __CT??_R0?AVexception@std@@@8??0exception@std@@QAE@ABV01@@Z12 6408dc60     archive.obj
 0002:00008c7c       __CT??_R0?AVbad_alloc@std@@@8??0bad_alloc@std@@QAE@ABV01@@Z12 6408dc7c     archive.obj
 0002:00008c98       __CTA2?AVbad_alloc@std@@   6408dc98     archive.obj
 0002:00008ca4       __TI2?AVbad_alloc@std@@    6408dca4     archive.obj
 0002:00008cb4       __CT??_R0?AVbad_weak_ptr@tr1@std@@@8??0bad_weak_ptr@tr1@std@@QAE@ABV012@@Z12 6408dcb4     plugin.obj
 0002:00008cd0       __CTA2?AVbad_weak_ptr@tr1@std@@ 6408dcd0     plugin.obj
 0002:00008cdc       __TI2?AVbad_weak_ptr@tr1@std@@ 6408dcdc     plugin.obj
 0002:00008cec       __CT??_R0?AVruntime_error@std@@@8??0runtime_error@std@@QAE@ABV01@@Z12 6408dcec     ui.obj
 0002:00008d08       __CTA2?AVruntime_error@std@@ 6408dd08     ui.obj
 0002:00008d14       __TI2?AVruntime_error@std@@ 6408dd14     ui.obj
 0002:00008d24       __CT??_R0?AVfailure@ios_base@std@@@8??0failure@ios_base@std@@QAE@ABV012@@Z20 6408dd24     ui.obj
 0002:00008d40       __CT??_R0?AVsystem_error@std@@@8??0system_error@std@@QAE@ABV01@@Z20 6408dd40     ui.obj
 0002:00008d5c       __CTA4?AVfailure@ios_base@std@@ 6408dd5c     ui.obj
 0002:00008d70       __TI4?AVfailure@ios_base@std@@ 6408dd70     ui.obj
 0002:00008d80       __CT??_R0?AVbad_cast@std@@@8??0bad_cast@std@@QAE@ABV01@@Z12 6408dd80     ui.obj
 0002:00008d9c       __CTA2?AVbad_cast@std@@    6408dd9c     ui.obj
 0002:00008da8       __TI2?AVbad_cast@std@@     6408dda8     ui.obj
 0002:000145a4       __IMPORT_DESCRIPTOR_USER32 640995a4     user32:USER32.dll
 0002:000145b8       __IMPORT_DESCRIPTOR_ADVAPI32 640995b8     advapi32:ADVAPI32.dll
 0002:000145cc       __IMPORT_DESCRIPTOR_ole32  640995cc     ole32:ole32.dll
 0002:000145e0       __IMPORT_DESCRIPTOR_OLEAUT32 640995e0     oleaut32:OLEAUT32.dll
 0002:000145f4       __IMPORT_DESCRIPTOR_VERSION 640995f4     version:VERSION.dll
 0002:00014608       __IMPORT_DESCRIPTOR_KERNEL32 64099608     kernel32:KERNEL32.dll
 0002:0001461c       __NULL_IMPORT_DESCRIPTOR   6409961c     user32:USER32.dll
 0003:00000000       ??_R0?AVlogic_error@std@@@8 6409b000     libcpmt:xthrow.obj
 0003:00000020       ??_R0?AVlength_error@std@@@8 6409b020     libcpmt:xthrow.obj
 0003:00000040       ??_R0?AVout_of_range@std@@@8 6409b040     libcpmt:xthrow.obj
 0003:0000005f       ?_Sync@ios_base@std@@0_NA  6409b05f     libcpmt:ios.obj
 0003:00000060       ??_R0?AVerror_category@std@@@8 6409b060     libcpmt:syserror.obj
 0003:00000084       ??_R0?AV_Generic_error_category@std@@@8 6409b084     libcpmt:syserror.obj
 0003:000000b0       ??_R0?AV_Iostream_error_category@std@@@8 6409b0b0     libcpmt:syserror.obj
 0003:000000dc       ??_R0?AV_System_error_category@std@@@8 6409b0dc     libcpmt:syserror.obj
 0003:00000128       ??_R0?AV_Locimp@locale@std@@@8 6409b128     libcpmt:locale0.obj
 0003:00000158       ?_PJP_CPP_Copyright@@3PADA 6409b158     libcpmt:iosptrs.obj
 0003:000001b4       ??_R0?AVbad_typeid@std@@@8 6409b1b4     LIBCMT:stdexcpt.obj
 0003:000001d4       ??_R0?AV__non_rtti_object@std@@@8 6409b1d4     LIBCMT:stdexcpt.obj
 0003:000001f8       ??_R0?AVtype_info@@@8      6409b1f8     LIBCMT:typinfo.obj
 0003:00000210       ___lconv_static_decimal    6409b210     LIBCMT:lconv.obj
 0003:00000214       ___lconv_static_W_decimal  6409b214     LIBCMT:lconv.obj
 0003:00000218       ___lconv_c                 6409b218     LIBCMT:lconv.obj
 0003:00000268       ___lconv                   6409b268     LIBCMT:lconv.obj
 0003:00000270       ??_R0?AVbad_exception@std@@@8 6409b270     LIBCMT:frame.obj
 0003:00000294       ___security_cookie         6409b294     LIBCMT:gs_cookie.obj
 0003:00000298       ___security_cookie_complement 6409b298     LIBCMT:gs_cookie.obj
 0003:0000029c       __pctype                   6409b29c     LIBCMT:ctype.obj
 0003:000002a0       __pwctype                  6409b2a0     LIBCMT:ctype.obj
 0003:00000418       ___abort_behavior          6409b418     LIBCMT:abort.obj
 0003:00000420       ___initialmbcinfo          6409b420     LIBCMT:mbctype.obj
 0003:00000640       __mbctype                  6409b640     LIBCMT:mbctype.obj
 0003:00000748       __mbcasemap                6409b748     LIBCMT:mbctype.obj
 0003:00000848       ___ptmbcinfo               6409b848     LIBCMT:mbctype.obj
 0003:00000940       ___globallocalestatus      6409b940     LIBCMT:glstatus.obj
 0003:00000944       ___clocalestr              6409b944     LIBCMT:nlsdata2.obj
 0003:00000948       ___lc_time_c               6409b948     LIBCMT:nlsdata2.obj
 0003:00000ab0       ___initiallocinfo          6409bab0     LIBCMT:nlsdata2.obj
 0003:00000b88       ___ptlocinfo               6409bb88     LIBCMT:nlsdata2.obj
 0003:00000b8c       ___initiallocalestructinfo 6409bb8c     LIBCMT:nlsdata2.obj
 0003:00000b94       ___flsindex                6409bb94     LIBCMT:tidtable.obj
 0003:00000b98       ___getvalueindex           6409bb98     LIBCMT:tidtable.obj
 0003:00000b9c       ___nullstring              6409bb9c     LIBCMT:output.obj
 0003:00000ba0       ___wnullstring             6409bba0     LIBCMT:output.obj
 0003:00000bb0       ___badioinfo               6409bbb0     LIBCMT:ioinit.obj
 0003:00000bf0       __sys_errlist              6409bbf0     LIBCMT:syserr.obj
 0003:00000ca0       __sys_nerr                 6409bca0     LIBCMT:syserr.obj
 0003:00000ca4       ___mb_cur_max              6409bca4     LIBCMT:nlsdata1.obj
 0003:00000ca8       ___decimal_point           6409bca8     LIBCMT:nlsdata1.obj
 0003:00000cac       ___decimal_point_length    6409bcac     LIBCMT:nlsdata1.obj
 0003:00000dd0       __cfltcvt_tab              6409bdd0     LIBCMT:cmiscdat.obj
 0003:00000df8       __iob                      6409bdf8     LIBCMT:_file.obj
 0003:00001080       __NLG_Destination          6409c080     LIBCMT:exsup.obj
 0003:00001090       __confh                    6409c090     LIBCMT:initcon.obj
 0003:00001094       ??_R0?AUError@@@8          6409c094     archive.obj
 0003:000010b0       ?c_methods@@3PAPB_WA       6409c0b0     cmdline.obj
 0003:000010bc       ?c_profiles_key_name@@3PB_WB 6409c0bc     options.obj
 0003:00001378       ?g_detect_next_time@@3W4TriState@@A 6409c378     plugin.obj
 0003:0000137c       ?c_method_copy@@3PB_WB     6409c37c     archive.obj
 0003:00001380       ?c_method_lzma@@3PB_WB     6409c380     archive.obj
 0003:00001384       ?c_method_lzma2@@3PB_WB    6409c384     archive.obj
 0003:00001388       ?c_method_ppmd@@3PB_WB     6409c388     archive.obj
 0003:0000138c       ?c_sfx_ext@@3PB_WB         6409c38c     archive.obj
 0003:00001390       ?c_volume_ext@@3PB_WB      6409c390     archive.obj
 0003:00001394       ?g_plugin_prefix@@3V?$basic_string@_WU?$char_traits@_W@std@@V?$allocator@_W@2@@std@@A 6409c394     plugin.obj
 0003:000013d8       ??_R0?AVexception@std@@@8  6409c3d8     archive.obj
 0003:000013f4       ??_R0?AVbad_alloc@std@@@8  6409c3f4     archive.obj
 0003:00001410       ??_R0?AV?$_Ref_count_del@XV<lambda11>@?A0xc5e9a1c5@@@tr1@std@@@8 6409c410     plugin.obj
 0003:00001458       ??_R0?AV?$_Ref_count@V?$list@UError@@V?$allocator@UError@@@std@@@std@@@tr1@std@@@8 6409c458     plugin.obj
 0003:000014b0       ??_R0?AV_Ref_count_base@tr1@std@@@8 6409c4b0     plugin.obj
 0003:000014d8       ??_R0?AV?$_Ref_count@VArchive@@@tr1@std@@@8 6409c4d8     plugin.obj
 0003:00001508       ??_R0?AVPluginPanelItems@?1??extract@Plugin@@QAEXXZ@@8 6409c508     plugin.obj
 0003:00001548       ??_R0?AVPluginPanelItems@?1??get_files@Plugin@@QAEXPBUPluginPanelItem@@HHPAPB_W_K@Z@@8 6409c548     plugin.obj
 0003:000015a4       ??_R0?AVPluginPanelItemAccessor@Plugin@@@8 6409c5a4     plugin.obj
 0003:000015d4       ??_R0?AVbad_weak_ptr@tr1@std@@@8 6409c5d4     plugin.obj
 0003:000015f8       ??_R0?AV<lambda11>@?A0xc5e9a1c5@@@8 6409c5f8     plugin.obj
 0003:00001620       ??_R0?AV?$ctype@_W@std@@@8 6409c620     ui.obj
 0003:00001640       ??_R0?AUctype_base@std@@@8 6409c640     ui.obj
 0003:00001660       ??_R0?AV?$_Ref_count@VFileFilter@Far@@@tr1@std@@@8 6409c660     ui.obj
 0003:00001698       ??_R0?AV?$numpunct@_W@std@@@8 6409c698     ui.obj
 0003:000016b8       ??_R0?AVAttrDialog@@@8     6409c6b8     ui.obj
 0003:000016d4       ??_R0?AVSettingsDialog@@@8 6409c6d4     ui.obj
 0003:000016f4       ??_R0?AVFormatLibraryInfoDialog@@@8 6409c6f4     ui.obj
 0003:0000171c       ??_R0?AVMultiSelectDialog@@@8 6409c71c     ui.obj
 0003:0000173c       ??_R0?AVUpdateDialog@@@8   6409c73c     ui.obj
 0003:00001758       ??_R0?AVExtractDialog@@@8  6409c758     ui.obj
 0003:00001774       ??_R0?AVOverwriteDialog@@@8 6409c774     ui.obj
 0003:00001794       ??_R0?AVDialog@Far@@@8     6409c794     ui.obj
 0003:000017b0       ??_R0?AVPasswordDialog@@@8 6409c7b0     ui.obj
 0003:000017d0       ??_R0?AVNonCopyable@@@8    6409c7d0     ui.obj
 0003:000017ec       ??_R0?AVProgressMonitor@@@8 6409c7ec     ui.obj
 0003:0000180c       ??_R0?AVfacet@locale@std@@@8 6409c80c     ui.obj
 0003:00001830       ??_R0?AV?$num_put@_WV?$ostreambuf_iterator@_WU?$char_traits@_W@std@@@std@@@std@@@8 6409c830     ui.obj
 0003:00001888       ??_R0?AV?$_Iosb@H@std@@@8  6409c888     ui.obj
 0003:000018a4       ??_R0?AVios_base@std@@@8   6409c8a4     ui.obj
 0003:000018c0       ??_R0?AV?$basic_ios@_WU?$char_traits@_W@std@@@std@@@8 6409c8c0     ui.obj
 0003:000018f8       ??_R0?AV?$basic_ostream@_WU?$char_traits@_W@std@@@std@@@8 6409c8f8     ui.obj
 0003:00001938       ??_R0?AV?$basic_ostringstream@_WU?$char_traits@_W@std@@V?$allocator@_W@2@@std@@@8 6409c938     ui.obj
 0003:0000198c       ??_R0?AV?$basic_streambuf@_WU?$char_traits@_W@std@@@std@@@8 6409c98c     ui.obj
 0003:000019d0       ??_R0?AV?$basic_stringbuf@_WU?$char_traits@_W@std@@V?$allocator@_W@2@@std@@@8 6409c9d0     ui.obj
 0003:00001a34       ??_R0?AVruntime_error@std@@@8 6409ca34     ui.obj
 0003:00001a54       ??_R0?AVfailure@ios_base@std@@@8 6409ca54     ui.obj
 0003:00001a78       ??_R0?AVsystem_error@std@@@8 6409ca78     ui.obj
 0003:00001a98       ??_R0?AVbad_cast@std@@@8   6409ca98     ui.obj
 0003:00001ab8       ??_R0?AV?$_Ref_count@V?$set@IU?$less@I@std@@V?$allocator@I@2@@std@@@tr1@std@@@8 6409cab8     extract.obj
 0003:00001b0c       ??_R0?AV?$_Ref_count@VFileWriteCache@@@tr1@std@@@8 6409cb0c     extract.obj
 0003:00001b44       ??_R0?AV?$_Ref_count@VExtractProgress@@@tr1@std@@@8 6409cb44     extract.obj
 0003:00001b7c       ??_R0?AV?$_Ref_count@W4OverwriteAction@@@tr1@std@@@8 6409cb7c     extract.obj
 0003:00001bb4       ??_R0?AV?$_Ref_count@_N@tr1@std@@@8 6409cbb4     extract.obj
 0003:00001bdc       ??_R0?AVSetDirAttr@@@8     6409cbdc     extract.obj
 0003:00001bf8       ??_R0?AVPrepareExtract@@@8 6409cbf8     extract.obj
 0003:00001c18       ??_R0?AVArchiveExtractor@@@8 6409cc18     extract.obj
 0003:00001c38       ??_R0?AVCachedFileExtractStream@@@8 6409cc38     extract.obj
 0003:00001c60       ??_R0?AVExtractProgress@@@8 6409cc60     extract.obj
 0003:00001c80       ??_R0?AVComBase@@@8        6409cc80     extract.obj
 0003:00001c98       ??_R0?AUICryptoGetTextPassword@@@8 6409cc98     extract.obj
 0003:00001cc0       ??_R0?AUIArchiveExtractCallback@@@8 6409ccc0     extract.obj
 0003:00001ce8       ??_R0?AUISequentialOutStream@@@8 6409cce8     extract.obj
 0003:00001d0c       ??_R0?AUIUnknown@@@8       6409cd0c     extract.obj
 0003:00001d24       ??_R0?AUIProgress@@@8      6409cd24     extract.obj
 0003:00001d3c       ??_R0?AVArchiveOpener@@@8  6409cd3c     open.obj
 0003:00001d58       ??_R0?AVFile@@@8           6409cd58     open.obj
 0003:00001d6c       ??_R0?AVArchiveOpenStream@@@8 6409cd6c     open.obj
 0003:00001d8c       ??_R0?AUIArchiveOpenVolumeCallback@@@8 6409cd8c     open.obj
 0003:00001db8       ??_R0?AUIArchiveOpenCallback@@@8 6409cdb8     open.obj
 0003:00001ddc       ??_R0?AUIInStream@@@8      6409cddc     open.obj
 0003:00001df4       ??_R0?AUISequentialInStream@@@8 6409cdf4     open.obj
 0003:00001e18       ??_R0?AV?$_Ref_count@VArchiveUpdateProgress@@@tr1@std@@@8 6409ce18     update.obj
 0003:00001e58       ??_R0?AV?$_Ref_count@V?$map@IUFileIndexInfo@@U?$less@I@std@@V?$allocator@U?$pair@$$CBIUFileIndexInfo@@@std@@@3@@std@@@tr1@std@@@8 6409ce58     update.obj
 0003:00001edc       ??_R0?AVDeleteSrcFiles@@@8 6409cedc     update.obj
 0003:00001efc       ??_R0?AVArchiveUpdater@@@8 6409cefc     update.obj
 0003:00001f1c       ??_R0?AVPrepareUpdate@@@8  6409cf1c     update.obj
 0003:00001f38       ??_R0?AVFileReadStream@@@8 6409cf38     update.obj
 0003:00001f58       ??_R0?AVMultiVolumeUpdateStream@@@8 6409cf58     update.obj
 0003:00001f80       ??_R0?AVSfxUpdateStream@@@8 6409cf80     update.obj
 0003:00001fa0       ??_R0?AVSimpleUpdateStream@@@8 6409cfa0     update.obj
 0003:00001fc4       ??_R0?AVUpdateStream@@@8   6409cfc4     update.obj
 0003:00001fe0       ??_R0?AVArchiveUpdateProgress@@@8 6409cfe0     update.obj
 0003:00002004       ??_R0?AU_RTL_CRITICAL_SECTION@@@8 6409d004     update.obj
 0003:00002028       ??_R0?AVCriticalSection@@@8 6409d028     update.obj
 0003:00002048       ??_R0?AUICryptoGetTextPassword2@@@8 6409d048     update.obj
 0003:00002070       ??_R0?AUIArchiveUpdateCallback@@@8 6409d070     update.obj
 0003:00002098       ??_R0?AUIOutStream@@@8     6409d098     update.obj
 0003:000020b8       ??_R0?AV?$_Ref_count@VArchiveFileDeleterProgress@@@tr1@std@@@8 6409d0b8     delete.obj
 0003:000020fc       ??_R0?AVArchiveFileDeleter@@@8 6409d0fc     delete.obj
 0003:00002120       ??_R0?AVArchiveFileDeleterStream@@@8 6409d120     delete.obj
 0003:00002148       ??_R0?AVArchiveFileDeleterProgress@@@8 6409d148     delete.obj
 0003:00002174       ??_R0?AVArchiveTester@@@8  6409d174     test.obj
 0003:00002190       ??_R0?AVSfxOptionsDialog@@@8 6409d190     sfx.obj
 0003:000021b0       ??_R0?AVAttachSfxModuleProgress@@@8 6409d1b0     sfx.obj
 0003:000021d8       __fltused                  6409d1d8     LIBCMT:_fpinit_.obj
 0003:000021dc       __ldused                   6409d1dc     LIBCMT:_fpinit_.obj
 0003:00002210       __pow10pos                 6409d210     LIBCMT:_constpow_.obj
 0003:00002370       __pow10neg                 6409d370     LIBCMT:_constpow_.obj
 0003:00002500       ?_Index@ios_base@std@@0HA  6409d500     libcpmt:ios.obj
 0003:000025a4       ?_Clocptr@_Locimp@locale@std@@0PAV123@A 6409d5a4     libcpmt:locale0.obj
 0003:000025a8       ?_Id_cnt@id@locale@std@@0HA 6409d5a8     libcpmt:locale0.obj
 0003:000025ac       ?id@?$ctype@D@std@@2V0locale@2@A 6409d5ac     libcpmt:locale0.obj
 0003:000025b0       ?id@?$codecvt@GDH@std@@2V0locale@2@A 6409d5b0     libcpmt:locale0.obj
 0003:000025b4       ?id@?$ctype@_W@std@@2V0locale@2@A 6409d5b4     libcpmt:locale0.obj
 0003:000025b8       ?id@?$codecvt@_WDH@std@@2V0locale@2@A 6409d5b8     libcpmt:locale0.obj
 0003:000025c0       ?id@?$ctype@G@std@@2V0locale@2@A 6409d5c0     libcpmt:locale0.obj
 0003:000026c0       ?_Ptr_cin@std@@3PAV?$basic_istream@DU?$char_traits@D@std@@@1@A 6409d6c0     libcpmt:iosptrs.obj
 0003:000026c4       ?_Ptr_cout@std@@3PAV?$basic_ostream@DU?$char_traits@D@std@@@1@A 6409d6c4     libcpmt:iosptrs.obj
 0003:000026c8       ?_Ptr_cerr@std@@3PAV?$basic_ostream@DU?$char_traits@D@std@@@1@A 6409d6c8     libcpmt:iosptrs.obj
 0003:000026cc       ?_Ptr_clog@std@@3PAV?$basic_ostream@DU?$char_traits@D@std@@@1@A 6409d6cc     libcpmt:iosptrs.obj
 0003:000026d0       ?_Ptr_wcin@std@@3PAV?$basic_istream@_WU?$char_traits@_W@std@@@1@A 6409d6d0     libcpmt:iosptrs.obj
 0003:000026d4       ?_Ptr_wcout@std@@3PAV?$basic_ostream@_WU?$char_traits@_W@std@@@1@A 6409d6d4     libcpmt:iosptrs.obj
 0003:000026d8       ?_Ptr_wcerr@std@@3PAV?$basic_ostream@_WU?$char_traits@_W@std@@@1@A 6409d6d8     libcpmt:iosptrs.obj
 0003:000026dc       ?_Ptr_wclog@std@@3PAV?$basic_ostream@_WU?$char_traits@_W@std@@@1@A 6409d6dc     libcpmt:iosptrs.obj
 0003:0000271c       ?__type_info_root_node@@3U__type_info_node@@A 6409d71c     LIBCMT:tncleanup.obj
 0003:00002724       ___lconv_static_null       6409d724     LIBCMT:lconv.obj
 0003:00002728       ___lconv_static_W_null     6409d728     LIBCMT:lconv.obj
 0003:0000272c       __crtheap                  6409d72c     LIBCMT:heapinit.obj
 0003:00002734       __aenvptr                  6409d734     LIBCMT:dllcrt0.obj
 0003:00002738       __wenvptr                  6409d738     LIBCMT:dllcrt0.obj
 0003:0000273c       ___error_mode              6409d73c     LIBCMT:dllcrt0.obj
 0003:00002740       ___app_type                6409d740     LIBCMT:dllcrt0.obj
 0003:00002744       ___locale_changed          6409d744     LIBCMT:setlocal.obj
 0003:00002748       __maxwait                  6409d748     LIBCMT:crtheap.obj
 0003:00002a7c       ?_pnhHeap@@3P6AHI@ZA       6409da7c     LIBCMT:handler.obj
 0003:00002a80       __umaskval                 6409da80     LIBCMT:crt0dat.obj
 0003:00002a84       ___argc                    6409da84     LIBCMT:crt0dat.obj
 0003:00002a88       ___argv                    6409da88     LIBCMT:crt0dat.obj
 0003:00002a8c       ___wargv                   6409da8c     LIBCMT:crt0dat.obj
 0003:00002a90       __environ                  6409da90     LIBCMT:crt0dat.obj
 0003:00002a94       ___initenv                 6409da94     LIBCMT:crt0dat.obj
 0003:00002a98       __wenviron                 6409da98     LIBCMT:crt0dat.obj
 0003:00002a9c       ___winitenv                6409da9c     LIBCMT:crt0dat.obj
 0003:00002aa0       __pgmptr                   6409daa0     LIBCMT:crt0dat.obj
 0003:00002aa4       __wpgmptr                  6409daa4     LIBCMT:crt0dat.obj
 0003:00002aa8       __exitflag                 6409daa8     LIBCMT:crt0dat.obj
 0003:00002aac       __C_Termination_Done       6409daac     LIBCMT:crt0dat.obj
 0003:00002ab0       __C_Exit_Done              6409dab0     LIBCMT:crt0dat.obj
 0003:000030e0       ___pPurecall               6409e0e0     LIBCMT:inithelp.obj
 0003:000030e8       ___mbulinfo                6409e0e8     LIBCMT:mbctype.obj
 0003:000030f4       ___mbcodepage              6409e0f4     LIBCMT:mbctype.obj
 0003:000030f8       ___ismbcodepage            6409e0f8     LIBCMT:mbctype.obj
 0003:000030fc       ___mblcid                  6409e0fc     LIBCMT:mbctype.obj
 0003:00003100       _gpFlsAlloc                6409e100     LIBCMT:tidtable.obj
 0003:00003104       _gpFlsGetValue             6409e104     LIBCMT:tidtable.obj
 0003:00003108       _gpFlsSetValue             6409e108     LIBCMT:tidtable.obj
 0003:0000310c       _gpFlsFree                 6409e10c     LIBCMT:tidtable.obj
 0003:00003110       ___pInvalidArgHandler      6409e110     LIBCMT:invarg.obj
 0003:00003220       ?__pInconsistency@@3P6AXXZA 6409e220     LIBCMT:hooks.obj
 0003:00003378       __newmode                  6409e378     LIBCMT:_newmode.obj
 0003:000033a4       ?pArgList@UnDecorator@@0PAVReplicator@@A 6409e3a4     LIBCMT:undname.obj
 0003:000033a8       ?pZNameList@UnDecorator@@0PAVReplicator@@A 6409e3a8     LIBCMT:undname.obj
 0003:000033ac       ?pTemplateArgList@UnDecorator@@0PAVReplicator@@A 6409e3ac     LIBCMT:undname.obj
 0003:000033b0       ?gName@UnDecorator@@0PBDB  6409e3b0     LIBCMT:undname.obj
 0003:000033b4       ?name@UnDecorator@@0PBDB   6409e3b4     LIBCMT:undname.obj
 0003:000033b8       ?outputString@UnDecorator@@0PADA 6409e3b8     LIBCMT:undname.obj
 0003:000033bc       ?maxStringLength@UnDecorator@@0HA 6409e3bc     LIBCMT:undname.obj
 0003:000033c0       ?disableFlags@UnDecorator@@0KA 6409e3c0     LIBCMT:undname.obj
 0003:000033c4       ?m_pGetParameter@UnDecorator@@0P6APADJ@ZA 6409e3c4     LIBCMT:undname.obj
 0003:000033c8       ?fExplicitTemplateParams@UnDecorator@@0_NA 6409e3c8     LIBCMT:undname.obj
 0003:000033c9       ?fGetTemplateArgumentList@UnDecorator@@0_NA 6409e3c9     LIBCMT:undname.obj
 0003:000033cc       ?nodes@?1??make@DNameStatusNode@@SAPAV2@W4DNameStatus@@@Z@4PAV2@A 6409e3cc     LIBCMT:undname.obj
 0003:000033fc       ??_B?1??make@DNameStatusNode@@SAPAV1@W4DNameStatus@@@Z@51 6409e3fc     LIBCMT:undname.obj
 0003:00003418       __cflush                   6409e418     LIBCMT:_file.obj
 0003:00003420       __stdbuf                   6409e420     LIBCMT:_sftbuf.obj
 0003:00003428       ?max_check_size@Archive@@2IA 6409e428     archive.obj
 0003:0000342c       ___@@_PchSym_@00@UhixUkoftrmhUzixorgvUurmzoODCdOexUsvzwvihOlyq@ 6409e42c     headers.obj
 0003:00003430       ?g_fsf@Far@@3UFarStandardFunctions@@A 6409e430     farutils.obj
 0003:00003518       ?g_far@Far@@3UPluginStartupInfo@@A 6409e518     farutils.obj
 0003:0000359c       ?arc_api@ArcAPI@@0PAV1@A   6409e59c     archive.obj
 0003:000035a0       ?c_7z@@3V?$vector@EV?$allocator@E@std@@@std@@B 6409e5a0     archive.obj
 0003:000035b0       ?c_zip@@3V?$vector@EV?$allocator@E@std@@@std@@B 6409e5b0     archive.obj
 0003:000035c0       ?c_bzip2@@3V?$vector@EV?$allocator@E@std@@@std@@B 6409e5c0     archive.obj
 0003:000035d0       ?c_gzip@@3V?$vector@EV?$allocator@E@std@@@std@@B 6409e5d0     archive.obj
 0003:000035e0       ?c_xz@@3V?$vector@EV?$allocator@E@std@@@std@@B 6409e5e0     archive.obj
 0003:000035f0       ?c_iso@@3V?$vector@EV?$allocator@E@std@@@std@@B 6409e5f0     archive.obj
 0003:00003600       ?c_udf@@3V?$vector@EV?$allocator@E@std@@@std@@B 6409e600     archive.obj
 0003:00003610       ?c_rar@@3V?$vector@EV?$allocator@E@std@@@std@@B 6409e610     archive.obj
 0003:00003620       ?c_split@@3V?$vector@EV?$allocator@E@std@@@std@@B 6409e620     archive.obj
 0003:00003630       ?c_wim@@3V?$vector@EV?$allocator@E@std@@@std@@B 6409e630     archive.obj
 0003:00003640       ?c_tar@@3V?$vector@EV?$allocator@E@std@@@std@@B 6409e640     archive.obj
 0003:00003650       ?g_options@@3UOptions@@A   6409e650     options.obj
 0003:0000392c       ?g_profiles@@3UUpdateProfiles@@A 6409e92c     options.obj
 0003:0000393c       ?g_com_error@@3UError@@A   6409e93c     common.obj
 0003:00003968       ?_Psave@?$_Facetptr@V?$num_put@_WV?$ostreambuf_iterator@_WU?$char_traits@_W@std@@@std@@@std@@@std@@2PBVfacet@locale@2@B 6409e968     ui.obj
 0003:0000396c       ?_Psave@?$_Facetptr@V?$numpunct@_W@std@@@std@@2PBVfacet@locale@2@B 6409e96c     ui.obj
 0003:00003970       ?_Psave@?$_Facetptr@V?$ctype@_W@std@@@std@@2PBVfacet@locale@2@B 6409e970     ui.obj
 0003:0000399c       ?id@?$numpunct@_W@std@@2V0locale@2@A 6409e99c     ui.obj
 0003:000039a0       ?id@?$num_put@_WV?$ostreambuf_iterator@_WU?$char_traits@_W@std@@@std@@@std@@2V0locale@2@A 6409e9a0     ui.obj
 0003:000039a4       ___fastflag                6409e9a4     LIBCMT:_fpinit_.obj
 0003:000039a8       __outputformat             6409e9a8     LIBCMT:outputformat.obj
 0003:000039ac       ___piob                    6409e9ac     <common>
 0003:000039c0       __bufin                    6409e9c0     <common>
 0003:000049c0       __nstream                  6409f9c0     <common>
 0003:000049c4       __debugger_hook_dummy      6409f9c4     <common>
 0003:000049c8       __nhandle                  6409f9c8     <common>
 0003:000049e0       ___pioinfo                 6409f9e0     <common>
 0003:00004ae0       ___env_initialized         6409fae0     <common>
 0003:00004ae4       ___onexitend               6409fae4     <common>
 0003:00004ae8       ___onexitbegin             6409fae8     <common>
 0003:00004aec       ___mbctype_initialized     6409faec     <common>
 0003:00004af0       ___dyn_tls_init_callback   6409faf0     <common>
 0003:00004af4       ___sse2_available          6409faf4     <common>
 0003:00004af8       __acmdln                   6409faf8     <common>

 entry point at        0001:00064899

 Static symbols

 0001:00002744       __catch$?load@ArcAPI@@AAEXXZ$0 64003744 f    CIL library: CIL module
 0001:00004e2f       __catch$??0?$list@V?$basic_string@_WU?$char_traits@_W@std@@V?$allocator@_W@2@@std@@V?$allocator@V?$basic_string@_WU?$char_traits@_W@std@@V?$allocator@_W@2@@std@@@2@@std@@QAE@ABV01@@Z$0 64005e2f f i  CIL library: CIL module
 0001:00004f0b       __catch$??0?$vector@EV?$allocator@E@std@@@std@@QAE@ABV01@@Z$0 64005f0b f i  CIL library: CIL module
 0001:000054c2       __catch$?reserve@?$vector@UArcFileInfo@@V?$allocator@UArcFileInfo@@@std@@@std@@QAEXI@Z$0 640064c2 f i  CIL library: CIL module
 0001:00005943       __catch$?_Construct_n@?$list@V?$basic_string@_WU?$char_traits@_W@std@@V?$allocator@_W@2@@std@@V?$allocator@V?$basic_string@_WU?$char_traits@_W@std@@V?$allocator@_W@2@@std@@@2@@std@@QAEXIABV?$basic_string@_WU?$char_traits@_W@std@@V?$allocator@_W@2@@2@@Z$0 64006943 f i  CIL library: CIL module
 0001:00005f3f       __catch$?_Insert_n@?$list@V?$basic_string@_WU?$char_traits@_W@std@@V?$allocator@_W@2@@std@@V?$allocator@V?$basic_string@_WU?$char_traits@_W@std@@V?$allocator@_W@2@@std@@@2@@std@@QAEXV?$_List_const_iterator@V?$_List_val@V?$basic_string@_WU?$char_traits@_W@std@@V?$allocator@_W@2@@std@@V?$allocator@V?$basic_string@_WU?$char_traits@_W@std@@V?$allocator@_W@2@@std@@@2@@std@@@2@IABV?$basic_string@_WU?$char_traits@_W@std@@V?$allocator@_W@2@@2@@Z$0 64006f3f f i  CIL library: CIL module
 0001:00006010       __catch$?_Buynode@?$_List_val@V?$basic_string@_WU?$char_traits@_W@std@@V?$allocator@_W@2@@std@@V?$allocator@V?$basic_string@_WU?$char_traits@_W@std@@V?$allocator@_W@2@@std@@@2@@std@@QAEPAU_Node@?$_List_nod@V?$basic_string@_WU?$char_traits@_W@std@@V?$allocator@_W@2@@std@@V?$allocator@V?$basic_string@_WU?$char_traits@_W@std@@V?$allocator@_W@2@@std@@@2@@2@PAU342@0ABV?$basic_string@_WU?$char_traits@_W@std@@V?$allocator@_W@2@@2@@Z$0 64007010 f i  CIL library: CIL module
 0001:000060d0       __catch$?_Buynode@?$_List_val@V?$vector@EV?$allocator@E@std@@@std@@V?$allocator@V?$vector@EV?$allocator@E@std@@@std@@@2@@std@@QAEPAU_Node@?$_List_nod@V?$vector@EV?$allocator@E@std@@@std@@V?$allocator@V?$vector@EV?$allocator@E@std@@@std@@@2@@2@PAU342@0ABV?$vector@EV?$allocator@E@std@@@2@@Z$0 640070d0 f i  CIL library: CIL module
 0001:0000635f       __catch$?reserve@?$vector@USfxModule@@V?$allocator@USfxModule@@@std@@@std@@QAEXI@Z$0 6400735f f i  CIL library: CIL module
 0001:000064a2       __catch$?reserve@?$vector@UArcLib@@V?$allocator@UArcLib@@@std@@@std@@QAEXI@Z$0 640074a2 f i  CIL library: CIL module
 0001:00008f07       __catch$??$_Construct@PBE@?$vector@EV?$allocator@E@std@@@std@@QAEXPBE0Uinput_iterator_tag@1@@Z$0 64009f07 f i  CIL library: CIL module
 0001:00009399       __catch$??$_Buynode@AAUDirInfo@?4??make_index@Archive@@QAEXXZ@@?$_Tree_val@V?$_Tset_traits@UDirInfo@?4??make_index@Archive@@QAEXXZ@U?$less@UDirInfo@?4??make_index@Archive@@QAEXXZ@@std@@V?$allocator@UDirInfo@?4??make_index@Archive@@QAEXXZ@@5@$0A@@std@@@std@@QAEPAU_Node@?$_Tree_nod@V?$_Tset_traits@UDirInfo@?4??make_index@Archive@@QAEXXZ@U?$less@UDirInfo@?4??make_index@Archive@@QAEXXZ@@std@@V?$allocator@UDirInfo@?4??make_index@Archive@@QAEXXZ@@5@$0A@@std@@@1@AAUDirInfo@?4??make_index@Archive@@QAEXXZ@@Z$0 6400a399 f i  CIL library: CIL module
 0001:000098f7       __catch$??$_Insert@V?$_List_const_iterator@V?$_List_val@V?$basic_string@_WU?$char_traits@_W@std@@V?$allocator@_W@2@@std@@V?$allocator@V?$basic_string@_WU?$char_traits@_W@std@@V?$allocator@_W@2@@std@@@2@@std@@@std@@@?$list@V?$basic_string@_WU?$char_traits@_W@std@@V?$allocator@_W@2@@std@@V?$allocator@V?$basic_string@_WU?$char_traits@_W@std@@V?$allocator@_W@2@@std@@@2@@std@@QAEXV?$_List_const_iterator@V?$_List_val@V?$basic_string@_WU?$char_traits@_W@std@@V?$allocator@_W@2@@std@@V?$allocator@V?$basic_string@_WU?$char_traits@_W@std@@V?$allocator@_W@2@@std@@@2@@std@@@1@00Uforward_iterator_tag@1@@Z$0 6400a8f7 f i  CIL library: CIL module
 0001:000099d9       __catch$??$_Buynode@U?$pair@$$CBV?$vector@EV?$allocator@E@std@@@std@@UArcFormat@@@std@@@?$_Tree_val@V?$_Tmap_traits@V?$vector@EV?$allocator@E@std@@@std@@UArcFormat@@U?$less@V?$vector@EV?$allocator@E@std@@@std@@@2@V?$allocator@U?$pair@$$CBV?$vector@EV?$allocator@E@std@@@std@@UArcFormat@@@std@@@2@$0A@@std@@@std@@QAEPAU_Node@?$_Tree_nod@V?$_Tmap_traits@V?$vector@EV?$allocator@E@std@@@std@@UArcFormat@@U?$less@V?$vector@EV?$allocator@E@std@@@std@@@2@V?$allocator@U?$pair@$$CBV?$vector@EV?$allocator@E@std@@@std@@UArcFormat@@@std@@@2@$0A@@std@@@1@$$QAU?$pair@$$CBV?$vector@EV?$allocator@E@std@@@std@@UArcFormat@@@1@@Z$0 6400a9d9 f i  CIL library: CIL module
 0001:0000a12e       __catch$??$_Uninit_move@PAUArcFileInfo@@PAU1@V?$allocator@UArcFileInfo@@@std@@U1@@std@@YAPAUArcFileInfo@@PAU1@00AAV?$allocator@UArcFileInfo@@@0@0U_Nonscalar_ptr_iterator_tag@0@@Z$0 6400b12e f i  CIL library: CIL module
 0001:0000a212       __catch$??$_Uninit_move@PAUSfxModule@@PAU1@V?$allocator@USfxModule@@@std@@U1@@std@@YAPAUSfxModule@@PAU1@00AAV?$allocator@USfxModule@@@0@0U_Nonscalar_ptr_iterator_tag@0@@Z$0 6400b212 f i  CIL library: CIL module
 0001:0000a304       __catch$??$_Uninit_move@PAUArcLib@@PAU1@V?$allocator@UArcLib@@@std@@U1@@std@@YAPAUArcLib@@PAU1@00AAV?$allocator@UArcLib@@@0@0U_Nonscalar_ptr_iterator_tag@0@@Z$0 6400b304 f i  CIL library: CIL module
 0001:0000b288       __catch$?_Copy@?$basic_string@_WU?$char_traits@_W@std@@V?$allocator@_W@2@@std@@QAEXII@Z$0 6400c288 f i  CIL library: CIL module
 0001:0000b30f       __catch$?_Copy@?$basic_string@_WU?$char_traits@_W@std@@V?$allocator@_W@2@@std@@QAEXII@Z$1 6400c30f f i  CIL library: CIL module
 0001:0000b803       __catch$?_Copy@?$basic_string@DU?$char_traits@D@std@@V?$allocator@D@2@@std@@QAEXII@Z$0 6400c803 f i  CIL library: CIL module
 0001:0000b88b       __catch$?_Copy@?$basic_string@DU?$char_traits@D@std@@V?$allocator@D@2@@std@@QAEXII@Z$1 6400c88b f i  CIL library: CIL module
 0001:0000cab0       __catch$?list@Plugin@@QAEXPAPAUPluginPanelItem@@PAI@Z$0 6400dab0 f i  CIL library: CIL module
 0001:0000de56       __catch$?extract@Plugin@@SAXABV?$vector@V?$basic_string@_WU?$char_traits@_W@std@@V?$allocator@_W@2@@std@@V?$allocator@V?$basic_string@_WU?$char_traits@_W@std@@V?$allocator@_W@2@@std@@@2@@std@@UExtractOptions@@@Z$0 6400ee56 f i  CIL library: CIL module
 0001:0000eddf       __catch$?bulk_test@Plugin@@SAXABV?$vector@V?$basic_string@_WU?$char_traits@_W@std@@V?$allocator@_W@2@@std@@V?$allocator@V?$basic_string@_WU?$char_traits@_W@std@@V?$allocator@_W@2@@std@@@2@@std@@@Z$2 6400fddf f i  CIL library: CIL module
 0001:0000eefe       __catch$?bulk_test@Plugin@@SAXABV?$vector@V?$basic_string@_WU?$char_traits@_W@std@@V?$allocator@_W@2@@std@@V?$allocator@V?$basic_string@_WU?$char_traits@_W@std@@V?$allocator@_W@2@@std@@@2@@std@@@Z$0 6400fefe f i  CIL library: CIL module
 0001:00012270       ?get@PluginPanelItems@?1??get_files@Plugin@@QAEXPBUPluginPanelItem@@HHPAPB_W_K@Z@UBEPBU4@I@Z 64013270 f    CIL library: CIL module
 0001:00012280       ?size@PluginPanelItems@?1??get_files@Plugin@@QAEXPBUPluginPanelItem@@HHPAPB_W_K@Z@UBEIXZ 64013280 f    CIL library: CIL module
 0001:00012290       ??0PluginPanelItems@?1??extract@Plugin@@QAEXXZ@QAE@PAX@Z 64013290 f    CIL library: CIL module
 0001:000123e0       ?get@PluginPanelItems@?1??extract@Plugin@@QAEXXZ@UBEPBUPluginPanelItem@@I@Z 640133e0 f    CIL library: CIL module
 0001:00012400       ?size@PluginPanelItems@?1??extract@Plugin@@QAEXXZ@UBEIXZ 64013400 f    CIL library: CIL module
 0001:000131d6       __catch$_GetPluginInfoW@4$0 640141d6 f    CIL library: CIL module
 0001:0001320b       __catch$_GetPluginInfoW@4$1 6401420b f    CIL library: CIL module
 0001:00013248       __catch$_GetPluginInfoW@4$3 64014248 f    CIL library: CIL module
 0001:000139b6       __catch$_AnalyseW@4$0      640149b6 f    CIL library: CIL module
 0001:000139fa       __catch$_AnalyseW@4$1      640149fa f    CIL library: CIL module
 0001:00013a02       __catch$_AnalyseW@4$3      64014a02 f    CIL library: CIL module
 0001:000142e5       __catch$_OpenW@4$0         640152e5 f    CIL library: CIL module
 0001:000143c5       __catch$_OpenW@4$2         640153c5 f    CIL library: CIL module
 0001:000143f9       __catch$_OpenW@4$3         640153f9 f    CIL library: CIL module
 0001:00014434       __catch$_OpenW@4$5         64015434 f    CIL library: CIL module
 0001:00014681       __catch$_ClosePanelW@4$0   64015681 f    CIL library: CIL module
 0001:000146c3       __catch$_ClosePanelW@4$2   640156c3 f    CIL library: CIL module
 0001:000146de       __catch$_ClosePanelW@4$3   640156de f    CIL library: CIL module
 0001:000146e6       __catch$_ClosePanelW@4$5   640156e6 f    CIL library: CIL module
 0001:00014862       __catch$_GetOpenPanelInfoW@4$0 64015862 f    CIL library: CIL module
 0001:00014897       __catch$_GetOpenPanelInfoW@4$1 64015897 f    CIL library: CIL module
 0001:000148d4       __catch$_GetOpenPanelInfoW@4$3 640158d4 f    CIL library: CIL module
 0001:00014974       __catch$_SetDirectoryW@4$0 64015974 f    CIL library: CIL module
 0001:000149d6       __catch$_SetDirectoryW@4$1 640159d6 f    CIL library: CIL module
 0001:00014a22       __catch$_SetDirectoryW@4$3 64015a22 f    CIL library: CIL module
 0001:00014a87       __catch$_GetFindDataW@4$0  64015a87 f    CIL library: CIL module
 0001:00014ae9       __catch$_GetFindDataW@4$1  64015ae9 f    CIL library: CIL module
 0001:00014b35       __catch$_GetFindDataW@4$3  64015b35 f    CIL library: CIL module
 0001:00014c04       __catch$_GetFilesW@4$0     64015c04 f    CIL library: CIL module
 0001:00014c69       __catch$_GetFilesW@4$1     64015c69 f    CIL library: CIL module
 0001:00014cb2       __catch$_GetFilesW@4$3     64015cb2 f    CIL library: CIL module
 0001:00014d25       __catch$_PutFilesW@4$0     64015d25 f    CIL library: CIL module
 0001:00014d8a       __catch$_PutFilesW@4$1     64015d8a f    CIL library: CIL module
 0001:00014dd3       __catch$_PutFilesW@4$3     64015dd3 f    CIL library: CIL module
 0001:00014e3e       __catch$_DeleteFilesW@4$0  64015e3e f    CIL library: CIL module
 0001:00014ea0       __catch$_DeleteFilesW@4$1  64015ea0 f    CIL library: CIL module
 0001:00014eec       __catch$_DeleteFilesW@4$3  64015eec f    CIL library: CIL module
 0001:00014f69       __catch$_MakeDirectoryW@4$0 64015f69 f    CIL library: CIL module
 0001:00014fcc       __catch$_MakeDirectoryW@4$1 64015fcc f    CIL library: CIL module
 0001:00015018       __catch$_MakeDirectoryW@4$3 64016018 f    CIL library: CIL module
 0001:0001510e       __catch$_ProcessHostFileW@4$0 6401610e f    CIL library: CIL module
 0001:00015170       __catch$_ProcessHostFileW@4$1 64016170 f    CIL library: CIL module
 0001:000151bc       __catch$_ProcessHostFileW@4$3 640161bc f    CIL library: CIL module
 0001:00015254       __catch$_ProcessPanelInputW@4$0 64016254 f    CIL library: CIL module
 0001:00015285       __catch$_ProcessPanelInputW@4$1 64016285 f    CIL library: CIL module
 0001:000152bd       __catch$_ProcessPanelInputW@4$3 640162bd f    CIL library: CIL module
 0001:000154e7       __catch$_ConfigureW@4$0    640164e7 f    CIL library: CIL module
 0001:00015522       __catch$_ConfigureW@4$1    64016522 f    CIL library: CIL module
 0001:0001556e       __catch$_ConfigureW@4$3    6401656e f    CIL library: CIL module
 0001:0001589f       __catch$?reserve@?$vector@V?$basic_string@_WU?$char_traits@_W@std@@V?$allocator@_W@2@@std@@V?$allocator@V?$basic_string@_WU?$char_traits@_W@std@@V?$allocator@_W@2@@std@@@2@@std@@QAEXI@Z$0 6401689f f i  CIL library: CIL module
 0001:00015a1f       __catch$??0?$list@V?$vector@EV?$allocator@E@std@@@std@@V?$allocator@V?$vector@EV?$allocator@E@std@@@std@@@2@@std@@QAE@ABV01@@Z$0 64016a1f f i  CIL library: CIL module
 0001:00015d1d       __catch$?reserve@?$vector@UInfoPanelLine@@V?$allocator@UInfoPanelLine@@@std@@@std@@QAEXI@Z$0 64016d1d f i  CIL library: CIL module
 0001:000164c6       __catch$?_Buynode@?$_List_val@UError@@V?$allocator@UError@@@std@@@std@@QAEPAU_Node@?$_List_nod@UError@@V?$allocator@UError@@@std@@@2@PAU342@0ABUError@@@Z$0 640174c6 f i  CIL library: CIL module
 0001:00017014       __catch$??$_Construct@V?$_String_const_iterator@DU?$char_traits@D@std@@V?$allocator@D@2@@std@@@?$basic_string@_WU?$char_traits@_W@std@@V?$allocator@_W@2@@std@@QAEXV?$_String_const_iterator@DU?$char_traits@D@std@@V?$allocator@D@2@@1@0Uforward_iterator_tag@1@@Z$0 64018014 f i  CIL library: CIL module
 0001:00017014       __catch$??$_Construct@V?$_String_iterator@DU?$char_traits@D@std@@V?$allocator@D@2@@std@@@?$basic_string@_WU?$char_traits@_W@std@@V?$allocator@_W@2@@std@@QAEXV?$_String_iterator@DU?$char_traits@D@std@@V?$allocator@D@2@@1@0Uforward_iterator_tag@1@@Z$0 64018014 f i  CIL library: CIL module
 0001:00017136       __catch$??$_Resetp@VArchive@@@?$shared_ptr@VArchive@@@tr1@std@@AAEXPAVArchive@@@Z$0 64018136 f i  CIL library: CIL module
 0001:000174a3       __catch$??$_Resetp@V?$list@UError@@V?$allocator@UError@@@std@@@std@@@?$shared_ptr@V?$list@UError@@V?$allocator@UError@@@std@@@std@@@tr1@std@@AAEXPAV?$list@UError@@V?$allocator@UError@@@std@@@2@@Z$0 640184a3 f i  CIL library: CIL module
 0001:00017c71       __catch$??$_Resetp@XV<lambda11>@?A0xc5e9a1c5@@@?$shared_ptr@X@tr1@std@@AAEXPAXV<lambda11>@?A0xc5e9a1c5@@@Z$0 64018c71 f i  CIL library: CIL module
 0001:00017d1a       __catch$??$_Buynode@V?$basic_string@_WU?$char_traits@_W@std@@V?$allocator@_W@2@@std@@@?$_List_val@V?$basic_string@_WU?$char_traits@_W@std@@V?$allocator@_W@2@@std@@V?$allocator@V?$basic_string@_WU?$char_traits@_W@std@@V?$allocator@_W@2@@std@@@2@@std@@QAEPAU_Node@?$_List_nod@V?$basic_string@_WU?$char_traits@_W@std@@V?$allocator@_W@2@@std@@V?$allocator@V?$basic_string@_WU?$char_traits@_W@std@@V?$allocator@_W@2@@std@@@2@@1@PAU231@0$$QAV?$basic_string@_WU?$char_traits@_W@std@@V?$allocator@_W@2@@1@@Z$0 64018d1a f i  CIL library: CIL module
 0001:00017de7       __catch$??$_Insert@V?$_List_const_iterator@V?$_List_val@V?$vector@EV?$allocator@E@std@@@std@@V?$allocator@V?$vector@EV?$allocator@E@std@@@std@@@2@@std@@@std@@@?$list@V?$vector@EV?$allocator@E@std@@@std@@V?$allocator@V?$vector@EV?$allocator@E@std@@@std@@@2@@std@@QAEXV?$_List_const_iterator@V?$_List_val@V?$vector@EV?$allocator@E@std@@@std@@V?$allocator@V?$vector@EV?$allocator@E@std@@@std@@@2@@std@@@1@00Uforward_iterator_tag@1@@Z$0 64018de7 f i  CIL library: CIL module
 0001:00018ac7       __catch$??$_Insert@V?$_List_const_iterator@V?$_List_val@UAttr@@V?$allocator@UAttr@@@std@@@std@@@std@@@?$list@UAttr@@V?$allocator@UAttr@@@std@@@std@@QAEXV?$_List_const_iterator@V?$_List_val@UAttr@@V?$allocator@UAttr@@@std@@@std@@@1@00Uforward_iterator_tag@1@@Z$0 64019ac7 f i  CIL library: CIL module
 0001:00018b81       __catch$?_Buynode@?$_List_val@UAttr@@V?$allocator@UAttr@@@std@@@std@@QAEPAU_Node@?$_List_nod@UAttr@@V?$allocator@UAttr@@@std@@@2@PAU342@0ABUAttr@@@Z$0 64019b81 f i  CIL library: CIL module
 0001:0001fe7b       __catch$?dialog_proc@UpdateDialog@@EAEHHHPAX@Z$0 64020e7b f i  CIL library: CIL module
 0001:00024f90       ??RItemCompare@?1??show@MultiSelectDialog@@QAE_NXZ@QBE_NABV?$basic_string@_WU?$char_traits@_W@std@@V?$allocator@_W@2@@std@@0@Z 64025f90 f i  CIL library: CIL module
 0001:000258d2       __catch$??6?$basic_ostream@_WU?$char_traits@_W@std@@@std@@QAEAAV01@H@Z$0 640268d2 f i  CIL library: CIL module
 0001:0002778c       __catch$?reserve@?$vector@V?$vector@EV?$allocator@E@std@@@std@@V?$allocator@V?$vector@EV?$allocator@E@std@@@std@@@2@@std@@QAEXI@Z$0 6402878c f i  CIL library: CIL module
 0001:000278bf       __catch$?reserve@?$vector@UFarListItem@@V?$allocator@UFarListItem@@@std@@@std@@QAEXI@Z$0 640288bf f i  CIL library: CIL module
 0001:00028e3c       __catch$??$?6_WU?$char_traits@_W@std@@V?$allocator@_W@1@@std@@YAAAV?$basic_ostream@_WU?$char_traits@_W@std@@@0@AAV10@ABV?$basic_string@_WU?$char_traits@_W@std@@V?$allocator@_W@2@@0@@Z$0 64029e3c f i  CIL library: CIL module
 0001:00029075       __catch$??$?6_WU?$char_traits@_W@std@@@std@@YAAAV?$basic_ostream@_WU?$char_traits@_W@std@@@0@AAV10@_W@Z$0 6402a075 f i  CIL library: CIL module
 0001:000299c2       __catch$?_Init@?$numpunct@_W@std@@IAEXABV_Locinfo@2@_N@Z$0 6402a9c2 f i  CIL library: CIL module
 0001:0002a453       __catch$??$_Resetp@VFileFilter@Far@@@?$shared_ptr@VFileFilter@Far@@@tr1@std@@AAEXPAVFileFilter@Far@@@Z$0 6402b453 f i  CIL library: CIL module
 0001:0002b06e       __catch$??$_Insert@V?$_List_const_iterator@V?$_List_val@V?$basic_string@_WU?$char_traits@_W@std@@V?$allocator@_W@2@@std@@V?$allocator@V?$basic_string@_WU?$char_traits@_W@std@@V?$allocator@_W@2@@std@@@2@@std@@@std@@@?$vector@V?$basic_string@_WU?$char_traits@_W@std@@V?$allocator@_W@2@@std@@V?$allocator@V?$basic_string@_WU?$char_traits@_W@std@@V?$allocator@_W@2@@std@@@2@@std@@QAEXV?$_Vector_const_iterator@V?$_Vector_val@V?$basic_string@_WU?$char_traits@_W@std@@V?$allocator@_W@2@@std@@V?$allocator@V?$basic_string@_WU?$char_traits@_W@std@@V?$allocator@_W@2@@std@@@2@@std@@@1@V?$_List_const_iterator@V?$_List_val@V?$basic_string@_WU?$char_traits@_W@std@@V?$allocator@_W@2@@std@@V?$allocator@V?$basic_string@_WU?$char_traits@_W@std@@V?$allocator@_W@2@@std@@@2@@std@@@1@1Uforward_iterator_tag@1@@Z$0 6402c06e f i  CIL library: CIL module
 0001:0002c5cf       __catch$??$_Uninit_copy@V?$_List_const_iterator@V?$_List_val@V?$basic_string@_WU?$char_traits@_W@std@@V?$allocator@_W@2@@std@@V?$allocator@V?$basic_string@_WU?$char_traits@_W@std@@V?$allocator@_W@2@@std@@@2@@std@@@std@@PAV?$basic_string@_WU?$char_traits@_W@std@@V?$allocator@_W@2@@2@V?$allocator@V?$basic_string@_WU?$char_traits@_W@std@@V?$allocator@_W@2@@std@@@2@@std@@YAPAV?$basic_string@_WU?$char_traits@_W@std@@V?$allocator@_W@2@@0@V?$_List_const_iterator@V?$_List_val@V?$basic_string@_WU?$char_traits@_W@std@@V?$allocator@_W@2@@std@@V?$allocator@V?$basic_string@_WU?$char_traits@_W@std@@V?$allocator@_W@2@@std@@@2@@std@@@0@0PAV10@AAV?$allocator@V?$basic_string@_WU?$char_traits@_W@std@@V?$allocator@_W@2@@std@@@0@U_Nonscalar_ptr_iterator_tag@0@@Z$0 6402d5cf f i  CIL library: CIL module
 0001:0002d75b       __catch$?_Osfx@?$basic_ostream@_WU?$char_traits@_W@std@@@std@@QAEXXZ$0 6402e75b f i  CIL library: CIL module
 0001:0002e859       __catch$?create_file@FileWriteCache@@AAEXXZ$0 6402f859 f i  CIL library: CIL module
 0001:0002e945       __catch$?allocate_file@FileWriteCache@@AAEXXZ$0 6402f945 f i  CIL library: CIL module
 0001:0002ea46       __catch$?write_file@FileWriteCache@@AAEXXZ$0 6402fa46 f i  CIL library: CIL module
 0001:0002eb9c       __catch$?close_file@FileWriteCache@@AAEXXZ$0 6402fb9c f i  CIL library: CIL module
 0001:0002f762       __catch$?Write@CachedFileExtractStream@@UAGJPBXIPAI@Z$0 64030762 f i  CIL library: CIL module
 0001:0002f78f       __catch$?Write@CachedFileExtractStream@@UAGJPBXIPAI@Z$1 6403078f f i  CIL library: CIL module
 0001:0002f7b8       __catch$?Write@CachedFileExtractStream@@UAGJPBXIPAI@Z$3 640307b8 f i  CIL library: CIL module
 0001:0002fd82       __catch$?SetCompleted@ArchiveExtractor@@UAGJPB_K@Z$0 64030d82 f i  CIL library: CIL module
 0001:0002fdaf       __catch$?SetCompleted@ArchiveExtractor@@UAGJPB_K@Z$1 64030daf f i  CIL library: CIL module
 0001:0002fdd8       __catch$?SetCompleted@ArchiveExtractor@@UAGJPB_K@Z$3 64030dd8 f i  CIL library: CIL module
 0001:00030196       __catch$?GetStream@ArchiveExtractor@@UAGJIPAPAUISequentialOutStream@@H@Z$0 64031196 f i  CIL library: CIL module
 0001:000301d4       __catch$?GetStream@ArchiveExtractor@@UAGJIPAPAUISequentialOutStream@@H@Z$1 640311d4 f i  CIL library: CIL module
 0001:000301fd       __catch$?GetStream@ArchiveExtractor@@UAGJIPAPAUISequentialOutStream@@H@Z$3 640311fd f i  CIL library: CIL module
 0001:00030469       __catch$?SetOperationResult@ArchiveExtractor@@UAGJH@Z$0 64031469 f i  CIL library: CIL module
 0001:000304d9       __catch$?SetOperationResult@ArchiveExtractor@@UAGJH@Z$2 640314d9 f i  CIL library: CIL module
 0001:000304ef       __catch$?SetOperationResult@ArchiveExtractor@@UAGJH@Z$3 640314ef f i  CIL library: CIL module
 0001:00030518       __catch$?SetOperationResult@ArchiveExtractor@@UAGJH@Z$5 64031518 f i  CIL library: CIL module
 0001:00030678       __catch$?CryptoGetTextPassword@ArchiveExtractor@@UAGJPAPA_W@Z$0 64031678 f i  CIL library: CIL module
